(lp0
I0
aI0
aI0
aI0
aI0
aI0
aI0
aI0
aI0
aI0
aI0
aI0
aI0
aI0
aI0
aI0
aI0
aI0
aI0
aI0
aI0
aI0
aI0
aI0
aI0
aI0
aI0
aI0
aI0
aI0
aI0
aI0
aI0
aI0
aI0
aI0
aI0
aI0
aI0
aI0
aI0
aI0
aI0
aI0
aI0
aI0
aI0
aI0
aI0
aI0
aI0
aI0
aI0
aI0
aI0
aI0
aI0
aI0
aI0
aI0
aI0
aI0
aI0
aI0
aI0
aI0
aI0
aI0
aI0
aI0
aI0
aI0
aI0
aI0
aI0
aI0
a(lp1
(lp2
(lp3
(lp4
(lp5
F0.0
aI72
aI112
aI0
aS'on'
p6
aa(lp7
F0.0
aI67
aI101
aI0
aS'on'
p8
aa(lp9
F0.13028322058744
aI67
aI0
aI0
aS'off'
p10
aa(lp11
F0.01632317604799
aI72
aI0
aI0
aS'off'
p12
aa(lp13
F9.8326512130889
aI58
aI75
aI0
aS'on'
p14
aa(lp15
F0.015830331587495
aI63
aI111
aI0
aS'on'
p16
aa(lp17
F0.11258062111347
aI58
aI0
aI0
aS'off'
p18
aa(lp19
F0.063476605527285
aI63
aI0
aI0
aS'off'
p20
aa(lp21
F2.6828562101209
aI65
aI113
aI0
aS'on'
p22
aa(lp23
F0.00033021281979018
aI60
aI94
aI0
aS'on'
p24
aa(lp25
F0.11126156744376
aI60
aI0
aI0
aS'off'
p26
aa(lp27
F0.064826652665488
aI65
aI0
aI0
aS'off'
p28
aa(lp29
F2.7776958400241
aI67
aI102
aI0
aS'on'
p30
aa(lp31
F0.016493261039159
aI72
aI116
aI0
aS'on'
p32
aa(lp33
F0.12791668972022
aI67
aI0
aI0
aS'off'
p34
aa(lp35
F0.015922651648907
aI72
aI0
aI0
aS'off'
p36
aa(lp37
F10.967083895939
aI63
aI112
aI0
aS'on'
p38
aa(lp39
F0.00035087615106022
aI58
aI42
aI0
aS'on'
p40
aa(lp41
F0.14340532580263
aI58
aI0
aI0
aS'off'
p42
aa(lp43
F0.046615485822713
aI63
aI0
aI0
aS'off'
p44
aa(lp45
F0.76743605417096
aI60
aI91
aI0
aS'on'
p46
aa(lp47
F0.015743670327083
aI65
aI113
aI0
aS'on'
p48
aa(lp49
F0.095705572996849
aI60
aI0
aI0
aS'off'
p50
aa(lp51
F0.048778110302464
aI65
aI0
aI0
aS'off'
p52
aa(lp53
F0.94643275505223
aI0
aI0
aI0
aS'timeAfterLastHit'
p54
aaa(lp55
(lp56
F0.0
aI36
aI99
aI0
aS'on'
p57
aa(lp58
F0.19417125463315
aI36
aI0
aI0
aS'off'
p59
aa(lp60
F0.71900933362258
aI43
aI95
aI0
aS'on'
p61
aa(lp62
F0.54360104382204
aI41
aI108
aI0
aS'on'
p63
aa(lp64
F0.032999386601205
aI43
aI0
aI0
aS'off'
p65
aa(lp66
F0.27025960416177
aI41
aI0
aI0
aS'off'
p67
aa(lp68
F0.7061291626751
aI39
aI99
aI0
aS'on'
p69
aa(lp70
F0.36863070414938
aI39
aI0
aI0
aS'off'
p71
aa(lp72
F0.62315393847894
aI38
aI114
aI0
aS'on'
p73
aa(lp74
F0.27123249887563
aI38
aI0
aI0
aS'off'
p75
aa(lp76
F0.7374769165458
aI36
aI110
aI0
aS'on'
p77
aa(lp78
F0.57530622839113
aI36
aI0
aI0
aS'off'
p79
aa(lp80
F0.92951928926141
aI34
aI115
aI0
aS'on'
p81
aa(lp82
F0.33491383616729
aI34
aI0
aI0
aS'off'
p83
aa(lp84
F0.64101961588312
aI36
aI100
aI0
aS'on'
p85
aa(lp86
F0.27060535651663
aI36
aI0
aI0
aS'off'
p87
aa(lp88
F0.79725646101951
aI38
aI114
aI0
aS'on'
p89
aa(lp90
F0.36720648729761
aI38
aI0
aI0
aS'off'
p91
aa(lp92
F0.61750888189772
aI0
aI0
aI0
aS'timeAfterLastHit'
p93
aaa(lp94
(lp95
F0.028649521139414
aI39
aI103
aI0
aS'on'
p96
aa(lp97
F0.27267697245679
aI39
aI0
aI0
aS'off'
p98
aa(lp99
F0.68719715769066
aI46
aI98
aI0
aS'on'
p100
aa(lp101
F0.20883771154877
aI46
aI0
aI0
aS'off'
p102
aa(lp103
F0.36538716333143
aI44
aI111
aI0
aS'on'
p104
aa(lp105
F0.2877991683954
aI44
aI0
aI0
aS'off'
p106
aa(lp107
F0.59277999341111
aI43
aI107
aI0
aS'on'
p108
aa(lp109
F0.25423068264035
aI43
aI0
aI0
aS'off'
p110
aa(lp111
F0.76700064148463
aI41
aI97
aI0
aS'on'
p112
aa(lp113
F0.24048449828388
aI41
aI0
aI0
aS'off'
p114
aa(lp115
F0.73504642387115
aI39
aI111
aI0
aS'on'
p116
aa(lp117
F0.27139129072566
aI39
aI0
aI0
aS'off'
p118
aa(lp119
F1.2166847210083
aI39
aI103
aI0
aS'on'
p120
aa(lp121
F0.19208449118241
aI39
aI0
aI0
aS'off'
p122
aa(lp123
F0.81778630497865
aI41
aI94
aI0
aS'on'
p124
aa(lp125
F0.17580037338666
aI41
aI0
aI0
aS'off'
p126
aa(lp127
F0.87979048532816
aI43
aI115
aI0
aS'on'
p128
aa(lp129
F0.20611305912007
aI43
aI0
aI0
aS'off'
p130
aa(lp131
F0.80025934001651
aI0
aI0
aI0
aS'timeAfterLastHit'
p132
aaa(lp133
(lp134
F0.030007662009666
aI48
aI118
aI0
aS'on'
p135
aa(lp136
F0.23865301905653
aI48
aI0
aI0
aS'off'
p137
aa(lp138
F1.1961362956417
aI50
aI115
aI0
aS'on'
p139
aa(lp140
F0.27266377164824
aI50
aI0
aI0
aS'off'
p141
aa(lp142
F1.1173780756085
aI51
aI105
aI0
aS'on'
p143
aa(lp144
F0.24087944948405
aI51
aI0
aI0
aS'off'
p145
aa(lp146
F1.30853103237
aI53
aI110
aI0
aS'on'
p147
aa(lp148
F0.2253581935247
aI53
aI0
aI0
aS'off'
p149
aa(lp150
F1.3279005533668
aI55
aI112
aI0
aS'on'
p151
aa(lp152
F0.20829170616616
aI55
aI0
aI0
aS'off'
p153
aa(lp154
F0.71961132168462
aI53
aI96
aI0
aS'on'
p155
aa(lp156
F0.096807534811433
aI53
aI0
aI0
aS'off'
p157
aa(lp158
F0.54510452055456
aI51
aI108
aI0
aS'on'
p159
aa(lp160
F0.17579978029835
aI51
aI0
aI0
aS'off'
p161
aa(lp162
F0.79966738176745
aI50
aI112
aI0
aS'on'
p163
aa(lp164
F0.23960033147023
aI50
aI0
aI0
aS'off'
p165
aa(lp166
F1.1327369689584
aI48
aI113
aI0
aS'on'
p167
aa(lp168
F0.19171351421664
aI48
aI0
aI0
aS'off'
p169
aa(lp170
F0.86224751541931
aI50
aI105
aI0
aS'on'
p171
aa(lp172
F0.22320000498075
aI50
aI0
aI0
aS'off'
p173
aa(lp174
F0.813989660056
aI51
aI112
aI0
aS'on'
p175
aa(lp176
F0.16057223469079
aI51
aI0
aI0
aS'off'
p177
aa(lp178
F0.87314947221512
aI0
aI0
aI0
aS'timeAfterLastHit'
p179
aaaa(lp180
I0
aI0
aI0
aI0
aa(lp181
I0
aI0
aI0
aI0
aa(lp182
(lp183
(lp184
F0.0028073935782231
aI60
aI94
aI3
aS'on'
p185
aa(lp186
F0.2390747570762
aI60
aI0
aI3
aS'off'
p187
aa(lp188
F0.19227669165684
aI66
aI100
aI3
aS'on'
p189
aa(lp190
F0.20829541144121
aI66
aI0
aI3
aS'off'
p191
aa(lp192
F0.2724183705086
aI60
aI100
aI3
aS'on'
p193
aa(lp194
F0.25564500041492
aI60
aI0
aI3
aS'off'
p195
aa(lp196
F0.31990062791465
aI61
aI101
aI3
aS'on'
p197
aa(lp198
F0.15963140650911
aI61
aI0
aI3
aS'off'
p199
aa(lp200
F0.81610208600068
aI60
aI71
aI3
aS'on'
p201
aa(lp202
F0.095918953460568
aI60
aI0
aI3
aS'off'
p203
aa(lp204
F0.35315652536792
aI66
aI104
aI3
aS'on'
p205
aa(lp206
F0.20731177081871
aI66
aI0
aI3
aS'off'
p207
aa(lp208
F0.30254365550627
aI60
aI88
aI3
aS'on'
p209
aa(lp210
F0.17544125819404
aI60
aI0
aI3
aS'off'
p211
aa(lp212
F0.31961407742801
aI61
aI109
aI3
aS'on'
p213
aa(lp214
F0.16113993672479
aI61
aI0
aI3
aS'off'
p215
aa(lp216
F0.84522232415293
aI63
aI87
aI3
aS'on'
p217
aa(lp218
F0.078251306530547
aI63
aI0
aI3
aS'off'
p219
aa(lp220
F0.91378266262745
aI66
aI114
aI3
aS'on'
p221
aa(lp222
F0.17511661245953
aI66
aI0
aI3
aS'off'
p223
aa(lp224
F0.90634917162879
aI0
aI0
aI0
aS'timeAfterLastHit'
p225
aaaI0
aI0
aI0
aaa(lp226
(lp227
(dp228
S'button'
p229
S'50'
p230
sS'playing'
p231
I0
sa(dp232
g229
S'60'
p233
sg231
I1
sa(dp234
g229
S'70'
p235
sg231
I1
sa(dp236
g229
S'80'
p237
sg231
I0
saa(lp238
(dp239
a(dp240
a(dp241
a(dp242
aa(lp243
(dp244
a(dp245
a(dp246
a(dp247
aa(lp248
(dp249
g229
S'19'
p250
sg231
I01
sa(dp251
a(dp252
a(dp253
aaa(lp254
I60
aI60
aI36
aI36
aa(lp255
(lp256
I0
aI2
aI3
aI5
aI7
aI8
aI10
aa(lp257
I0
aI2
aI3
aI5
aI7
aI8
aI10
aa(lp258
I0
aI2
aI3
aI5
aI7
aI8
aI10
aa(lp259
I0
aI1
aI2
aI3
aI4
aI5
aI6
aI7
aI8
aI9
aI10
aI11
aaa(lp260
(lp261
(lp262
I0
aI0
aI0
aI0
aI0
aI0
aI0
aI0
aI0
aI0
aI0
aI0
aa(lp263
I0
aI0
aI0
aI0
aI0
aI0
aI0
aI0
aI0
aI0
aI0
aI0
aa(lp264
I0
aI0
aI0
aI0
aI0
aI0
aI0
aI0
aI0
aI0
aI0
aI0
aa(lp265
I0
aI0
aI0
aI0
aI0
aI0
aI0
aI0
aI0
aI0
aI0
aI0
aaa(lp266
(lp267
I0
aI0
aI0
aI0
aI0
aI0
aI0
aI0
aI0
aI0
aI0
aI0
aa(lp268
I0
aI0
aI0
aI0
aI0
aI0
aI0
aI0
aI0
aI0
aI0
aI0
aa(lp269
I0
aI0
aI0
aI0
aI0
aI0
aI0
aI0
aI0
aI0
aI0
aI0
aa(lp270
I0
aI0
aI0
aI0
aI0
aI0
aI0
aI0
aI0
aI0
aI0
aI0
aaa(lp271
(lp272
I0
aI0
aI0
aI0
aI0
aI0
aI0
aI0
aI0
aI0
aI0
aI0
aa(lp273
I0
aI0
aI0
aI0
aI0
aI0
aI0
aI0
aI0
aI0
aI0
aI0
aa(lp274
I0
aI0
aI0
aI0
aI0
aI0
aI0
aI0
aI0
aI0
aI0
aI0
aa(lp275
I0
aI0
aI0
aI0
aI0
aI0
aI0
aI0
aI0
aI0
aI0
aI0
aaa(lp276
(lp277
I0
aI0
aI0
aI0
aI0
aI0
aI0
aI0
aI0
aI0
aI0
aI0
aa(lp278
I0
aI0
aI0
aI0
aI0
aI0
aI0
aI0
aI0
aI0
aI0
aI0
aa(lp279
I0
aI0
aI0
aI0
aI0
aI0
aI0
aI0
aI0
aI0
aI0
aI0
aa(lp280
I0
aI0
aI0
aI0
aI0
aI0
aI0
aI0
aI0
aI0
aI0
aI0
aaaa(lp281
(lp282
I0
aI0
aI0
aI0
aI0
aI0
aI0
aI0
aI0
aI0
aI0
aI0
aa(lp283
I0
aI0
aI0
aI0
aI0
aI0
aI0
aI0
aI0
aI0
aI0
aI0
aa(lp284
I0
aI0
aI0
aI0
aI0
aI0
aI0
aI0
aI0
aI0
aI0
aI0
aa(lp285
I0
aI0
aI0
aI0
aI0
aI0
aI0
aI0
aI0
aI0
aI0
aI0
aaaa(lp286
(lp287
(lp288
(lp289
(lp290
F0.0
aI48
aI83
aI0
aS'on'
p291
aa(lp292
F0.25488621071213
aI48
aI0
aI0
aS'off'
p293
aa(lp294
F0.24511378928787
aI60
aI90
aI0
aS'on'
p295
aa(lp296
F0.35279054074101
aI60
aI0
aI0
aS'off'
p297
aa(lp298
F0.14720945925899
aI58
aI106
aI0
aS'on'
p299
aa(lp300
F0.25527959664726
aI58
aI0
aI0
aS'off'
p301
aa(lp302
F0.24472040335274
aI65
aI118
aI0
aS'on'
p303
aa(lp304
F0.22364276707606
aI65
aI0
aI0
aS'off'
p305
aa(lp306
F0.77635723292394
aI48
aI86
aI0
aS'on'
p307
aa(lp308
F0.22266994573442
aI48
aI0
aI0
aS'off'
p309
aa(lp310
F0.27733005426558
aI60
aI86
aI0
aS'on'
p311
aa(lp312
F0.35167742335636
aI60
aI0
aI0
aS'off'
p313
aa(lp314
F0.14832257664364
aI58
aI102
aI0
aS'on'
p315
aa(lp316
F0.28790095036129
aI58
aI0
aI0
aS'off'
p317
aa(lp318
F0.21209904963871
aI65
aI119
aI0
aS'on'
p319
aa(lp320
F0.30420658749324
aI65
aI0
aI0
aS'off'
p321
aa(lp322
F0.69579341250676
aI63
aI108
aI0
aS'on'
p323
aa(lp324
F0.25619096911066
aI63
aI0
aI0
aS'off'
p325
aa(lp326
F0.74380903088934
aI0
aI0
aI0
aS'timeAfterLastHit'
p327
aaa(lp328
(lp329
F0.0
aI77
aI111
aI0
aS'on'
p330
aa(lp331
F0.2175208324054
aI77
aI0
aI0
aS'off'
p332
aa(lp333
F2.8786746102842
aI75
aI107
aI0
aS'on'
p334
aa(lp335
F0.17707464274724
aI75
aI0
aI0
aS'off'
p336
aa(lp337
F2.8106464404955
aI74
aI114
aI0
aS'on'
p338
aa(lp339
F0.25577163707487
aI74
aI0
aI0
aS'off'
p340
aa(lp341
F2.7172616540547
aI72
aI116
aI0
aS'on'
p342
aa(lp343
F0.23993374207737
aI72
aI0
aI0
aS'off'
p344
aa(lp345
F1.9688811140549
aI70
aI102
aI0
aS'on'
p346
aa(lp347
F0.17488357752518
aI70
aI0
aI0
aS'off'
p348
aa(lp349
F0.60749614066606
aI72
aI98
aI0
aS'on'
p350
aa(lp351
F0.23881398760273
aI72
aI0
aI0
aS'off'
p352
aa(lp353
F0.65676237823379
aI74
aI99
aI0
aS'on'
p354
aa(lp355
F0.23975293868943
aI74
aI0
aI0
aS'off'
p356
aa(lp357
F0.76740787940253
aI75
aI98
aI0
aS'on'
p358
aa(lp359
F0.24115044209361
aI75
aI0
aI0
aS'off'
p360
aa(lp361
F0.78334076335921
aI74
aI114
aI0
aS'on'
p362
aa(lp363
F0.28914803852888
aI74
aI0
aI0
aS'off'
p364
aa(lp365
F1.4865417341327
aI72
aI114
aI0
aS'on'
p366
aa(lp367
F0.27192343801039
aI72
aI0
aI0
aS'off'
p368
aa(lp369
F6.0479584706197
aI70
aI52
aI0
aS'on'
p370
aa(lp371
F0.32097055682686
aI70
aI0
aI0
aS'off'
p372
aa(lp373
F0.60808498111476
aI0
aI0
aI0
aS'timeAfterLastHit'
p374
aaa(lp375
(lp376
F0.068090561477788
aI80
aI116
aI0
aS'on'
p377
aa(lp378
F0.19174412554105
aI80
aI0
aI0
aS'off'
p379
aa(lp380
F2.874466615566
aI79
aI107
aI0
aS'on'
p381
aa(lp382
F0.12760278378141
aI79
aI0
aI0
aS'off'
p383
aa(lp384
F2.8156210237263
aI77
aI106
aI0
aS'on'
p385
aa(lp386
F0.17613481731314
aI77
aI0
aI0
aS'off'
p387
aa(lp388
F2.6995081682389
aI75
aI97
aI0
aS'on'
p389
aa(lp390
F0.11132331286603
aI75
aI0
aI0
aS'off'
p391
aa(lp392
F2.0416795266254
aI75
aI97
aI0
aS'on'
p393
aa(lp394
F0.19302592773897
aI75
aI0
aI0
aS'off'
p395
aa(lp396
F0.65627667835224
aI77
aI91
aI0
aS'on'
p397
aa(lp398
F0.17689841592505
aI77
aI0
aI0
aS'off'
p399
aa(lp400
F0.80080189925866
aI79
aI58
aI0
aS'on'
p401
aa(lp402
F0.12841559652497
aI79
aI0
aI0
aS'off'
p403
aa(lp404
F0.86274914615205
aI80
aI101
aI0
aS'on'
p405
aa(lp406
F0.19174097055338
aI80
aI0
aI0
aS'off'
p407
aa(lp408
F0.79980299730187
aI79
aI108
aI0
aS'on'
p409
aa(lp410
F0.20846398008325
aI79
aI0
aI0
aS'off'
p411
aa(lp412
F1.5869816802747
aI77
aI114
aI0
aS'on'
p413
aa(lp414
F0.23881975340305
aI77
aI0
aI0
aS'off'
p415
aa(lp416
F6.5069721498837
aI75
aI19
aI0
aS'on'
p417
aa(lp418
F0.33491755978594
aI75
aI0
aI0
aS'off'
p419
aa(lp420
F0.20796230962605
aI0
aI0
aI0
aS'timeAfterLastHit'
p421
aaa(lp422
(lp423
F0.90743313289181
aI51
aI96
aI0
aS'on'
p424
aa(lp425
F0.19229872153778
aI51
aI0
aI0
aS'off'
p426
aa(lp427
F2.4280817721665
aI53
aI97
aI0
aS'on'
p428
aa(lp429
F0.19264515563827
aI53
aI0
aI0
aS'off'
p430
aa(lp431
F3.199183597379
aI51
aI98
aI0
aS'on'
p432
aa(lp433
F0.20754568009943
aI51
aI0
aI0
aS'off'
p434
aa(lp435
F2.3984869377309
aI53
aI71
aI0
aS'on'
p436
aa(lp437
F0.080552930819749
aI53
aI0
aI0
aS'off'
p438
aa(lp439
F0.99155396170522
aI51
aI74
aI0
aS'on'
p440
aa(lp441
F0.12687853996658
aI51
aI0
aI0
aS'off'
p442
aa(lp443
F0.27533957006472
aI0
aI0
aI0
aS'timeAfterLastHit'
p444
aaaa(lp445
I0
aI0
aI0
aI0
aa(lp446
I0
aI0
aI0
aI0
aa(lp447
I0
aI0
aI0
aI0
aaa(lp448
(lp449
(dp450
g229
S'50'
p451
sg231
I1
sa(dp452
g229
S'60'
p453
sg231
I1
sa(dp454
g229
S'70'
p455
sg231
I1
sa(dp456
g229
S'80'
p457
sg231
I1
saa(lp458
(dp459
a(dp460
a(dp461
a(dp462
aa(lp463
(dp464
a(dp465
a(dp466
a(dp467
aa(lp468
(dp469
a(dp470
a(dp471
a(dp472
aaa(lp473
I60
aI60
aI36
aI36
aa(lp474
(lp475
I0
aI2
aI3
aI5
aI7
aI8
aI10
aa(lp476
I0
aI2
aI3
aI5
aI7
aI8
aI10
aa(lp477
I0
aI2
aI3
aI5
aI7
aI8
aI10
aa(lp478
I0
aI1
aI2
aI3
aI4
aI5
aI6
aI7
aI8
aI9
aI10
aI11
aaa(lp479
(lp480
(lp481
I0
aI0
aI0
aI0
aI0
aI0
aI0
aI0
aI0
aI0
aI0
aI0
aa(lp482
I0
aI0
aI0
aI0
aI0
aI0
aI0
aI0
aI0
aI0
aI0
aI0
aa(lp483
I0
aI0
aI0
aI0
aI0
aI0
aI0
aI0
aI0
aI0
aI0
aI0
aa(lp484
I0
aI0
aI0
aI0
aI0
aI0
aI0
aI0
aI0
aI0
aI0
aI0
aaa(lp485
(lp486
I0
aI0
aI0
aI0
aI0
aI0
aI0
aI0
aI0
aI0
aI0
aI0
aa(lp487
I0
aI0
aI0
aI0
aI0
aI0
aI0
aI0
aI0
aI0
aI0
aI0
aa(lp488
I0
aI0
aI0
aI0
aI0
aI0
aI0
aI0
aI0
aI0
aI0
aI0
aa(lp489
I0
aI0
aI0
aI0
aI0
aI0
aI0
aI0
aI0
aI0
aI0
aI0
aaa(lp490
(lp491
I0
aI0
aI0
aI0
aI0
aI0
aI0
aI0
aI0
aI0
aI0
aI0
aa(lp492
I0
aI0
aI0
aI0
aI0
aI0
aI0
aI0
aI0
aI0
aI0
aI0
aa(lp493
I0
aI0
aI0
aI0
aI0
aI0
aI0
aI0
aI0
aI0
aI0
aI0
aa(lp494
I0
aI0
aI0
aI0
aI0
aI0
aI0
aI0
aI0
aI0
aI0
aI0
aaa(lp495
(lp496
I0
aI0
aI0
aI0
aI0
aI0
aI0
aI0
aI0
aI0
aI0
aI0
aa(lp497
I0
aI0
aI0
aI0
aI0
aI0
aI0
aI0
aI0
aI0
aI0
aI0
aa(lp498
I0
aI0
aI0
aI0
aI0
aI0
aI0
aI0
aI0
aI0
aI0
aI0
aa(lp499
I0
aI0
aI0
aI0
aI0
aI0
aI0
aI0
aI0
aI0
aI0
aI0
aaaa(lp500
(lp501
I0
aI0
aI0
aI0
aI0
aI0
aI0
aI0
aI0
aI0
aI0
aI0
aa(lp502
I0
aI0
aI0
aI0
aI0
aI0
aI0
aI0
aI0
aI0
aI0
aI0
aa(lp503
I0
aI0
aI0
aI0
aI0
aI0
aI0
aI0
aI0
aI0
aI0
aI0
aa(lp504
I0
aI0
aI0
aI0
aI0
aI0
aI0
aI0
aI0
aI0
aI0
aI0
aaaaI0
aI0
aI0
aI0
aI0
aI0
aI0
aI0
aI0
aI0
aI0
aI0
aI0
aI0
aI0
aI0
aI0
aI0
aI0
aI0
aI0
aI0
a.