(lp0
(dp1
a(dp2
a(dp3
a(dp4
a(dp5
a(dp6
a(dp7
a(dp8
a(dp9
a(dp10
a(dp11
a(dp12
a(dp13
a(dp14
a(dp15
a(dp16
a(dp17
a(dp18
a(dp19
a(dp20
a(dp21
a(dp22
a(dp23
a(dp24
F50.0
I23
sF59.0
I37
sF53.0
I26
sa(dp25
F60.0
I43
sF68.0
I56
sF63.0
I46
sa(dp26
F58.0
I36
sI53
I26
sF62.0
I45
sa(dp27
F58.0
I36
sI51
I24
sF55.0
I33
sa(dp28
a(dp29
a(dp30
a(dp31
a(dp32
a(dp33
a(dp34
F50.0
I23
sF59.0
I37
sF53.0
I26
sa(dp35
F51.0
I24
sF60.0
I43
sF55.0
I33
sa(dp36
F58.0
I36
sF63.0
I46
sF55.0
I28
sa(dp37
F58.0
I36
sF55.0
I33
sF63.0
I46
sa(dp38
a(dp39
a(dp40
a(dp41
F56.0
I34
sF60.0
I43
sF63.0
I46
sa(dp42
I48
I21
sI51
I24
sF55.0
I33
sa(dp43
I48
I16
sF51.0
I24
sI44
I12
sa(dp44
F59.0
I37
sF53.0
I26
sF62.0
I45
sa(dp45
F48.0
I21
sI43
I11
sF51.0
I24
sa(dp46
F50.0
I23
sF53.0
I26
sI47
I15
sa(dp47
F51.0
I24
sI46
I14
sF55.0
I28
sa(dp48
a(dp49
a(dp50
a(dp51
F56.0
I34
sF60.0
I43
sF53.0
I31
sa(dp52
F56.0
I34
sF60.0
I43
sF63.0
I46
sa(dp53
F67.0
I55
sF70.0
I58
sF63.0
I46
sa(dp54
F58.0
I36
sF67.0
I55
sF63.0
I46
sa(dp55
F60.0
I43
sF68.0
I56
sF63.0
I46
sa(dp56
F58.0
I36
sF67.0
I55
sF63.0
I46
sa(dp57
F65.0
I53
sF58.0
I41
sF62.0
I45
sa(dp58
a(dp59
a(dp60
a(dp61
F67.0
I55
sF60.0
I43
sF63.0
I46
sa(dp62
F58.0
I36
sF62.0
I45
sF55.0
I33
sa(dp63
F56.0
I34
sF60.0
I38
sF63.0
I46
sa(dp64
F60.0
I38
sF68.0
I56
sF63.0
I46
sa(dp65
F67.0
I55
sF70.0
I58
sF63.0
I46
sa(dp66
F56.0
I34
sF67.0
I55
sF63.0
I46
sa(dp67
F65.0
I53
sF58.0
I41
sF62.0
I45
sa(dp68
a(dp69
a(dp70
a(dp71
F67.0
I55
sF60.0
I43
sF63.0
I46
sa(dp72
F56.0
I34
sF60.0
I43
sF63.0
I46
sa(dp73
F63.0
I46
sF60.0
I43
sF55.0
I33
sa(dp74
F58.0
I36
sF60.0
I43
sF63.0
I46
sa(dp75
F60.0
I43
sF68.0
I56
sF63.0
I46
sa(dp76
F67.0
I55
sF60.0
I43
sF63.0
I46
sa(dp77
F65.0
I53
sF60.0
I43
sF63.0
I46
sa(dp78
a(dp79
a(dp80
a(dp81
a(dp82
a(dp83
a(dp84
a(dp85
a(dp86
a(dp87
a(dp88
a(dp89
a(dp90
a(dp91
a(dp92
a(dp93
a(dp94
a(dp95
a(dp96
a(dp97
a(dp98
a(dp99
a(dp100
a.