(lp0
I0
a(lp1
(lp2
(lp3
I0
aI0
aI0
aI0
aa(lp4
I0
aI0
aI0
aI0
aa(lp5
I0
aI0
aI0
aI0
aa(lp6
I0
aI0
aI0
aI0
aaa(lp7
(lp8
(dp9
a(dp10
a(dp11
a(dp12
aa(lp13
(dp14
a(dp15
a(dp16
a(dp17
aa(lp18
(dp19
a(dp20
a(dp21
a(dp22
aa(lp23
(dp24
a(dp25
a(dp26
a(dp27
aaa(lp28
I60
aI60
aI36
aI36
aa(lp29
(lp30
I0
aI2
aI3
aI5
aI7
aI8
aI10
aa(lp31
I0
aI2
aI3
aI5
aI7
aI8
aI10
aa(lp32
I0
aI2
aI3
aI5
aI7
aI8
aI10
aa(lp33
I0
aI1
aI2
aI3
aI4
aI5
aI6
aI7
aI8
aI9
aI10
aI11
aaa(lp34
(lp35
(lp36
I0
aI0
aI0
aI0
aI0
aI0
aI0
aI0
aI0
aI0
aI0
aI0
aa(lp37
I0
aI0
aI0
aI0
aI0
aI0
aI0
aI0
aI0
aI0
aI0
aI0
aa(lp38
I0
aI0
aI0
aI0
aI0
aI0
aI0
aI0
aI0
aI0
aI0
aI0
aa(lp39
I0
aI0
aI0
aI0
aI0
aI0
aI0
aI0
aI0
aI0
aI0
aI0
aaa(lp40
(lp41
I115
aI0
aI127
aI71
aI31
aI93
aI0
aI64
aI0
aI0
aI0
aI0
aa(lp42
I9
aI83
aI127
aI0
aI127
aI86
aI0
aI64
aI0
aI0
aI0
aI0
aa(lp43
I59
aI83
aI127
aI0
aI127
aI74
aI0
aI64
aI0
aI0
aI0
aI0
aa(lp44
I0
aI0
aI0
aI0
aI0
aI0
aI0
aI0
aI0
aI0
aI0
aI0
aaa(lp45
(lp46
I0
aI0
aI0
aI0
aI0
aI0
aI0
aI0
aI0
aI0
aI0
aI0
aa(lp47
I0
aI0
aI0
aI0
aI0
aI0
aI0
aI0
aI0
aI0
aI0
aI0
aa(lp48
I0
aI0
aI0
aI0
aI0
aI0
aI0
aI0
aI0
aI0
aI0
aI0
aa(lp49
I0
aI0
aI0
aI0
aI0
aI0
aI0
aI0
aI0
aI0
aI0
aI0
aaa(lp50
(lp51
I0
aI0
aI0
aI0
aI0
aI0
aI0
aI0
aI0
aI0
aI0
aI0
aa(lp52
I0
aI0
aI0
aI0
aI0
aI0
aI0
aI0
aI0
aI0
aI0
aI0
aa(lp53
I0
aI0
aI0
aI0
aI0
aI0
aI0
aI0
aI0
aI0
aI0
aI0
aa(lp54
I0
aI0
aI0
aI0
aI0
aI0
aI0
aI0
aI0
aI0
aI0
aI0
aaaa(lp55
(lp56
I0
aI0
aI0
aI0
aI0
aI0
aI0
aI0
aI0
aI0
aI0
aI0
aa(lp57
I115
aI0
aI127
aI71
aI127
aI113
aI0
aI64
aI0
aI0
aI0
aI0
aa(lp58
I0
aI0
aI0
aI0
aI0
aI0
aI0
aI0
aI0
aI0
aI0
aI0
aa(lp59
I0
aI0
aI0
aI0
aI0
aI0
aI0
aI0
aI0
aI0
aI0
aI0
aaaaI0
aI0
aI0
aI0
aI0
aI0
aI0
aI0
aI0
aI0
aI0
aI0
aI0
aI0
aI0
aI0
aI0
aI0
aI0
aI0
aI0
aI0
aI0
aI0
aI0
aI0
aI0
aI0
aI0
aI0
aI0
aI0
aI0
aI0
aI0
aI0
aI0
aI0
aI0
aI0
aI0
aI0
aI0
aI0
aI0
aI0
aI0
aI0
aI0
aI0
aI0
aI0
aI0
aI0
aI0
aI0
aI0
aI0
aI0
aI0
aI0
aI0
aI0
aI0
aI0
aI0
aI0
aI0
aI0
aI0
aI0
aI0
aI0
aI0
aI0
aI0
aI0
aI0
aI0
aI0
aI0
aI0
aI0
aI0
aI0
aI0
aI0
aI0
aI0
aI0
aI0
aI0
aI0
aI0
aI0
aI0
aI0
aI0
a.