(lp0
I0
aI0
aI0
aI0
aI0
aI0
aI0
aI0
aI0
aI0
aI0
aI0
aI0
aI0
aI0
aI0
aI0
aI0
aI0
aI0
aI0
aI0
aI0
aI0
aI0
aI0
aI0
aI0
aI0
aI0
aI0
aI0
aI0
aI0
aI0
aI0
aI0
aI0
aI0
aI0
aI0
aI0
aI0
aI0
aI0
aI0
aI0
aI0
aI0
aI0
aI0
aI0
aI0
aI0
aI0
aI0
aI0
aI0
aI0
aI0
aI0
aI0
aI0
aI0
aI0
aI0
aI0
aI0
aI0
aI0
a(lp1
(lp2
(lp3
(lp4
(lp5
F0.053183723329312
aI48
aI108
aI0
aS'on'
p6
aa(lp7
F0.5362975179105
aI48
aI0
aI0
aS'off'
p8
aa(lp9
F0.35338011926251
aI48
aI99
aI0
aS'on'
p10
aa(lp11
F0.64984271880803
aI48
aI0
aI0
aS'off'
p12
aa(lp13
F0.84691132606622
aI48
aI110
aI0
aS'on'
p14
aa(lp15
F0.55073780332259
aI48
aI0
aI0
aS'off'
p16
aa(lp17
F0.42281785347586
aI48
aI114
aI0
aS'on'
p18
aa(lp19
F0.57946574565904
aI48
aI0
aI0
aS'off'
p20
aa(lp21
F0.46539495106936
aI56
aI114
aI0
aS'on'
p22
aa(lp23
F0.24062327648699
aI56
aI0
aI0
aS'off'
p24
aa(lp25
F0.25504001555782
aI56
aI109
aI0
aS'on'
p26
aa(lp27
F0.21140128234947
aI56
aI0
aI0
aS'off'
p28
aa(lp29
F0.24147150396129
aI56
aI112
aI0
aS'on'
p30
aa(lp31
F0.18260146113334
aI56
aI0
aI0
aS'off'
p32
aa(lp33
F0.34041470683133
aI56
aI113
aI0
aS'on'
p34
aa(lp35
F0.19751402669499
aI56
aI0
aI0
aS'off'
p36
aa(lp37
F0.33820819548146
aI55
aI110
aI0
aS'on'
p38
aa(lp39
F0.21044184385391
aI55
aI0
aI0
aS'off'
p40
aa(lp41
F0.25540695438849
aI55
aI99
aI0
aS'on'
p42
aa(lp43
F0.20977046110784
aI55
aI0
aI0
aS'off'
p44
aa(lp45
F0.28192994666915
aI55
aI111
aI0
aS'on'
p46
aa(lp47
F0.2128024639469
aI55
aI0
aI0
aS'off'
p48
aa(lp49
F0.2967854845383
aI48
aI116
aI0
aS'on'
p50
aa(lp51
F0.56309745320959
aI48
aI0
aI0
aS'off'
p52
aa(lp53
F0.49624176168709
aI48
aI110
aI0
aS'on'
p54
aa(lp55
F0.64962631773778
aI48
aI0
aI0
aS'off'
p56
aa(lp57
F0.93081003416683
aI48
aI116
aI0
aS'on'
p58
aa(lp59
F0.43751539557707
aI48
aI0
aI0
aS'off'
p60
aa(lp61
F0.50814997657108
aI48
aI113
aI0
aS'on'
p62
aa(lp63
F0.52185102514522
aI48
aI0
aI0
aS'off'
p64
aa(lp65
F0.39462672020363
aI51
aI110
aI0
aS'on'
p66
aa(lp67
F0.55072130710596
aI51
aI0
aI0
aS'off'
p68
aa(lp69
F0.395909357032
aI51
aI99
aI0
aS'on'
p70
aa(lp71
F0.36854205131294
aI51
aI0
aI0
aS'off'
p72
aa(lp73
F0.11318564444173
aI50
aI114
aI0
aS'on'
p74
aa(lp75
F0.64968397210578
aI50
aI0
aI0
aS'off'
p76
aa(lp77
F0.32439824000994
aI50
aI110
aI0
aS'on'
p78
aa(lp79
F0.57841826431923
aI50
aI0
aI0
aS'off'
p80
aa(lp81
F0.45001779567247
aI48
aI110
aI0
aS'on'
p82
aa(lp83
F0.5768281636374
aI48
aI0
aI0
aS'off'
p84
aa(lp85
F0.46666937085229
aI48
aI114
aI0
aS'on'
p86
aa(lp87
F0.64804747835024
aI48
aI0
aI0
aS'off'
p88
aa(lp89
F0.97468329078401
aI48
aI117
aI0
aS'on'
p90
aa(lp91
F0.50834144018063
aI48
aI0
aI0
aS'off'
p92
aa(lp93
F0.43680163373665
aI48
aI114
aI0
aS'on'
p94
aa(lp95
F0.55039750640753
aI48
aI0
aI0
aS'off'
p96
aa(lp97
F0.39452462302506
aI56
aI102
aI0
aS'on'
p98
aa(lp99
F0.21314002995223
aI56
aI0
aI0
aS'off'
p100
aa(lp101
F0.26688354215366
aI56
aI107
aI0
aS'on'
p102
aa(lp103
F0.1681977445387
aI56
aI0
aI0
aS'off'
p104
aa(lp105
F0.31276476666972
aI56
aI106
aI0
aS'on'
p106
aa(lp107
F0.18248623343243
aI56
aI0
aI0
aS'off'
p108
aa(lp109
F0.29811841496939
aI56
aI103
aI0
aS'on'
p110
aa(lp111
F0.16839515348784
aI56
aI0
aI0
aS'off'
p112
aa(lp113
F0.36779422466407
aI55
aI111
aI0
aS'on'
p114
aa(lp115
F0.19708061408346
aI55
aI0
aI0
aS'off'
p116
aa(lp117
F0.28250835958534
aI55
aI101
aI0
aS'on'
p118
aa(lp119
F0.1830636036857
aI55
aI0
aI0
aS'off'
p120
aa(lp121
F0.32456403683864
aI55
aI112
aI0
aS'on'
p122
aa(lp123
F0.16895925005338
aI55
aI0
aI0
aS'off'
p124
aa(lp125
F0.31128346213609
aI53
aI95
aI0
aS'on'
p126
aa(lp127
F0.52223356609557
aI55
aI26
aI0
aS'on'
p128
aa(lp129
F0.45213654779946
aI55
aI0
aI0
aS'off'
p130
aa(lp131
F2.8937411106508
aI53
aI0
aI0
aS'off'
p132
aa(lp133
F0.22639927599448
aI53
aI113
aI0
aS'on'
p134
aa(lp135
F0.069727802351736
aI55
aI40
aI0
aS'on'
p136
aa(lp137
F3.5729866823058
aI53
aI0
aI0
aS'off'
p138
aa(lp139
F0.028171392917102
aI55
aI0
aI0
aS'off'
p140
aa(lp141
F0.36783198045759
aI0
aI0
aI0
aS'timeAfterLastHit'
p142
aaa(lp143
(lp144
F0.0
aI60
aI100
aI0
aS'on'
p145
aa(lp146
F0.60749129607575
aI60
aI0
aI0
aS'off'
p147
aa(lp148
F0.33862662454794
aI60
aI116
aI0
aS'on'
p149
aa(lp150
F0.69317859910825
aI60
aI0
aI0
aS'off'
p151
aa(lp152
F0.74822193045657
aI60
aI110
aI0
aS'on'
p153
aa(lp154
F0.62137014502241
aI60
aI0
aI0
aS'off'
p155
aa(lp156
F0.35312716288263
aI60
aI114
aI0
aS'on'
p157
aa(lp158
F0.63480681654892
aI60
aI0
aI0
aS'off'
p159
aa(lp160
F0.42163043927849
aI63
aI116
aI0
aS'on'
p161
aa(lp162
F0.71853900390124
aI63
aI0
aI0
aS'off'
p163
aa(lp164
F0.28260521914126
aI63
aI110
aI0
aS'on'
p165
aa(lp166
F0.28258877964981
aI63
aI0
aI0
aS'off'
p167
aa(lp168
F0.240333130012
aI62
aI114
aI0
aS'on'
p169
aa(lp170
F0.74735107774904
aI62
aI0
aI0
aS'off'
p171
aa(lp172
F0.25433292837715
aI62
aI115
aI0
aS'on'
p173
aa(lp174
F0.59264310758772
aI62
aI0
aI0
aS'off'
p175
aa(lp176
F0.46315373966081
aI0
aI0
aI0
aS'timeAfterLastHit'
p177
aaa(lp178
(lp179
F0.0
aI48
aI43
aI0
aS'on'
p180
aa(lp181
F1.0143176112128
aI72
aI119
aI0
aS'on'
p182
aa(lp183
F1.1169668864932
aI72
aI0
aI0
aS'off'
p184
aa(lp185
F0.28963892917136
aI70
aI123
aI0
aS'on'
p186
aa(lp187
F1.2492915963289
aI70
aI0
aI0
aS'off'
p188
aa(lp189
F0.32026413783296
aI68
aI113
aI0
aS'on'
p190
aa(lp191
F1.2043660648374
aI68
aI0
aI0
aS'off'
p192
aa(lp193
F0.15959370369046
aI63
aI77
aI0
aS'on'
p194
aa(lp195
F1.3066358359447
aI63
aI0
aI0
aS'off'
p196
aa(lp197
F0.33240677687581
aI65
aI116
aI0
aS'on'
p198
aa(lp199
F1.2798761160152
aI65
aI0
aI0
aS'off'
p200
aa(lp201
F0.73924510430697
aI72
aI115
aI0
aS'on'
p202
aa(lp203
F0.88390907818621
aI72
aI0
aI0
aS'off'
p204
aa(lp205
F0.40909057667068
aI70
aI116
aI0
aS'on'
p206
aa(lp207
F1.0283839544568
aI70
aI0
aI0
aS'off'
p208
aa(lp209
F0.27640697425613
aI68
aI105
aI0
aS'on'
p210
aa(lp211
F1.2626510257946
aI68
aI0
aI0
aS'off'
p212
aa(lp213
F0.27446985162896
aI63
aI93
aI0
aS'on'
p214
aa(lp215
F1.2624982194789
aI63
aI0
aI0
aS'off'
p216
aa(lp217
F0.30599973727658
aI65
aI111
aI0
aS'on'
p218
aa(lp219
F1.3928743144443
aI65
aI0
aI0
aS'off'
p220
aa(lp221
F0.7822756282726
aI72
aI117
aI0
aS'on'
p222
aa(lp223
F1.2764820866819
aI72
aI0
aI0
aS'off'
p224
aa(lp225
F0.3185852965571
aI70
aI120
aI0
aS'on'
p226
aa(lp227
F1.1759961824064
aI70
aI0
aI0
aS'off'
p228
aa(lp229
F0.34734584864327
aI68
aI121
aI0
aS'on'
p230
aa(lp231
F1.116449261131
aI68
aI0
aI0
aS'off'
p232
aa(lp233
F0.31946200594302
aI63
aI114
aI0
aS'on'
p234
aa(lp235
F0.94278916084204
aI63
aI0
aI0
aS'off'
p236
aa(lp237
F0.56458554239043
aI65
aI117
aI0
aS'on'
p238
aa(lp239
F0.6381372704991
aI65
aI0
aI0
aS'off'
p240
aa(lp241
F0.29140178978196
aI60
aI120
aI0
aS'on'
p242
aa(lp243
F4.0358396047404
aI63
aI61
aI0
aS'on'
p244
aa(lp245
F0.23212569088673
aI60
aI0
aI0
aS'off'
p246
aa(lp247
F3.8396381363209
aI63
aI0
aI0
aS'off'
p248
aa(lp249
F0.0
aI48
aI0
aI0
aS'off'
p250
aa(lp251
F0.010000000000218
aI0
aI0
aI0
aS'timeAfterLastHit'
p252
aaaI0
aa(lp253
(lp254
(lp255
F0.10008353979629
aI75
aI82
aI1
aS'on'
p256
aa(lp257
F0.029108329761584
aI67
aI105
aI1
aS'on'
p258
aa(lp259
F0.014552858062416
aI72
aI98
aI1
aS'on'
p260
aa(lp261
F7.6285388524193
aI72
aI0
aI1
aS'off'
p262
aa(lp263
F0.029621698943629
aI67
aI0
aI1
aS'off'
p264
aa(lp265
F0.028864134869764
aI75
aI0
aI1
aS'off'
p266
aa(lp267
F0.18732171857664
aI67
aI65
aI1
aS'on'
p268
aa(lp269
F0.013992268581205
aI62
aI64
aI1
aS'on'
p270
aa(lp271
F0.029635627253811
aI70
aI99
aI1
aS'on'
p272
aa(lp273
F7.6561572970122
aI67
aI0
aI1
aS'off'
p274
aa(lp275
F0.014609278812713
aI62
aI0
aI1
aS'off'
p276
aa(lp277
F0.17433383369826
aI70
aI0
aI1
aS'off'
p278
aa(lp279
F0.24692238592252
aI63
aI80
aI1
aS'on'
p280
aa(lp281
F0.013445496429085
aI70
aI85
aI1
aS'on'
p282
aa(lp283
F0.029478265103535
aI67
aI88
aI1
aS'on'
p284
aa(lp285
F7.5482823330703
aI70
aI0
aI1
aS'off'
p286
aa(lp287
F0.15985144122897
aI67
aI0
aI1
aS'off'
p288
aa(lp289
F0.013727974750509
aI63
aI0
aI1
aS'off'
p290
aa(lp291
F0.17292968809397
aI63
aI82
aI1
aS'on'
p292
aa(lp293
F0.11692716362722
aI60
aI27
aI1
aS'on'
p294
aa(lp295
F0.11802800781061
aI67
aI67
aI1
aS'on'
p296
aa(lp297
F3.3786567668212
aI67
aI0
aI1
aS'off'
p298
aa(lp299
F0.086967664337863
aI63
aI0
aI1
aS'off'
p300
aa(lp301
F0.072299789516364
aI60
aI0
aI1
aS'off'
p302
aa(lp303
F0.14415147036107
aI62
aI74
aI1
aS'on'
p304
aa(lp305
F0.04359898488201
aI65
aI110
aI1
aS'on'
p306
aa(lp307
F0.01413660970502
aI70
aI99
aI1
aS'on'
p308
aa(lp309
F3.724932871366
aI70
aI0
aI1
aS'off'
p310
aa(lp311
F0.07320778765461
aI65
aI0
aI1
aS'off'
p312
aa(lp313
F0.12563586153101
aI62
aI0
aI1
aS'off'
p314
aa(lp315
F0.010000000000218
aI0
aI0
aI0
aS'timeAfterLastHit'
p316
aaaI0
aI0
aI0
aa(lp317
(lp318
(lp319
F0.0033275701922548
aI24
aI110
aI2
aS'on'
p320
aa(lp321
F7.97291694181
aI19
aI81
aI2
aS'on'
p322
aa(lp323
F0.057929481092629
aI24
aI0
aI2
aS'off'
p324
aa(lp325
F7.7895513125667
aI19
aI0
aI2
aS'off'
p326
aa(lp327
F0.058200772373652
aI22
aI101
aI2
aS'on'
p328
aa(lp329
F7.9044408172541
aI22
aI0
aI2
aS'off'
p330
aa(lp331
F0.11726173715545
aI14
aI99
aI2
aS'on'
p332
aa(lp333
F4.0873322730464
aI17
aI106
aI2
aS'on'
p334
aa(lp335
F0.028876836821837
aI14
aI0
aI2
aS'off'
p336
aa(lp337
F3.8327963846833
aI17
aI0
aI2
aS'off'
p338
aa(lp339
F0.14736587300365
aI0
aI0
aI0
aS'timeAfterLastHit'
p340
aaa(lp341
(lp342
F0.046688531688233
aI24
aI102
aI2
aS'on'
p343
aa(lp344
F0.23986081474959
aI24
aI0
aI2
aS'off'
p345
aa(lp346
F0.25420898390985
aI27
aI87
aI2
aS'on'
p347
aa(lp348
F0.19854659472003
aI27
aI0
aI2
aS'off'
p349
aa(lp350
F0.29711121659602
aI31
aI104
aI2
aS'on'
p351
aa(lp352
F0.19780595325756
aI31
aI0
aI2
aS'off'
p353
aa(lp354
F0.27087118560303
aI24
aI106
aI2
aS'on'
p355
aa(lp356
F0.18327442948521
aI24
aI0
aI2
aS'off'
p357
aa(lp358
F0.32435085019279
aI27
aI101
aI2
aS'on'
p359
aa(lp360
F0.18369011953473
aI27
aI0
aI2
aS'off'
p361
aa(lp362
F0.35362743014048
aI31
aI108
aI2
aS'on'
p363
aa(lp364
F0.16801648875662
aI31
aI0
aI2
aS'off'
p365
aa(lp366
F0.28194740136587
aI0
aI0
aI0
aS'timeAfterLastHit'
p367
aaaI0
aI0
aa(lp368
(lp369
(lp370
F0.0
aI36
aI101
aI3
aS'on'
p371
aa(lp372
F0.11719547189477
aI36
aI0
aI3
aS'off'
p373
aa(lp374
F0.38280452810523
aI36
aI114
aI3
aS'on'
p375
aa(lp376
F0.14616108705559
aI36
aI0
aI3
aS'off'
p377
aa(lp378
F0.35383891294441
aI38
aI98
aI3
aS'on'
p379
aa(lp380
F0.10691308988498
aI38
aI0
aI3
aS'off'
p381
aa(lp382
F0.39308691011502
aI41
aI101
aI3
aS'on'
p383
aa(lp384
F0.10793080732765
aI41
aI0
aI3
aS'off'
p385
aa(lp386
F0.14206919267235
aI38
aI112
aI3
aS'on'
p387
aa(lp388
F0.092433795768557
aI38
aI0
aI3
aS'off'
p389
aa(lp390
F0.15756620423144
aI41
aI105
aI3
aS'on'
p391
aa(lp392
F0.09973495437589
aI41
aI0
aI3
aS'off'
p393
aa(lp394
F0.15026504562411
aI38
aI93
aI3
aS'on'
p395
aa(lp396
F0.092441555438199
aI38
aI0
aI3
aS'off'
p397
aa(lp398
F0.1575584445618
aI41
aI112
aI3
aS'on'
p399
aa(lp400
F0.13001265855928
aI41
aI0
aI3
aS'off'
p401
aa(lp402
F0.36998734144072
aI38
aI115
aI3
aS'on'
p403
aa(lp404
F0.15390877057325
aI38
aI0
aI3
aS'off'
p405
aa(lp406
F0.34609122942675
aI36
aI111
aI3
aS'on'
p407
aa(lp408
F0.11572739146141
aI36
aI0
aI3
aS'off'
p409
aa(lp410
F0.13427260853859
aI38
aI112
aI3
aS'on'
p411
aa(lp412
F0.12335005905788
aI38
aI0
aI3
aS'off'
p413
aa(lp414
F0.12664994094212
aI0
aI0
aI0
aS'timeAfterLastHit'
p415
aaaI0
aI0
aI0
aaa(lp416
(lp417
(dp418
S'button'
p419
S'50'
p420
sS'playing'
p421
I0
sa(dp422
g419
S'60'
p423
sg421
I0
sa(dp424
g419
S'70'
p425
sg421
I0
sa(dp426
aa(lp427
(dp428
g419
S'59'
p429
sg421
I0
sa(dp430
a(dp431
a(dp432
aa(lp433
(dp434
g419
S'10'
p435
sg421
I0
sa(dp436
g419
S'20'
p437
sg421
I0
sa(dp438
a(dp439
aa(lp440
(dp441
g419
S'19'
p442
sg421
I0
sa(dp443
a(dp444
a(dp445
aaa(lp446
I60
aI60
aI36
aI36
aa(lp447
(lp448
I0
aI2
aI3
aI5
aI7
aI8
aI10
aa(lp449
I0
aI2
aI3
aI5
aI7
aI8
aI10
aa(lp450
I0
aI2
aI3
aI5
aI7
aI8
aI10
aa(lp451
I0
aI1
aI2
aI3
aI4
aI5
aI6
aI7
aI8
aI9
aI10
aI11
aaa(lp452
(lp453
(lp454
I0
aI0
aI0
aI0
aI0
aI0
aI0
aI0
aI0
aI0
aI0
aI0
aa(lp455
I0
aI0
aI0
aI0
aI0
aI0
aI0
aI0
aI0
aI0
aI0
aI0
aa(lp456
I0
aI0
aI0
aI0
aI0
aI0
aI0
aI0
aI0
aI0
aI0
aI0
aa(lp457
I0
aI0
aI0
aI0
aI0
aI0
aI0
aI0
aI0
aI0
aI0
aI0
aaa(lp458
(lp459
I0
aI0
aI0
aI0
aI0
aI0
aI0
aI0
aI0
aI0
aI0
aI0
aa(lp460
I0
aI0
aI0
aI0
aI0
aI0
aI0
aI0
aI0
aI0
aI0
aI0
aa(lp461
I0
aI0
aI0
aI0
aI0
aI0
aI0
aI0
aI0
aI0
aI0
aI0
aa(lp462
I0
aI0
aI0
aI0
aI0
aI0
aI0
aI0
aI0
aI0
aI0
aI0
aaa(lp463
(lp464
I0
aI0
aI0
aI0
aI0
aI0
aI0
aI0
aI0
aI0
aI0
aI0
aa(lp465
I0
aI0
aI0
aI0
aI0
aI0
aI0
aI0
aI0
aI0
aI0
aI0
aa(lp466
I0
aI0
aI0
aI0
aI0
aI0
aI0
aI0
aI0
aI0
aI0
aI0
aa(lp467
I0
aI0
aI0
aI0
aI0
aI0
aI0
aI0
aI0
aI0
aI0
aI0
aaa(lp468
(lp469
I0
aI0
aI0
aI0
aI0
aI0
aI0
aI0
aI0
aI0
aI0
aI0
aa(lp470
I0
aI0
aI0
aI0
aI0
aI0
aI0
aI0
aI0
aI0
aI0
aI0
aa(lp471
I0
aI0
aI0
aI0
aI0
aI0
aI0
aI0
aI0
aI0
aI0
aI0
aa(lp472
I0
aI0
aI0
aI0
aI0
aI0
aI0
aI0
aI0
aI0
aI0
aI0
aaaa(lp473
(lp474
I0
aI0
aI0
aI0
aI0
aI0
aI0
aI0
aI0
aI0
aI0
aI0
aa(lp475
I0
aI0
aI0
aI0
aI0
aI0
aI0
aI0
aI0
aI0
aI0
aI0
aa(lp476
I0
aI0
aI0
aI0
aI0
aI0
aI0
aI0
aI0
aI0
aI0
aI0
aa(lp477
I0
aI0
aI0
aI0
aI0
aI0
aI0
aI0
aI0
aI0
aI0
aI0
aaaaI0
aI0
aI0
aI0
aI0
aI0
aI0
aI0
aI0
aI0
aI0
aI0
aI0
aI0
aI0
aI0
aI0
aI0
aI0
aI0
aI0
aI0
aI0
aI0
aI0
aI0
aI0
aI0
aI0
a.