(lp0
I0
aI0
aI0
aI0
aI0
aI0
aI0
aI0
aI0
aI0
aI0
aI0
aI0
aI0
aI0
aI0
aI0
aI0
aI0
aI0
aI0
aI0
aI0
aI0
aI0
aI0
aI0
aI0
aI0
aI0
aI0
aI0
aI0
aI0
aI0
aI0
aI0
aI0
aI0
aI0
aI0
aI0
aI0
aI0
aI0
aI0
aI0
aI0
aI0
aI0
aI0
aI0
aI0
aI0
aI0
aI0
aI0
aI0
aI0
aI0
aI0
aI0
aI0
aI0
aI0
aI0
aI0
aI0
aI0
aI0
a(lp1
(lp2
(lp3
(lp4
(lp5
F0.053183723329312
aI48
aI108
aI0
aS'on'
p6
aa(lp7
F0.5362975179105
aI48
aI0
aI0
aS'off'
p8
aa(lp9
F0.35338011926251
aI48
aI99
aI0
aS'on'
p10
aa(lp11
F0.64984271880803
aI48
aI0
aI0
aS'off'
p12
aa(lp13
F0.84691132606622
aI48
aI110
aI0
aS'on'
p14
aa(lp15
F0.55073780332259
aI48
aI0
aI0
aS'off'
p16
aa(lp17
F0.42281785347586
aI48
aI114
aI0
aS'on'
p18
aa(lp19
F0.57946574565904
aI48
aI0
aI0
aS'off'
p20
aa(lp21
F0.46539495106936
aI56
aI114
aI0
aS'on'
p22
aa(lp23
F0.24062327648699
aI56
aI0
aI0
aS'off'
p24
aa(lp25
F0.25504001555782
aI56
aI109
aI0
aS'on'
p26
aa(lp27
F0.21140128234947
aI56
aI0
aI0
aS'off'
p28
aa(lp29
F0.24147150396129
aI56
aI112
aI0
aS'on'
p30
aa(lp31
F0.18260146113334
aI56
aI0
aI0
aS'off'
p32
aa(lp33
F0.34041470683133
aI56
aI113
aI0
aS'on'
p34
aa(lp35
F0.19751402669499
aI56
aI0
aI0
aS'off'
p36
aa(lp37
F0.33820819548146
aI55
aI110
aI0
aS'on'
p38
aa(lp39
F0.21044184385391
aI55
aI0
aI0
aS'off'
p40
aa(lp41
F0.25540695438849
aI55
aI99
aI0
aS'on'
p42
aa(lp43
F0.20977046110784
aI55
aI0
aI0
aS'off'
p44
aa(lp45
F0.28192994666915
aI55
aI111
aI0
aS'on'
p46
aa(lp47
F0.2128024639469
aI55
aI0
aI0
aS'off'
p48
aa(lp49
F0.2967854845383
aI48
aI116
aI0
aS'on'
p50
aa(lp51
F0.56309745320959
aI48
aI0
aI0
aS'off'
p52
aa(lp53
F0.49624176168709
aI48
aI110
aI0
aS'on'
p54
aa(lp55
F0.64962631773778
aI48
aI0
aI0
aS'off'
p56
aa(lp57
F0.93081003416683
aI48
aI116
aI0
aS'on'
p58
aa(lp59
F0.43751539557707
aI48
aI0
aI0
aS'off'
p60
aa(lp61
F0.50814997657108
aI48
aI113
aI0
aS'on'
p62
aa(lp63
F0.52185102514522
aI48
aI0
aI0
aS'off'
p64
aa(lp65
F0.39462672020363
aI51
aI110
aI0
aS'on'
p66
aa(lp67
F0.55072130710596
aI51
aI0
aI0
aS'off'
p68
aa(lp69
F0.395909357032
aI51
aI99
aI0
aS'on'
p70
aa(lp71
F0.36854205131294
aI51
aI0
aI0
aS'off'
p72
aa(lp73
F0.11318564444173
aI50
aI114
aI0
aS'on'
p74
aa(lp75
F0.64968397210578
aI50
aI0
aI0
aS'off'
p76
aa(lp77
F0.32439824000994
aI50
aI110
aI0
aS'on'
p78
aa(lp79
F0.57841826431923
aI50
aI0
aI0
aS'off'
p80
aa(lp81
F0.45001779567247
aI48
aI110
aI0
aS'on'
p82
aa(lp83
F0.5768281636374
aI48
aI0
aI0
aS'off'
p84
aa(lp85
F0.46666937085229
aI48
aI114
aI0
aS'on'
p86
aa(lp87
F0.64804747835024
aI48
aI0
aI0
aS'off'
p88
aa(lp89
F0.97468329078401
aI48
aI117
aI0
aS'on'
p90
aa(lp91
F0.50834144018063
aI48
aI0
aI0
aS'off'
p92
aa(lp93
F0.43680163373665
aI48
aI114
aI0
aS'on'
p94
aa(lp95
F0.55039750640753
aI48
aI0
aI0
aS'off'
p96
aa(lp97
F0.39452462302506
aI56
aI102
aI0
aS'on'
p98
aa(lp99
F0.21314002995223
aI56
aI0
aI0
aS'off'
p100
aa(lp101
F0.26688354215366
aI56
aI107
aI0
aS'on'
p102
aa(lp103
F0.1681977445387
aI56
aI0
aI0
aS'off'
p104
aa(lp105
F0.31276476666972
aI56
aI106
aI0
aS'on'
p106
aa(lp107
F0.18248623343243
aI56
aI0
aI0
aS'off'
p108
aa(lp109
F0.29811841496939
aI56
aI103
aI0
aS'on'
p110
aa(lp111
F0.16839515348784
aI56
aI0
aI0
aS'off'
p112
aa(lp113
F0.36779422466407
aI55
aI111
aI0
aS'on'
p114
aa(lp115
F0.19708061408346
aI55
aI0
aI0
aS'off'
p116
aa(lp117
F0.28250835958534
aI55
aI101
aI0
aS'on'
p118
aa(lp119
F0.1830636036857
aI55
aI0
aI0
aS'off'
p120
aa(lp121
F0.32456403683864
aI55
aI112
aI0
aS'on'
p122
aa(lp123
F0.16895925005338
aI55
aI0
aI0
aS'off'
p124
aa(lp125
F0.31128346213609
aI53
aI95
aI0
aS'on'
p126
aa(lp127
F0.52223356609557
aI55
aI26
aI0
aS'on'
p128
aa(lp129
F0.45213654779946
aI55
aI0
aI0
aS'off'
p130
aa(lp131
F2.8937411106508
aI53
aI0
aI0
aS'off'
p132
aa(lp133
F0.22639927599448
aI53
aI113
aI0
aS'on'
p134
aa(lp135
F0.069727802351736
aI55
aI40
aI0
aS'on'
p136
aa(lp137
F3.5729866823058
aI53
aI0
aI0
aS'off'
p138
aa(lp139
F0.028171392917102
aI55
aI0
aI0
aS'off'
p140
aa(lp141
F0.36783198045759
aI0
aI0
aI0
aS'timeAfterLastHit'
p142
aaa(lp143
(lp144
F0.0
aI60
aI100
aI0
aS'on'
p145
aa(lp146
F0.60749129607575
aI60
aI0
aI0
aS'off'
p147
aa(lp148
F0.33862662454794
aI60
aI116
aI0
aS'on'
p149
aa(lp150
F0.69317859910825
aI60
aI0
aI0
aS'off'
p151
aa(lp152
F0.74822193045657
aI60
aI110
aI0
aS'on'
p153
aa(lp154
F0.62137014502241
aI60
aI0
aI0
aS'off'
p155
aa(lp156
F0.35312716288263
aI60
aI114
aI0
aS'on'
p157
aa(lp158
F0.63480681654892
aI60
aI0
aI0
aS'off'
p159
aa(lp160
F0.42163043927849
aI63
aI116
aI0
aS'on'
p161
aa(lp162
F0.71853900390124
aI63
aI0
aI0
aS'off'
p163
aa(lp164
F0.28260521914126
aI63
aI110
aI0
aS'on'
p165
aa(lp166
F0.28258877964981
aI63
aI0
aI0
aS'off'
p167
aa(lp168
F0.240333130012
aI62
aI114
aI0
aS'on'
p169
aa(lp170
F0.74735107774904
aI62
aI0
aI0
aS'off'
p171
aa(lp172
F0.25433292837715
aI62
aI115
aI0
aS'on'
p173
aa(lp174
F0.59264310758772
aI62
aI0
aI0
aS'off'
p175
aa(lp176
F0.46315373966081
aI0
aI0
aI0
aS'timeAfterLastHit'
p177
aaaI0
aI0
aa(lp178
I0
aI0
aI0
aI0
aa(lp179
(lp180
(lp181
F0.0
aI24
aI98
aI2
aS'on'
p182
aa(lp183
F7.9257477844931
aI22
aI94
aI2
aS'on'
p184
aa(lp185
F0.014127802731309
aI24
aI0
aI2
aS'off'
p186
aa(lp187
F6.0136882238821
aI29
aI94
aI2
aS'on'
p188
aa(lp189
F0.099510883923358
aI22
aI0
aI2
aS'off'
p190
aa(lp191
F0.81838064681324
aI31
aI90
aI2
aS'on'
p192
aa(lp193
F0.098911555634913
aI29
aI0
aI2
aS'off'
p194
aa(lp195
F0.87443303766122
aI31
aI0
aI2
aS'off'
p196
aa(lp197
F0.042395031448905
aI31
aI34
aI2
aS'on'
p198
aa(lp199
F0.027391808285756
aI32
aI79
aI2
aS'on'
p200
aa(lp201
F0.07108181293188
aI31
aI0
aI2
aS'off'
p202
aa(lp203
F8.001961223561
aI34
aI62
aI2
aS'on'
p204
aa(lp205
F0.12649638612129
aI32
aI0
aI2
aS'off'
p206
aa(lp207
F5.8605699519212
aI39
aI87
aI2
aS'on'
p208
aa(lp209
F0.043043783560279
aI34
aI0
aI2
aS'off'
p210
aa(lp211
F1.0159378332482
aI38
aI111
aI2
aS'on'
p212
aa(lp213
F0.11250992357054
aI39
aI0
aI2
aS'off'
p214
aa(lp215
F0.6198862716501
aI38
aI0
aI2
aS'off'
p216
aa(lp217
F0.23392603856155
aI0
aI0
aI0
aS'timeAfterLastHit'
p218
aaa(lp219
(lp220
F0.046688531688233
aI24
aI102
aI2
aS'on'
p221
aa(lp222
F0.23986081474959
aI24
aI0
aI2
aS'off'
p223
aa(lp224
F0.25420898390985
aI27
aI87
aI2
aS'on'
p225
aa(lp226
F0.19854659472003
aI27
aI0
aI2
aS'off'
p227
aa(lp228
F0.29711121659602
aI31
aI104
aI2
aS'on'
p229
aa(lp230
F0.19780595325756
aI31
aI0
aI2
aS'off'
p231
aa(lp232
F0.27087118560303
aI24
aI106
aI2
aS'on'
p233
aa(lp234
F0.18327442948521
aI24
aI0
aI2
aS'off'
p235
aa(lp236
F0.32435085019279
aI27
aI101
aI2
aS'on'
p237
aa(lp238
F0.18369011953473
aI27
aI0
aI2
aS'off'
p239
aa(lp240
F0.35362743014048
aI31
aI108
aI2
aS'on'
p241
aa(lp242
F0.16801648875662
aI31
aI0
aI2
aS'off'
p243
aa(lp244
F0.28194740136587
aI0
aI0
aI0
aS'timeAfterLastHit'
p245
aaaI0
aI0
aa(lp246
(lp247
(lp248
F0.0
aI36
aI101
aI3
aS'on'
p249
aa(lp250
F0.11719547189477
aI36
aI0
aI3
aS'off'
p251
aa(lp252
F0.38280452810523
aI36
aI114
aI3
aS'on'
p253
aa(lp254
F0.14616108705559
aI36
aI0
aI3
aS'off'
p255
aa(lp256
F0.35383891294441
aI38
aI98
aI3
aS'on'
p257
aa(lp258
F0.10691308988498
aI38
aI0
aI3
aS'off'
p259
aa(lp260
F0.39308691011502
aI41
aI101
aI3
aS'on'
p261
aa(lp262
F0.10793080732765
aI41
aI0
aI3
aS'off'
p263
aa(lp264
F0.14206919267235
aI38
aI112
aI3
aS'on'
p265
aa(lp266
F0.092433795768557
aI38
aI0
aI3
aS'off'
p267
aa(lp268
F0.15756620423144
aI41
aI105
aI3
aS'on'
p269
aa(lp270
F0.09973495437589
aI41
aI0
aI3
aS'off'
p271
aa(lp272
F0.15026504562411
aI38
aI93
aI3
aS'on'
p273
aa(lp274
F0.092441555438199
aI38
aI0
aI3
aS'off'
p275
aa(lp276
F0.1575584445618
aI41
aI112
aI3
aS'on'
p277
aa(lp278
F0.13001265855928
aI41
aI0
aI3
aS'off'
p279
aa(lp280
F0.36998734144072
aI38
aI115
aI3
aS'on'
p281
aa(lp282
F0.15390877057325
aI38
aI0
aI3
aS'off'
p283
aa(lp284
F0.34609122942675
aI36
aI111
aI3
aS'on'
p285
aa(lp286
F0.11572739146141
aI36
aI0
aI3
aS'off'
p287
aa(lp288
F0.13427260853859
aI38
aI112
aI3
aS'on'
p289
aa(lp290
F0.12335005905788
aI38
aI0
aI3
aS'off'
p291
aa(lp292
F0.12664994094212
aI0
aI0
aI0
aS'timeAfterLastHit'
p293
aaaI0
aI0
aI0
aaa(lp294
(lp295
(dp296
S'button'
p297
S'50'
p298
sS'playing'
p299
I0
sa(dp300
g297
S'60'
p301
sg299
I0
sa(dp302
a(dp303
aa(lp304
(dp305
a(dp306
a(dp307
a(dp308
aa(lp309
(dp310
g297
S'10'
p311
sg299
I0
sa(dp312
g297
S'20'
p313
sg299
I0
sa(dp314
a(dp315
aa(lp316
(dp317
g297
S'19'
p318
sg299
I0
sa(dp319
a(dp320
a(dp321
aaa(lp322
I60
aI60
aI36
aI36
aa(lp323
(lp324
I0
aI2
aI3
aI5
aI7
aI8
aI10
aa(lp325
I0
aI2
aI3
aI5
aI7
aI8
aI10
aa(lp326
I0
aI2
aI3
aI5
aI7
aI8
aI10
aa(lp327
I0
aI1
aI2
aI3
aI4
aI5
aI6
aI7
aI8
aI9
aI10
aI11
aaa(lp328
(lp329
(lp330
I0
aI0
aI0
aI0
aI0
aI0
aI0
aI0
aI0
aI0
aI0
aI0
aa(lp331
I0
aI0
aI0
aI0
aI0
aI0
aI0
aI0
aI0
aI0
aI0
aI0
aa(lp332
I0
aI0
aI0
aI0
aI0
aI0
aI0
aI0
aI0
aI0
aI0
aI0
aa(lp333
I0
aI0
aI0
aI0
aI0
aI0
aI0
aI0
aI0
aI0
aI0
aI0
aaa(lp334
(lp335
I0
aI0
aI0
aI0
aI0
aI0
aI0
aI0
aI0
aI0
aI0
aI0
aa(lp336
I0
aI0
aI0
aI0
aI0
aI0
aI0
aI0
aI0
aI0
aI0
aI0
aa(lp337
I0
aI0
aI0
aI0
aI0
aI0
aI0
aI0
aI0
aI0
aI0
aI0
aa(lp338
I0
aI0
aI0
aI0
aI0
aI0
aI0
aI0
aI0
aI0
aI0
aI0
aaa(lp339
(lp340
I0
aI0
aI0
aI0
aI0
aI0
aI0
aI0
aI0
aI0
aI0
aI0
aa(lp341
I0
aI0
aI0
aI0
aI0
aI0
aI0
aI0
aI0
aI0
aI0
aI0
aa(lp342
I0
aI0
aI0
aI0
aI0
aI0
aI0
aI0
aI0
aI0
aI0
aI0
aa(lp343
I0
aI0
aI0
aI0
aI0
aI0
aI0
aI0
aI0
aI0
aI0
aI0
aaa(lp344
(lp345
I0
aI0
aI0
aI0
aI0
aI0
aI0
aI0
aI0
aI0
aI0
aI0
aa(lp346
I0
aI0
aI0
aI0
aI0
aI0
aI0
aI0
aI0
aI0
aI0
aI0
aa(lp347
I0
aI0
aI0
aI0
aI0
aI0
aI0
aI0
aI0
aI0
aI0
aI0
aa(lp348
I0
aI0
aI0
aI0
aI0
aI0
aI0
aI0
aI0
aI0
aI0
aI0
aaaa(lp349
(lp350
I0
aI0
aI0
aI0
aI0
aI0
aI0
aI0
aI0
aI0
aI0
aI0
aa(lp351
I0
aI0
aI0
aI0
aI0
aI0
aI0
aI0
aI0
aI0
aI0
aI0
aa(lp352
I0
aI0
aI0
aI0
aI0
aI0
aI0
aI0
aI0
aI0
aI0
aI0
aa(lp353
I0
aI0
aI0
aI0
aI0
aI0
aI0
aI0
aI0
aI0
aI0
aI0
aaaaI0
aI0
aI0
aI0
aI0
aI0
aI0
aI0
aI0
aI0
aI0
aI0
aI0
aI0
aI0
aI0
aI0
aI0
aI0
aI0
aI0
aI0
aI0
aI0
aI0
aI0
aI0
aI0
aI0
a.