(lp0
I0
aI0
aI0
aI0
aI0
aI0
aI0
aI0
aI0
aI0
aI0
aI0
aI0
aI0
aI0
aI0
aI0
aI0
aI0
aI0
aI0
aI0
aI0
aI0
aI0
aI0
aI0
aI0
aI0
aI0
aI0
aI0
aI0
aI0
aI0
aI0
aI0
aI0
aI0
aI0
a(lp1
(lp2
(lp3
(lp4
(lp5
F0.0
aI48
aI84
aI0
aS'on'
p6
aa(lp7
F0.25862909596617
aI48
aI0
aI0
aS'off'
p8
aa(lp9
F0.49616993517884
aI58
aI49
aI0
aS'on'
p10
aa(lp11
F0.28118328156961
aI58
aI0
aI0
aS'off'
p12
aa(lp13
F0.64372450193423
aI60
aI88
aI0
aS'on'
p14
aa(lp15
F0.22860951058192
aI60
aI0
aI0
aS'off'
p16
aa(lp17
F0.093784140133721
aI62
aI72
aI0
aS'on'
p18
aa(lp19
F0.27016576819005
aI67
aI89
aI0
aS'on'
p20
aa(lp21
F0.053392793995044
aI62
aI0
aI0
aS'off'
p22
aa(lp23
F0.30880589682056
aI67
aI0
aI0
aS'off'
p24
aa(lp25
F0.97654982700169
aI48
aI97
aI0
aS'on'
p26
aa(lp27
F0.30992633156529
aI48
aI0
aI0
aS'off'
p28
aa(lp29
F0.60589686323965
aI58
aI98
aI0
aS'on'
p30
aa(lp31
F0.2279304302956
aI58
aI0
aI0
aS'off'
p32
aa(lp33
F0.62917634790756
aI60
aI109
aI0
aS'on'
p34
aa(lp35
F0.22881497134676
aI60
aI0
aI0
aS'off'
p36
aa(lp37
F0.040816090787303
aI62
aI89
aI0
aS'on'
p38
aa(lp39
F0.18750500492024
aI67
aI47
aI0
aS'on'
p40
aa(lp41
F0.12038019827378
aI62
aI0
aI0
aS'off'
p42
aa(lp43
F0.32324579070428
aI67
aI0
aI0
aS'off'
p44
aa(lp45
F5.5394774968518
aI48
aI90
aI0
aS'on'
p46
aa(lp47
F0.42949343432338
aI48
aI0
aI0
aS'off'
p48
aa(lp49
F0.5748116195482
aI58
aI95
aI0
aS'on'
p50
aa(lp51
F0.14731660998405
aI58
aI0
aI0
aS'off'
p52
aa(lp53
F0.71305608600323
aI60
aI104
aI0
aS'on'
p54
aa(lp55
F0.22876197545338
aI60
aI0
aI0
aS'off'
p56
aa(lp57
F0.093647748776675
aI62
aI84
aI0
aS'on'
p58
aa(lp59
F0.33470228241003
aI67
aI92
aI0
aS'on'
p60
aa(lp61
F0.053181916373433
aI62
aI0
aI0
aS'off'
p62
aa(lp63
F0.24112953053464
aI67
aI0
aI0
aS'off'
p64
aa(lp65
F1.2487128421535
aI48
aI88
aI0
aS'on'
p66
aa(lp67
F0.29491793208308
aI48
aI0
aI0
aS'off'
p68
aa(lp69
F0.45479066840653
aI58
aI95
aI0
aS'on'
p70
aa(lp71
F0.28186602099231
aI58
aI0
aI0
aS'off'
p72
aa(lp73
F0.65686744238246
aI60
aI96
aI0
aS'on'
p74
aa(lp75
F0.21404657887888
aI60
aI0
aI0
aS'off'
p76
aa(lp77
F0.17330058390598
aI62
aI104
aI0
aS'on'
p78
aa(lp79
F0.20146616264901
aI67
aI84
aI0
aS'on'
p80
aa(lp81
F0.13375997927778
aI62
aI0
aI0
aS'off'
p82
aa(lp83
F0.2684133882758
aI67
aI0
aI0
aS'off'
p84
aa(lp85
F2.4410242821768
aI72
aI116
aI0
aS'on'
p86
aa(lp87
F0.33535888697679
aI72
aI0
aI0
aS'off'
p88
aa(lp89
F2.264611800364
aI72
aI101
aI0
aS'on'
p90
aa(lp91
F0.16174342232625
aI72
aI0
aI0
aS'off'
p92
aa(lp93
F0.22883452847964
aI0
aI0
aI0
aS'timeAfterLastHit'
p94
aaa(lp95
(lp96
F0.0
aI48
aI100
aI0
aS'on'
p97
aa(lp98
F0.095574614399084
aI48
aI0
aI0
aS'off'
p99
aa(lp100
F0.65552183475302
aI58
aI110
aI0
aS'on'
p101
aa(lp102
F0.17576803758811
aI58
aI0
aI0
aS'off'
p103
aa(lp104
F0.67147185627255
aI60
aI101
aI0
aS'on'
p105
aa(lp106
F0.21362398455221
aI60
aI0
aI0
aS'off'
p107
aa(lp108
F0.16056796453677
aI62
aI97
aI0
aS'on'
p109
aa(lp110
F0.21470920844831
aI67
aI85
aI0
aS'on'
p111
aa(lp112
F0.027305748411436
aI62
aI0
aI0
aS'off'
p113
aa(lp114
F0.30668471393665
aI67
aI0
aI0
aS'off'
p115
aa(lp116
F0.80276349659061
aI48
aI99
aI0
aS'on'
p117
aa(lp118
F0.23060173072008
aI48
aI0
aI0
aS'off'
p119
aa(lp120
F0.73640469909651
aI58
aI109
aI0
aS'on'
p121
aa(lp122
F0.24048797564046
aI58
aI0
aI0
aS'off'
p123
aa(lp124
F0.69849498130361
aI60
aI106
aI0
aS'on'
p125
aa(lp126
F0.2016196257
aI60
aI0
aI0
aS'off'
p127
aa(lp128
F0.16065283546004
aI62
aI96
aI0
aS'on'
p129
aa(lp130
F0.22774412739363
aI67
aI90
aI0
aS'on'
p131
aa(lp132
F0.080899407438665
aI62
aI0
aI0
aS'off'
p133
aa(lp134
F0.30932710564412
aI67
aI0
aI0
aS'off'
p135
aa(lp136
F7.5673473303677
aI48
aI118
aI0
aS'on'
p137
aa(lp138
F0.2681321659411
aI48
aI0
aI0
aS'off'
p139
aa(lp140
F0.76526349429969
aI58
aI104
aI0
aS'on'
p141
aa(lp142
F0.17350685039855
aI58
aI0
aI0
aS'off'
p143
aa(lp144
F0.64564323142167
aI60
aI108
aI0
aS'on'
p145
aa(lp146
F0.22805421739122
aI60
aI0
aI0
aS'off'
p147
aa(lp148
F0.14779350887238
aI62
aI92
aI0
aS'on'
p149
aa(lp150
F0.28118538826675
aI67
aI44
aI0
aS'on'
p151
aa(lp152
F0.067658337469766
aI62
aI0
aI0
aS'off'
p153
aa(lp154
F0.29514997675687
aI67
aI0
aI0
aS'off'
p155
aa(lp156
F0.91034022270969
aI48
aI64
aI0
aS'on'
p157
aa(lp158
F0.29394617990602
aI48
aI0
aI0
aS'off'
p159
aa(lp160
F0.64514326149947
aI58
aI103
aI0
aS'on'
p161
aa(lp162
F0.18828573529709
aI58
aI0
aI0
aS'off'
p163
aa(lp164
F0.67100653780653
aI60
aI114
aI0
aS'on'
p165
aa(lp166
F0.21467481872514
aI60
aI0
aI0
aS'off'
p167
aa(lp168
F0.20169500236989
aI62
aI97
aI0
aS'on'
p169
aa(lp170
F0.22921281390018
aI67
aI16
aI0
aS'on'
p171
aa(lp172
F0.14642287490415
aI62
aI0
aI0
aS'off'
p173
aa(lp174
F0.24199951971741
aI67
aI0
aI0
aS'off'
p175
aa(lp176
F1.3940160931729
aI72
aI100
aI0
aS'on'
p177
aa(lp178
F5.5428706530206
aI72
aI0
aI0
aS'off'
p179
aa(lp180
F0.6704278378993
aI0
aI0
aI0
aS'timeAfterLastHit'
p181
aaaI0
aI0
aa(lp182
(lp183
(lp184
F1.7821690192941
aI67
aI116
aI1
aS'on'
p185
aa(lp186
F0.16092430180288
aI67
aI0
aI1
aS'off'
p187
aa(lp188
F0.20238632256223
aI65
aI110
aI1
aS'on'
p189
aa(lp190
F0.18734171403048
aI65
aI0
aI1
aS'off'
p191
aa(lp192
F0.24088287240011
aI67
aI112
aI1
aS'on'
p193
aa(lp194
F0.2009220085456
aI67
aI0
aI1
aS'off'
p195
aa(lp196
F0.17546137834142
aI65
aI112
aI1
aS'on'
p197
aa(lp198
F0.20085946448671
aI65
aI0
aI1
aS'off'
p199
aa(lp200
F1.4094902499201
aI67
aI120
aI1
aS'on'
p201
aa(lp202
F0.24207072918944
aI67
aI0
aI1
aS'off'
p203
aa(lp204
F0.20090696396073
aI65
aI115
aI1
aS'on'
p205
aa(lp206
F0.20001307238999
aI65
aI0
aI1
aS'off'
p207
aa(lp208
F0.2406180366379
aI67
aI109
aI1
aS'on'
p209
aa(lp210
F0.22894725964579
aI67
aI0
aI1
aS'off'
p211
aa(lp212
F0.22783162849373
aI60
aI118
aI1
aS'on'
p213
aa(lp214
F0.18736541374528
aI60
aI0
aI1
aS'off'
p215
aa(lp216
F1.2746576792124
aI67
aI114
aI1
aS'on'
p217
aa(lp218
F0.21379937932943
aI67
aI0
aI1
aS'off'
p219
aa(lp220
F0.31021807456273
aI65
aI103
aI1
aS'on'
p221
aa(lp222
F0.18822593176446
aI65
aI0
aI1
aS'off'
p223
aa(lp224
F0.37556631404732
aI67
aI114
aI1
aS'on'
p225
aa(lp226
F0.25561666986323
aI67
aI0
aI1
aS'off'
p227
aa(lp228
F0.18844537218683
aI60
aI102
aI1
aS'on'
p229
aa(lp230
F0.14832159974321
aI60
aI0
aI1
aS'off'
p231
aa(lp232
F0.88594445768103
aI62
aI112
aI1
aS'on'
p233
aa(lp234
F0.21503783276421
aI62
aI0
aI1
aS'off'
p235
aa(lp236
F0.91150054871105
aI60
aI113
aI1
aS'on'
p237
aa(lp238
F0.17431103157287
aI60
aI0
aI1
aS'off'
p239
aa(lp240
F0.32192692093668
aI62
aI118
aI1
aS'on'
p241
aa(lp242
F0.21439087898761
aI62
aI0
aI1
aS'off'
p243
aa(lp244
F0.76648954363191
aI64
aI115
aI1
aS'on'
p245
aa(lp246
F0.22663303550507
aI64
aI0
aI1
aS'off'
p247
aa(lp248
F0.69749859281001
aI65
aI114
aI1
aS'on'
p249
aa(lp250
F0.17439792965888
aI65
aI0
aI1
aS'off'
p251
aa(lp252
F0.80610273567436
aI67
aI114
aI1
aS'on'
p253
aa(lp254
F0.18872004091099
aI67
aI0
aI1
aS'off'
p255
aa(lp256
F0.80620062911476
aI70
aI114
aI1
aS'on'
p257
aa(lp258
F0.20097482993151
aI70
aI0
aI1
aS'off'
p259
aa(lp260
F0.33501163338951
aI72
aI110
aI1
aS'on'
p261
aa(lp262
F0.20015697703639
aI72
aI0
aI1
aS'off'
p263
aa(lp264
F0.22819879175222
aI70
aI116
aI1
aS'on'
p265
aa(lp266
F0.21441403213248
aI70
aI0
aI1
aS'off'
p267
aa(lp268
F0.26915201805241
aI67
aI102
aI1
aS'on'
p269
aa(lp270
F0.18816994903318
aI67
aI0
aI1
aS'off'
p271
aa(lp272
F0.3488484446425
aI65
aI114
aI1
aS'on'
p273
aa(lp274
F0.18657366232947
aI65
aI0
aI1
aS'off'
p275
aa(lp276
F0.80179145446164
aI64
aI120
aI1
aS'on'
p277
aa(lp278
F0.18735155470495
aI64
aI0
aI1
aS'off'
p279
aa(lp280
F0.88688506356266
aI65
aI112
aI1
aS'on'
p281
aa(lp282
F0.18887712205469
aI65
aI0
aI1
aS'off'
p283
aa(lp284
F0.33417530517909
aI64
aI120
aI1
aS'on'
p285
aa(lp286
F0.20110807791934
aI64
aI0
aI1
aS'off'
p287
aa(lp288
F0.8996904551168
aI62
aI118
aI1
aS'on'
p289
aa(lp290
F0.18763956413022
aI62
aI0
aI1
aS'off'
p291
aa(lp292
F0.75102040088677
aI60
aI114
aI1
aS'on'
p293
aa(lp294
F0.18827387005149
aI60
aI0
aI1
aS'off'
p295
aa(lp296
F0.85770938098722
aI58
aI119
aI1
aS'on'
p297
aa(lp298
F0.18770534136274
aI58
aI0
aI1
aS'off'
p299
aa(lp300
F0.30830865714233
aI60
aI118
aI1
aS'on'
p301
aa(lp302
F0.20111571438611
aI60
aI0
aI1
aS'off'
p303
aa(lp304
F0.68262197099102
aI62
aI114
aI1
aS'on'
p305
aa(lp306
F0.18819586835161
aI62
aI0
aI1
aS'off'
p307
aa(lp308
F0.85886763880262
aI65
aI110
aI1
aS'on'
p309
aa(lp310
F0.17430756744579
aI65
aI0
aI1
aS'off'
p311
aa(lp312
F0.80542937245627
aI67
aI112
aI1
aS'on'
p313
aa(lp314
F0.22863196834805
aI67
aI0
aI1
aS'off'
p315
aa(lp316
F0.75179272242531
aI64
aI114
aI1
aS'on'
p317
aa(lp318
F0.20113423845032
aI64
aI0
aI1
aS'off'
p319
aa(lp320
F0.32072828433593
aI65
aI110
aI1
aS'on'
p321
aa(lp322
F0.20206645090366
aI65
aI0
aI1
aS'off'
p323
aa(lp324
F0.25567521349876
aI67
aI112
aI1
aS'on'
p325
aa(lp326
F0.2154939546308
aI67
aI0
aI1
aS'off'
p327
aa(lp328
F0.22904595882574
aI70
aI115
aI1
aS'on'
p329
aa(lp330
F0.26892096898519
aI70
aI0
aI1
aS'off'
p331
aa(lp332
F0.33564125631528
aI72
aI120
aI1
aS'on'
p333
aa(lp334
F0.18719752199831
aI72
aI0
aI1
aS'off'
p335
aa(lp336
F0.80517793899344
aI64
aI114
aI1
aS'on'
p337
aa(lp338
F0.2020166599541
aI64
aI0
aI1
aS'off'
p339
aa(lp340
F0.32239881352871
aI65
aI109
aI1
aS'on'
p341
aa(lp342
F0.18851382317371
aI65
aI0
aI1
aS'off'
p343
aa(lp344
F0.29474505201506
aI67
aI106
aI1
aS'on'
p345
aa(lp346
F0.22838045273966
aI67
aI0
aI1
aS'off'
p347
aa(lp348
F0.25416042597499
aI70
aI107
aI1
aS'on'
p349
aa(lp350
F0.21500692254631
aI70
aI0
aI1
aS'off'
p351
aa(lp352
F0.3497731207317
aI72
aI109
aI1
aS'on'
p353
aa(lp354
F0.20052528730594
aI72
aI0
aI1
aS'off'
p355
aa(lp356
F0.80263356391515
aI67
aI99
aI1
aS'on'
p357
aa(lp358
F0.22656686825212
aI67
aI0
aI1
aS'off'
p359
aa(lp360
F0.30968109244714
aI65
aI114
aI1
aS'on'
p361
aa(lp362
F0.20155165711185
aI65
aI0
aI1
aS'off'
p363
aa(lp364
F0.76353243796621
aI65
aI113
aI1
aS'on'
p365
aa(lp366
F0.20209806675848
aI65
aI0
aI1
aS'off'
p367
aa(lp368
F0.28062415732711
aI64
aI115
aI1
aS'on'
p369
aa(lp370
F0.21479866483423
aI64
aI0
aI1
aS'off'
p371
aa(lp372
F0.77906498435186
aI62
aI87
aI1
aS'on'
p373
aa(lp374
F0.22817693701654
aI62
aI0
aI1
aS'off'
p375
aa(lp376
F0.29623958085722
aI60
aI116
aI1
aS'on'
p377
aa(lp378
F0.20138157397741
aI60
aI0
aI1
aS'off'
p379
aa(lp380
F0.26954481327266
aI58
aI114
aI1
aS'on'
p381
aa(lp382
F0.00035065867996309
aI48
aI9
aI1
aS'on'
p383
aa(lp384
F0.066227219984285
aI48
aI0
aI1
aS'off'
p385
aa(lp386
F0.13312422357558
aI58
aI0
aI1
aS'off'
p387
aa(lp388
F0.69858825847041
aI60
aI110
aI1
aS'on'
p389
aa(lp390
F0.24152819935989
aI60
aI0
aI1
aS'off'
p391
aa(lp392
F0.72478798801603
aI62
aI97
aI1
aS'on'
p393
aa(lp394
F0.24127357374527
aI62
aI0
aI1
aS'off'
p395
aa(lp396
F0.37697551777819
aI65
aI110
aI1
aS'on'
p397
aa(lp398
F0.17515586868103
aI65
aI0
aI1
aS'off'
p399
aa(lp400
F0.2552798497054
aI64
aI113
aI1
aS'on'
p401
aa(lp402
F0.21368364695809
aI64
aI0
aI1
aS'off'
p403
aa(lp404
F0.25613060916658
aI65
aI117
aI1
aS'on'
p405
aa(lp406
F0.20140111420187
aI65
aI0
aI1
aS'off'
p407
aa(lp408
F0.82018323357624
aI65
aI113
aI1
aS'on'
p409
aa(lp410
F0.22681765767629
aI65
aI0
aI1
aS'off'
p411
aa(lp412
F0.70903869811445
aI64
aI107
aI1
aS'on'
p413
aa(lp414
F0.17495002300711
aI64
aI0
aI1
aS'off'
p415
aa(lp416
F0.37649994039384
aI62
aI115
aI1
aS'on'
p417
aa(lp418
F0.2022405652242
aI62
aI0
aI1
aS'off'
p419
aa(lp420
F0.80244887756999
aI60
aI106
aI1
aS'on'
p421
aa(lp422
F0.21423552479246
aI60
aI0
aI1
aS'off'
p423
aa(lp424
F0.7788174435118
aI58
aI105
aI1
aS'on'
p425
aa(lp426
F0.2409919485508
aI58
aI0
aI1
aS'off'
p427
aa(lp428
F0.77748318537488
aI60
aI95
aI1
aS'on'
p429
aa(lp430
F0.25440170316142
aI60
aI0
aI1
aS'off'
p431
aa(lp432
F0.73816234446713
aI62
aI103
aI1
aS'on'
p433
aa(lp434
F0.1876600306714
aI62
aI0
aI1
aS'off'
p435
aa(lp436
F0.3880750383978
aI65
aI98
aI1
aS'on'
p437
aa(lp438
F0.20115018365323
aI65
aI0
aI1
aS'off'
p439
aa(lp440
F0.77735927254253
aI67
aI46
aI1
aS'on'
p441
aa(lp442
F0.26801568684459
aI67
aI0
aI1
aS'off'
p443
aa(lp444
F0.77863840245118
aI72
aI108
aI1
aS'on'
p445
aa(lp446
F0.24225266985013
aI72
aI0
aI1
aS'off'
p447
aa(lp448
F0.76385314356594
aI70
aI112
aI1
aS'on'
p449
aa(lp450
F0.20085866903537
aI70
aI0
aI1
aS'off'
p451
aa(lp452
F0.29559720226098
aI67
aI96
aI1
aS'on'
p453
aa(lp454
F0.28185019636294
aI67
aI0
aI1
aS'off'
p455
aa(lp456
F0.63111622650467
aI65
aI105
aI1
aS'on'
p457
aa(lp458
F0.21371403368539
aI65
aI0
aI1
aS'off'
p459
aa(lp460
F0.8988901409175
aI64
aI110
aI1
aS'on'
p461
aa(lp462
F0.1338276835595
aI64
aI0
aI1
aS'off'
p463
aa(lp464
F0.40350777453568
aI65
aI113
aI1
aS'on'
p465
aa(lp466
F0.20246433450666
aI65
aI0
aI1
aS'off'
p467
aa(lp468
F0.20092058180308
aI64
aI114
aI1
aS'on'
p469
aa(lp470
F0.25559300095483
aI64
aI0
aI1
aS'off'
p471
aa(lp472
F0.3077338673902
aI62
aI115
aI1
aS'on'
p473
aa(lp474
F0.2017998907686
aI62
aI0
aI1
aS'off'
p475
aa(lp476
F0.65642310364638
aI60
aI118
aI1
aS'on'
p477
aa(lp478
F0.20150834535889
aI60
aI0
aI1
aS'off'
p479
aa(lp480
F0.76505879820616
aI58
aI110
aI1
aS'on'
p481
aa(lp482
F0.16058218540275
aI58
aI0
aI1
aS'off'
p483
aa(lp484
F0.3361694857449
aI60
aI114
aI1
aS'on'
p485
aa(lp486
F0.18882544765074
aI60
aI0
aI1
aS'off'
p487
aa(lp488
F0.89900282741291
aI58
aI106
aI1
aS'on'
p489
aa(lp490
F0.20094696815067
aI58
aI0
aI1
aS'off'
p491
aa(lp492
F0.28231866078568
aI60
aI110
aI1
aS'on'
p493
aa(lp494
F0.20085514076345
aI60
aI0
aI1
aS'off'
p495
aa(lp496
F0.80521217474598
aI58
aI109
aI1
aS'on'
p497
aa(lp498
F0.20209503886872
aI58
aI0
aI1
aS'off'
p499
aa(lp500
F0.25356567517156
aI60
aI92
aI1
aS'on'
p501
aa(lp502
F0.22763138957089
aI60
aI0
aI1
aS'off'
p503
aa(lp504
F0.29569447471295
aI62
aI114
aI1
aS'on'
p505
aa(lp506
F0.21494542031724
aI62
aI0
aI1
aS'off'
p507
aa(lp508
F0.26888911708375
aI64
aI114
aI1
aS'on'
p509
aa(lp510
F0.22860009843134
aI64
aI0
aI1
aS'off'
p511
aa(lp512
F0.13477411174972
aI65
aI94
aI1
aS'on'
p513
aa(lp514
F0.2268563300604
aI65
aI0
aI1
aS'off'
p515
aa(lp516
F0.30961936441599
aI67
aI97
aI1
aS'on'
p517
aa(lp518
F0.00025431512040086
aI68
aI83
aI1
aS'on'
p519
aa(lp520
F0.092993140555336
aI68
aI0
aI1
aS'off'
p521
aa(lp522
F0.067121850588592
aI67
aI0
aI1
aS'off'
p523
aa(lp524
F0.44247800808807
aI72
aI107
aI1
aS'on'
p525
aa(lp526
F0.18747875715781
aI72
aI0
aI1
aS'off'
p527
aa(lp528
F0.88675208005589
aI0
aI0
aI0
aS'timeAfterLastHit'
p529
aaa(lp530
(lp531
F0.13416338839374
aI81
aI105
aI1
aS'on'
p532
aa(lp533
F0.12294940555626
aI82
aI85
aI1
aS'on'
p534
aa(lp535
F0.091220176731213
aI81
aI0
aI1
aS'off'
p536
aa(lp537
F0.04056521322741
aI83
aI89
aI1
aS'on'
p538
aa(lp539
F0.071935440735842
aI82
aI0
aI1
aS'off'
p540
aa(lp541
F0.081415117590495
aI83
aI0
aI1
aS'off'
p542
aa(lp543
F0.041436324375923
aI81
aI99
aI1
aS'on'
p544
aa(lp545
F0.1430972382791
aI82
aI67
aI1
aS'on'
p546
aa(lp547
F0.092766064367765
aI81
aI0
aI1
aS'off'
p548
aa(lp549
F0.00049717217689249
aI83
aI73
aI1
aS'on'
p550
aa(lp551
F0.029762118907684
aI82
aI0
aI1
aS'off'
p552
aa(lp553
F0.11271444756119
aI83
aI0
aI1
aS'off'
p554
aa(lp555
F0.071794817162527
aI81
aI82
aI1
aS'on'
p556
aa(lp557
F0.1333068366514
aI82
aI93
aI1
aS'on'
p558
aa(lp559
F0.040587883201169
aI81
aI0
aI1
aS'off'
p560
aa(lp561
F0.07132435449148
aI83
aI80
aI1
aS'on'
p562
aa(lp563
F0.041408118165805
aI82
aI0
aI1
aS'off'
p564
aa(lp565
F0.1020210906421
aI83
aI0
aI1
aS'off'
p566
aa(lp567
F0.071356024279225
aI81
aI96
aI1
aS'on'
p568
aa(lp569
F0.15328287165062
aI82
aI88
aI1
aS'on'
p570
aa(lp571
F0.06212651641647
aI81
aI0
aI1
aS'off'
p572
aa(lp573
F0.00019492023636758
aI82
aI0
aI1
aS'off'
p574
aa(lp575
F0.031525494882089
aI83
aI88
aI1
aS'on'
p576
aa(lp577
F0.13243140191094
aI83
aI0
aI1
aS'off'
p578
aa(lp579
F0.061928638033805
aI81
aI99
aI1
aS'on'
p580
aa(lp581
F0.15289380107913
aI82
aI68
aI1
aS'on'
p582
aa(lp583
F0.051453874351864
aI81
aI0
aI1
aS'off'
p584
aa(lp585
F0.00021471434433806
aI82
aI0
aI1
aS'off'
p586
aa(lp587
F0.081635808954388
aI83
aI93
aI1
aS'on'
p588
aa(lp589
F0.11224166343197
aI83
aI0
aI1
aS'off'
p590
aa(lp591
F0.072498640288472
aI81
aI94
aI1
aS'on'
p592
aa(lp593
F0.12184328248384
aI81
aI0
aI1
aS'off'
p594
aa(lp595
F0.030748631033589
aI81
aI18
aI1
aS'on'
p596
aa(lp597
F0.051574887969878
aI82
aI98
aI1
aS'on'
p598
aa(lp599
F0.061136540714642
aI81
aI0
aI1
aS'off'
p600
aa(lp601
F0.094040625416596
aI83
aI86
aI1
aS'on'
p602
aa(lp603
F0.039063862333023
aI82
aI0
aI1
aS'off'
p604
aa(lp605
F0.020832369130403
aI83
aI0
aI1
aS'off'
p606
aa(lp607
F0.14290477075747
aI81
aI104
aI1
aS'on'
p608
aa(lp609
F0.13372547692416
aI82
aI89
aI1
aS'on'
p610
aa(lp611
F0.07198269662058
aI81
aI0
aI1
aS'off'
p612
aa(lp613
F0.051122757964777
aI83
aI91
aI1
aS'on'
p614
aa(lp615
F0.071517041428137
aI82
aI0
aI1
aS'off'
p616
aa(lp617
F0.09194406039137
aI83
aI0
aI1
aS'off'
p618
aa(lp619
F0.071218364728452
aI81
aI95
aI1
aS'on'
p620
aa(lp621
F0.1644650082311
aI82
aI98
aI1
aS'on'
p622
aa(lp623
F0.010198829440469
aI81
aI0
aI1
aS'off'
p624
aa(lp625
F0.041122141901383
aI82
aI0
aI1
aS'off'
p626
aa(lp627
F0.082333801986124
aI83
aI92
aI1
aS'on'
p628
aa(lp629
F0.14381533690528
aI81
aI93
aI1
aS'on'
p630
aa(lp631
F0.010505614592148
aI83
aI0
aI1
aS'off'
p632
aa(lp633
F0.07715432096893
aI81
aI0
aI1
aS'off'
p634
aa(lp635
F0.0099999999999909
aI0
aI0
aI0
aS'timeAfterLastHit'
p636
aaa(lp637
(lp638
F0.0
aI68
aI83
aI1
aS'on'
p639
aa(lp640
F0.0
aI67
aI84
aI1
aS'on'
p641
aa(lp642
F0.013907942089645
aI68
aI0
aI1
aS'off'
p643
aa(lp644
F0.026193205244454
aI67
aI0
aI1
aS'off'
p645
aa(lp646
F0.13861399371854
aI67
aI95
aI1
aS'on'
p647
aa(lp648
F0.09555725383052
aI67
aI0
aI1
aS'off'
p649
aa(lp650
F0.12197254252715
aI67
aI101
aI1
aS'on'
p651
aa(lp652
F0.043421378470157
aI67
aI0
aI1
aS'off'
p653
aa(lp654
F0.22753845771604
aI67
aI96
aI1
aS'on'
p655
aa(lp656
F0.096494286916823
aI67
aI0
aI1
aS'off'
p657
aa(lp658
F0.12977297806538
aI67
aI100
aI1
aS'on'
p659
aa(lp660
F0.043444743655527
aI67
aI0
aI1
aS'off'
p661
aa(lp662
F0.24522194444762
aI67
aI96
aI1
aS'on'
p663
aa(lp664
F0.052281014583968
aI67
aI0
aI1
aS'off'
p665
aa(lp666
F0.20849988198279
aI67
aI105
aI1
aS'on'
p667
aa(lp668
F0.044691489219986
aI67
aI0
aI1
aS'off'
p669
aa(lp670
F0.2009790600996
aI67
aI97
aI1
aS'on'
p671
aa(lp672
F0.052495634180559
aI67
aI0
aI1
aS'off'
p673
aa(lp674
F0.21750653953859
aI67
aI108
aI1
aS'on'
p675
aa(lp676
F0.043997980872518
aI67
aI0
aI1
aS'off'
p677
aa(lp678
F0.19204772129524
aI67
aI96
aI1
aS'on'
p679
aa(lp680
F0.043731641110753
aI67
aI0
aI1
aS'off'
p681
aa(lp682
F0.22624730579719
aI67
aI112
aI1
aS'on'
p683
aa(lp684
F0.044019610548276
aI67
aI0
aI1
aS'off'
p685
aa(lp686
F0.20048211105131
aI67
aI93
aI1
aS'on'
p687
aa(lp688
F0.052901896636286
aI67
aI0
aI1
aS'off'
p689
aa(lp690
F0.2525327097419
aI67
aI99
aI1
aS'on'
p691
aa(lp692
F0.043933168535659
aI67
aI0
aI1
aS'off'
p693
aa(lp694
F0.17412489771777
aI67
aI90
aI1
aS'on'
p695
aa(lp696
F0.05244290538667
aI67
aI0
aI1
aS'off'
p697
aa(lp698
F0.20929044045351
aI67
aI98
aI1
aS'on'
p699
aa(lp700
F0.043827410859194
aI67
aI0
aI1
aS'off'
p701
aa(lp702
F0.20084762656097
aI67
aI98
aI1
aS'on'
p703
aa(lp704
F0.051969654954519
aI67
aI0
aI1
aS'off'
p705
aa(lp706
F0.20036457158858
aI74
aI94
aI1
aS'on'
p707
aa(lp708
F0.044468392137787
aI74
aI0
aI1
aS'off'
p709
aa(lp710
F0.14743285120676
aI74
aI102
aI1
aS'on'
p711
aa(lp712
F0.061228821548866
aI74
aI0
aI1
aS'off'
p713
aa(lp714
F0.20821814437386
aI74
aI98
aI1
aS'on'
p715
aa(lp716
F0.043532184295145
aI74
aI0
aI1
aS'off'
p717
aa(lp718
F0.19219222033098
aI74
aI103
aI1
aS'on'
p719
aa(lp720
F0.051864420765014
aI74
aI0
aI1
aS'off'
p721
aa(lp722
F0.20926591659645
aI74
aI92
aI1
aS'on'
p723
aa(lp724
F0.042919316259031
aI74
aI0
aI1
aS'off'
p725
aa(lp726
F0.2016240158764
aI74
aI102
aI1
aS'on'
p727
aa(lp728
F0.052151449926896
aI74
aI0
aI1
aS'off'
p729
aa(lp730
F0.23560018320131
aI74
aI103
aI1
aS'on'
p731
aa(lp732
F0.044139404007183
aI74
aI0
aI1
aS'off'
p733
aa(lp734
F0.19132035968778
aI74
aI95
aI1
aS'on'
p735
aa(lp736
F0.052580737466997
aI74
aI0
aI1
aS'off'
p737
aa(lp738
F0.2532493832141
aI74
aI99
aI1
aS'on'
p739
aa(lp740
F0.043456061974211
aI74
aI0
aI1
aS'off'
p741
aa(lp742
F0.15629244564116
aI74
aI98
aI1
aS'on'
p743
aa(lp744
F0.060701050131684
aI74
aI0
aI1
aS'off'
p745
aa(lp746
F0.23508781296732
aI74
aI98
aI1
aS'on'
p747
aa(lp748
F0.04415729091761
aI74
aI0
aI1
aS'off'
p749
aa(lp750
F0.16586740483035
aI74
aI86
aI1
aS'on'
p751
aa(lp752
F0.052329387101054
aI74
aI0
aI1
aS'off'
p753
aa(lp754
F0.21811276896096
aI74
aI99
aI1
aS'on'
p755
aa(lp756
F0.053169420077211
aI74
aI0
aI1
aS'off'
p757
aa(lp758
F0.15605397738545
aI74
aI98
aI1
aS'on'
p759
aa(lp760
F0.061285661549846
aI74
aI0
aI1
aS'off'
p761
aa(lp762
F0.191473859697
aI74
aI99
aI1
aS'on'
p763
aa(lp764
F0.042976876467947
aI74
aI0
aI1
aS'off'
p765
aa(lp766
F0.20223042535144
aI74
aI102
aI1
aS'on'
p767
aa(lp768
F0.060970552487561
aI74
aI0
aI1
aS'off'
p769
aa(lp770
F0.20061788419662
aI75
aI103
aI1
aS'on'
p771
aa(lp772
F0.051761337206699
aI75
aI0
aI1
aS'off'
p773
aa(lp774
F0.13944670121418
aI75
aI98
aI1
aS'on'
p775
aa(lp776
F0.052558786030204
aI75
aI0
aI1
aS'off'
p777
aa(lp778
F0.24445343244133
aI75
aI103
aI1
aS'on'
p779
aa(lp780
F0.043344145825358
aI75
aI0
aI1
aS'off'
p781
aa(lp782
F0.16631021967078
aI75
aI95
aI1
aS'on'
p783
aa(lp784
F0.05231822382666
aI75
aI0
aI1
aS'off'
p785
aa(lp786
F0.23579898649405
aI75
aI109
aI1
aS'on'
p787
aa(lp788
F0.043451012160403
aI75
aI0
aI1
aS'off'
p789
aa(lp790
F0.19153778844247
aI75
aI93
aI1
aS'on'
p791
aa(lp792
F0.052570976271454
aI75
aI0
aI1
aS'off'
p793
aa(lp794
F0.20920412347732
aI75
aI109
aI1
aS'on'
p795
aa(lp796
F0.052225116526643
aI75
aI0
aI1
aS'off'
p797
aa(lp798
F0.17387897727804
aI75
aI98
aI1
aS'on'
p799
aa(lp800
F0.051913841923124
aI75
aI0
aI1
aS'off'
p801
aa(lp802
F0.22716859760021
aI75
aI107
aI1
aS'on'
p803
aa(lp804
F0.043337093757145
aI75
aI0
aI1
aS'off'
p805
aa(lp806
F0.18300808573804
aI75
aI96
aI1
aS'on'
p807
aa(lp808
F0.052215360332411
aI75
aI0
aI1
aS'off'
p809
aa(lp810
F0.20925685393922
aI75
aI100
aI1
aS'on'
p811
aa(lp812
F0.043626957083688
aI75
aI0
aI1
aS'off'
p813
aa(lp814
F0.19159198933357
aI75
aI99
aI1
aS'on'
p815
aa(lp816
F0.051993313559251
aI75
aI0
aI1
aS'off'
p817
aa(lp818
F0.20888185565036
aI75
aI103
aI1
aS'on'
p819
aa(lp820
F0.051952291530142
aI75
aI0
aI1
aS'off'
p821
aa(lp822
F0.19123433279765
aI75
aI98
aI1
aS'on'
p823
aa(lp824
F0.052572506720026
aI75
aI0
aI1
aS'off'
p825
aa(lp826
F0.22692218201428
aI75
aI103
aI1
aS'on'
p827
aa(lp828
F0.043998656070471
aI75
aI0
aI1
aS'off'
p829
aa(lp830
F0.16601942440502
aI75
aI97
aI1
aS'on'
p831
aa(lp832
F0.052100469978541
aI75
aI0
aI1
aS'off'
p833
aa(lp834
F0.23585016983452
aI75
aI95
aI1
aS'on'
p835
aa(lp836
F0.043908532979913
aI75
aI0
aI1
aS'off'
p837
aa(lp838
F0.15735569073331
aI75
aI98
aI1
aS'on'
p839
aa(lp840
F0.052223192629754
aI75
aI0
aI1
aS'off'
p841
aa(lp842
F0.24520561299141
aI75
aI97
aI1
aS'on'
p843
aa(lp844
F0.043564352059548
aI75
aI0
aI1
aS'off'
p845
aa(lp846
F0.1480765399474
aI75
aI94
aI1
aS'on'
p847
aa(lp848
F0.052691511614285
aI75
aI0
aI1
aS'off'
p849
aa(lp850
F0.21689950821383
aI75
aI97
aI1
aS'on'
p851
aa(lp852
F0.043886481513255
aI75
aI0
aI1
aS'off'
p853
aa(lp854
F0.17484129277727
aI75
aI97
aI1
aS'on'
p855
aa(lp856
F0.053072906777743
aI75
aI0
aI1
aS'off'
p857
aa(lp858
F0.23373586322214
aI75
aI102
aI1
aS'on'
p859
aa(lp860
F0.043990223598485
aI75
aI0
aI1
aS'off'
p861
aa(lp862
F0.1651586886901
aI75
aI103
aI1
aS'on'
p863
aa(lp864
F0.096239633915502
aI75
aI0
aI1
aS'off'
p865
aa(lp866
F0.20052883808694
aI82
aI78
aI1
aS'on'
p867
aa(lp868
F0.00020683731418103
aI77
aI89
aI1
aS'on'
p869
aa(lp870
F0.043197957961638
aI77
aI0
aI1
aS'off'
p871
aa(lp872
F0.026970161391546
aI82
aI0
aI1
aS'off'
p873
aa(lp874
F0.1646313323954
aI75
aI97
aI1
aS'on'
p875
aa(lp876
F0.053077037990079
aI75
aI0
aI1
aS'off'
p877
aa(lp878
F0.20884519490119
aI75
aI98
aI1
aS'on'
p879
aa(lp880
F0.078207524961726
aI75
aI0
aI1
aS'off'
p881
aa(lp882
F0.13058362409265
aI75
aI95
aI1
aS'on'
p883
aa(lp884
F0.052376921038558
aI75
aI0
aI1
aS'off'
p885
aa(lp886
F0.22642936751254
aI75
aI98
aI1
aS'on'
p887
aa(lp888
F0.069724632649013
aI75
aI0
aI1
aS'off'
p889
aa(lp890
F0.17427299281007
aI75
aI92
aI1
aS'on'
p891
aa(lp892
F0.051994513911268
aI75
aI0
aI1
aS'off'
p893
aa(lp894
F0.17398459324613
aI75
aI108
aI1
aS'on'
p895
aa(lp896
F0.08695091865593
aI75
aI0
aI1
aS'off'
p897
aa(lp898
F0.17498522831374
aI75
aI97
aI1
aS'on'
p899
aa(lp900
F0.052175657025145
aI75
aI0
aI1
aS'off'
p901
aa(lp902
F0.29957814491536
aI0
aI0
aI0
aS'timeAfterLastHit'
p903
aaa(lp904
(lp905
F0.0
aI72
aI98
aI1
aS'on'
p906
aa(lp907
F0.047129908076386
aI72
aI0
aI1
aS'off'
p908
aa(lp909
F0.11334296720452
aI72
aI77
aI1
aS'on'
p910
aa(lp911
F0.1662133546015
aI72
aI0
aI1
aS'off'
p912
aa(lp913
F0.14741681984015
aI84
aI101
aI1
aS'on'
p914
aa(lp915
F0.043312089759638
aI84
aI0
aI1
aS'off'
p916
aa(lp917
F0.19252072665404
aI84
aI67
aI1
aS'on'
p918
aa(lp919
F0.043290601792251
aI84
aI0
aI1
aS'off'
p920
aa(lp921
F0.18314152319545
aI72
aI96
aI1
aS'on'
p922
aa(lp923
F0.12220794154928
aI72
aI0
aI1
aS'off'
p924
aa(lp925
F0.16488609376211
aI96
aI108
aI1
aS'on'
p926
aa(lp927
F0.078117190140802
aI96
aI0
aI1
aS'off'
p928
aa(lp929
F0.15693451390416
aI96
aI79
aI1
aS'on'
p930
aa(lp931
F0.087109228410554
aI96
aI0
aI1
aS'off'
p932
aa(lp933
F0.17494278420236
aI72
aI101
aI1
aS'on'
p934
aa(lp935
F0.11296431784467
aI72
aI0
aI1
aS'off'
p936
aa(lp937
F0.16556861388653
aI84
aI108
aI1
aS'on'
p938
aa(lp939
F0.043587533857135
aI84
aI0
aI1
aS'off'
p940
aa(lp941
F0.18267535984432
aI84
aI96
aI1
aS'on'
p942
aa(lp943
F0.087259937599811
aI84
aI0
aI1
aS'off'
p944
aa(lp945
F0.14786485620971
aI72
aI99
aI1
aS'on'
p946
aa(lp947
F0.13075696992018
aI72
aI0
aI1
aS'off'
p948
aa(lp949
F0.11364083621174
aI84
aI101
aI1
aS'on'
p950
aa(lp951
F0.078456021156853
aI84
aI0
aI1
aS'off'
p952
aa(lp953
F0.18398649262144
aI72
aI110
aI1
aS'on'
p954
aa(lp955
F0.096345798378024
aI72
aI0
aI1
aS'off'
p956
aa(lp957
F0.14834166268429
aI84
aI105
aI1
aS'on'
p958
aa(lp959
F0.043145262509825
aI84
aI0
aI1
aS'off'
p960
aa(lp961
F0.16626190883744
aI84
aI92
aI1
aS'on'
p962
aa(lp963
F0.096663038064435
aI84
aI0
aI1
aS'off'
p964
aa(lp965
F0.1734074223441
aI72
aI105
aI1
aS'on'
p966
aa(lp967
F0.12196824793409
aI72
aI0
aI1
aS'off'
p968
aa(lp969
F0.15804446602579
aI96
aI112
aI1
aS'on'
p970
aa(lp971
F0.095691696586073
aI96
aI0
aI1
aS'off'
p972
aa(lp973
F0.14820330378188
aI72
aI108
aI1
aS'on'
p974
aa(lp975
F0.1129788854505
aI72
aI0
aI1
aS'off'
p976
aa(lp977
F0.14003545551259
aI84
aI116
aI1
aS'on'
p978
aa(lp979
F0.078147947491743
aI84
aI0
aI1
aS'off'
p980
aa(lp981
F0.156675946424
aI72
aI103
aI1
aS'on'
p982
aa(lp983
F0.086207640715656
aI72
aI0
aI1
aS'off'
p984
aa(lp985
F0.16472025013354
aI96
aI105
aI1
aS'on'
p986
aa(lp987
F0.070016346518969
aI96
aI0
aI1
aS'off'
p988
aa(lp989
F0.20034971556379
aI96
aI67
aI1
aS'on'
p990
aa(lp991
F0.043835543245223
aI96
aI0
aI1
aS'off'
p992
aa(lp993
F0.20972401925246
aI72
aI104
aI1
aS'on'
p994
aa(lp995
F0.11316751075719
aI72
aI0
aI1
aS'off'
p996
aa(lp997
F0.11317528137079
aI84
aI115
aI1
aS'on'
p998
aa(lp999
F0.069711367093078
aI84
aI0
aI1
aS'off'
p1000
aa(lp1001
F0.13039815637694
aI72
aI111
aI1
aS'on'
p1002
aa(lp1003
F0.12182083637708
aI72
aI0
aI1
aS'off'
p1004
aa(lp1005
F0.1398308888638
aI96
aI101
aI1
aS'on'
p1006
aa(lp1007
F0.043477096474817
aI96
aI0
aI1
aS'off'
p1008
aa(lp1009
F0.19233733621513
aI96
aI83
aI1
aS'on'
p1010
aa(lp1011
F0.11291471996901
aI96
aI0
aI1
aS'off'
p1012
aa(lp1013
F0.14807627987011
aI72
aI105
aI1
aS'on'
p1014
aa(lp1015
F0.11395434480255
aI72
aI0
aI1
aS'off'
p1016
aa(lp1017
F0.18297819030522
aI84
aI116
aI1
aS'on'
p1018
aa(lp1019
F0.069840046489844
aI84
aI0
aI1
aS'off'
p1020
aa(lp1021
F0.20858391329057
aI72
aI105
aI1
aS'on'
p1022
aa(lp1023
F0.087579939761781
aI72
aI0
aI1
aS'off'
p1024
aa(lp1025
F0.11489173632708
aI94
aI114
aI1
aS'on'
p1026
aa(lp1027
F0.15638466434848
aI96
aI53
aI1
aS'on'
p1028
aa(lp1029
F0.061686028942859
aI94
aI0
aI1
aS'off'
p1030
aa(lp1031
F0.19117091086628
aI96
aI0
aI1
aS'off'
p1032
aa(lp1033
F0.10429320701223
aI72
aI120
aI1
aS'on'
p1034
aa(lp1035
F0.13121401893295
aI72
aI0
aI1
aS'off'
p1036
aa(lp1037
F0.18276321893791
aI72
aI118
aI1
aS'on'
p1038
aa(lp1039
F0.096012567337311
aI72
aI0
aI1
aS'off'
p1040
aa(lp1041
F0.087364608290954
aI84
aI114
aI1
aS'on'
p1042
aa(lp1043
F0.12123410933873
aI84
aI0
aI1
aS'off'
p1044
aa(lp1045
F0.15703129228223
aI72
aI105
aI1
aS'on'
p1046
aa(lp1047
F0.10423054363764
aI72
aI0
aI1
aS'off'
p1048
aa(lp1049
F0.16562470366716
aI96
aI109
aI1
aS'on'
p1050
aa(lp1051
F0.095467360806651
aI96
aI0
aI1
aS'off'
p1052
aa(lp1053
F0.17396161317356
aI96
aI91
aI1
aS'on'
p1054
aa(lp1055
F0.087350894269548
aI96
aI0
aI1
aS'off'
p1056
aa(lp1057
F0.10508160818335
aI72
aI101
aI1
aS'on'
p1058
aa(lp1059
F0.094899147530668
aI72
aI0
aI1
aS'off'
p1060
aa(lp1061
F0.15644855141363
aI84
aI106
aI1
aS'on'
p1062
aa(lp1063
F0.043701597302061
aI84
aI0
aI1
aS'off'
p1064
aa(lp1065
F0.16523172343841
aI72
aI112
aI1
aS'on'
p1066
aa(lp1067
F0.09597961934287
aI72
aI0
aI1
aS'off'
p1068
aa(lp1069
F0.14818813600141
aI96
aI100
aI1
aS'on'
p1070
aa(lp1071
F0.078181282266996
aI96
aI0
aI1
aS'off'
p1072
aa(lp1073
F0.19177747538743
aI96
aI97
aI1
aS'on'
p1074
aa(lp1075
F0.096480174445787
aI96
aI0
aI1
aS'off'
p1076
aa(lp1077
F0.14844150862791
aI72
aI101
aI1
aS'on'
p1078
aa(lp1079
F0.10414237778605
aI72
aI0
aI1
aS'off'
p1080
aa(lp1081
F0.1910643346182
aI84
aI112
aI1
aS'on'
p1082
aa(lp1083
F0.043136003127074
aI84
aI0
aI1
aS'off'
p1084
aa(lp1085
F0.16637359491961
aI72
aI112
aI1
aS'on'
p1086
aa(lp1087
F0.1048125009429
aI72
aI0
aI1
aS'off'
p1088
aa(lp1089
F0.17431005534308
aI84
aI110
aI1
aS'on'
p1090
aa(lp1091
F0.043702562585167
aI84
aI0
aI1
aS'off'
p1092
aa(lp1093
F0.16594958726091
aI72
aI113
aI1
aS'on'
p1094
aa(lp1095
F0.12218422626211
aI72
aI0
aI1
aS'off'
p1096
aa(lp1097
F0.13878015243881
aI84
aI110
aI1
aS'on'
p1098
aa(lp1099
F0.043788146012957
aI84
aI0
aI1
aS'off'
p1100
aa(lp1101
F0.19243515489597
aI84
aI86
aI1
aS'on'
p1102
aa(lp1103
F0.078260772241265
aI84
aI0
aI1
aS'off'
p1104
aa(lp1105
F0.16617908288572
aI72
aI114
aI1
aS'on'
p1106
aa(lp1107
F0.11288215375316
aI72
aI0
aI1
aS'off'
p1108
aa(lp1109
F0.10449945582059
aI89
aI118
aI1
aS'on'
p1110
aa(lp1111
F0.096738715254105
aI89
aI0
aI1
aS'off'
p1112
aa(lp1113
F0.18313376425431
aI72
aI112
aI1
aS'on'
p1114
aa(lp1115
F0.1053727485496
aI72
aI0
aI1
aS'off'
p1116
aa(lp1117
F0.13907895671855
aI84
aI102
aI1
aS'on'
p1118
aa(lp1119
F0.043626490280985
aI84
aI0
aI1
aS'off'
p1120
aa(lp1121
F0.22603536698534
aI84
aI71
aI1
aS'on'
p1122
aa(lp1123
F0.043391027905272
aI84
aI0
aI1
aS'off'
p1124
aa(lp1125
F0.22669705767112
aI84
aI112
aI1
aS'on'
p1126
aa(lp1127
F0.095698500246726
aI84
aI0
aI1
aS'off'
p1128
aa(lp1129
F0.1304083860432
aI72
aI111
aI1
aS'on'
p1130
aa(lp1131
F0.13020421617784
aI72
aI0
aI1
aS'off'
p1132
aa(lp1133
F0.09668838716334
aI91
aI117
aI1
aS'on'
p1134
aa(lp1135
F0.12221292634422
aI91
aI0
aI1
aS'off'
p1136
aa(lp1137
F0.14058639538962
aI72
aI107
aI1
aS'on'
p1138
aa(lp1139
F0.12065960588643
aI72
aI0
aI1
aS'off'
p1140
aa(lp1141
F0.13053436965038
aI92
aI112
aI1
aS'on'
p1142
aa(lp1143
F0.11282573387689
aI92
aI0
aI1
aS'off'
p1144
aa(lp1145
F0.16588307109123
aI72
aI115
aI1
aS'on'
p1146
aa(lp1147
F0.12286090800808
aI72
aI0
aI1
aS'off'
p1148
aa(lp1149
F0.13868280556198
aI94
aI112
aI1
aS'on'
p1150
aa(lp1151
F0.095839158156195
aI94
aI0
aI1
aS'off'
p1152
aa(lp1153
F0.13981470078397
aI72
aI114
aI1
aS'on'
p1154
aa(lp1155
F0.11277172137306
aI72
aI0
aI1
aS'off'
p1156
aa(lp1157
F0.11297438413112
aI96
aI116
aI1
aS'on'
p1158
aa(lp1159
F0.12158217639808
aI96
aI0
aI1
aS'off'
p1160
aa(lp1161
F0.21216881537475
aI0
aI0
aI0
aS'timeAfterLastHit'
p1162
aaaa(lp1163
(lp1164
(lp1165
F0.030339297358296
aI24
aI105
aI2
aS'on'
p1166
aa(lp1167
F2.0539449804892
aI34
aI120
aI2
aS'on'
p1168
aa(lp1169
F0.027306761989166
aI24
aI0
aI2
aS'off'
p1170
aa(lp1171
F1.8519313689576
aI36
aI113
aI2
aS'on'
p1172
aa(lp1173
F0.14730850137857
aI34
aI0
aI2
aS'off'
p1174
aa(lp1175
F1.8927338059802
aI38
aI118
aI2
aS'on'
p1176
aa(lp1177
F0.053019023220259
aI36
aI0
aI2
aS'off'
p1178
aa(lp1179
F1.9488366703117
aI46
aI112
aI2
aS'on'
p1180
aa(lp1181
F0.1474538378643
aI38
aI0
aI2
aS'off'
p1182
aa(lp1183
F0.81942032161169
aI43
aI121
aI2
aS'on'
p1184
aa(lp1185
F0.121078133634
aI46
aI0
aI2
aS'off'
p1186
aa(lp1187
F0.96537859653836
aI43
aI0
aI2
aS'off'
p1188
aa(lp1189
F0.027136981654621
aI48
aI99
aI2
aS'on'
p1190
aa(lp1191
F0.9041117190136
aI48
aI0
aI2
aS'off'
p1192
aa(lp1193
F0.0099999999983993
aI0
aI0
aI0
aS'timeAfterLastHit'
p1194
aaa(lp1195
(lp1196
F0.017301133480032
aI43
aI117
aI2
aS'on'
p1197
aa(lp1198
F0.11418611804038
aI44
aI84
aI2
aS'on'
p1199
aa(lp1200
F0.16616025749499
aI43
aI0
aI2
aS'off'
p1201
aa(lp1202
F0.33124642700204
aI44
aI0
aI2
aS'off'
p1203
aa(lp1204
F0.1247194103571
aI43
aI118
aI2
aS'on'
p1205
aa(lp1206
F0.46534784044161
aI43
aI0
aI2
aS'off'
p1207
aa(lp1208
F0.19769004146292
aI41
aI98
aI2
aS'on'
p1209
aa(lp1210
F0.23766260718639
aI41
aI0
aI2
aS'off'
p1211
aa(lp1212
F0.31210769977406
aI43
aI120
aI2
aS'on'
p1213
aa(lp1214
F0.71724958814411
aI43
aI0
aI2
aS'off'
p1215
aa(lp1216
F0.2276218558427
aI41
aI112
aI2
aS'on'
p1217
aa(lp1218
F0.2585374709297
aI41
aI0
aI2
aS'off'
p1219
aa(lp1220
F0.30131171100675
aI39
aI118
aI2
aS'on'
p1221
aa(lp1222
F0.86218141110021
aI39
aI0
aI2
aS'off'
p1223
aa(lp1224
F1.6576371580095
aI39
aI108
aI2
aS'on'
p1225
aa(lp1226
F0.20763112238183
aI39
aI0
aI2
aS'off'
p1227
aa(lp1228
F0.00024268660126836
aI36
aI118
aI2
aS'on'
p1229
aa(lp1230
F0.18643955998959
aI36
aI0
aI2
aS'off'
p1231
aa(lp1232
F0.3743084883954
aI39
aI99
aI2
aS'on'
p1233
aa(lp1234
F0.19646091631785
aI39
aI0
aI2
aS'off'
p1235
aa(lp1236
F0.55881660114756
aI41
aI105
aI2
aS'on'
p1237
aa(lp1238
F0.22725833664663
aI41
aI0
aI2
aS'off'
p1239
aa(lp1240
F0.36269047742553
aI39
aI114
aI2
aS'on'
p1241
aa(lp1242
F0.67520143842557
aI39
aI0
aI2
aS'off'
p1243
aa(lp1244
F0.25921885695698
aI36
aI114
aI2
aS'on'
p1245
aa(lp1246
F0.28997999220337
aI36
aI0
aI2
aS'off'
p1247
aa(lp1248
F0.25009899697579
aI34
aI105
aI2
aS'on'
p1249
aa(lp1250
F0.58025869223911
aI34
aI0
aI2
aS'off'
p1251
aa(lp1252
F0.35223694882188
aI36
aI97
aI2
aS'on'
p1253
aa(lp1254
F0.23957322347542
aI36
aI0
aI2
aS'off'
p1255
aa(lp1256
F0.2904232751107
aI39
aI106
aI2
aS'on'
p1257
aa(lp1258
F0.60298971985867
aI39
aI0
aI2
aS'off'
p1259
aa(lp1260
F0.26933072864722
aI36
aI100
aI2
aS'on'
p1261
aa(lp1262
F0.30022688525332
aI36
aI0
aI2
aS'off'
p1263
aa(lp1264
F0.25953763612142
aI39
aI114
aI2
aS'on'
p1265
aa(lp1266
F0.72423770010118
aI39
aI0
aI2
aS'off'
p1267
aa(lp1268
F0.17648750727221
aI36
aI83
aI2
aS'on'
p1269
aa(lp1270
F0.20647894461581
aI36
aI0
aI2
aS'off'
p1271
aa(lp1272
F0.35200159460146
aI39
aI111
aI2
aS'on'
p1273
aa(lp1274
F0.10413530127971
aI41
aI17
aI2
aS'on'
p1275
aa(lp1276
F0.15559372848111
aI39
aI0
aI2
aS'off'
p1277
aa(lp1278
F0.63301525268071
aI41
aI0
aI2
aS'off'
p1279
aa(lp1280
F0.07315506721261
aI39
aI101
aI2
aS'on'
p1281
aa(lp1282
F0.36338148460254
aI39
aI0
aI2
aS'off'
p1283
aa(lp1284
F0.73762810588505
aI0
aI0
aI0
aS'timeAfterLastHit'
p1285
aaa(lp1286
(lp1287
F0.0071493820878459
aI24
aI117
aI2
aS'on'
p1288
aa(lp1289
F3.9762220717489
aI24
aI0
aI2
aS'off'
p1290
aa(lp1291
F0.060771937583922
aI22
aI16
aI2
aS'on'
p1292
aa(lp1293
F3.9572003609626
aI22
aI0
aI2
aS'off'
p1294
aa(lp1295
F0.0084180599690171
aI15
aI114
aI2
aS'on'
p1296
aa(lp1297
F4.0259370489316
aI17
aI111
aI2
aS'on'
p1298
aa(lp1299
F0.088207320386118
aI15
aI0
aI2
aS'off'
p1300
aa(lp1301
F3.86609381833
aI17
aI0
aI2
aS'off'
p1302
aa(lp1303
F0.0099999999999909
aI0
aI0
aI0
aS'timeAfterLastHit'
p1304
aaaI0
aa(lp1305
(lp1306
(lp1307
F0.0
aI36
aI110
aI3
aS'on'
p1308
aa(lp1309
F0.2050815399316
aI36
aI0
aI3
aS'off'
p1310
aa(lp1311
F0.7949184600684
aI43
aI107
aI3
aS'on'
p1312
aa(lp1313
F0.17557074188107
aI43
aI0
aI3
aS'off'
p1314
aa(lp1315
F0.82442925811893
aI43
aI101
aI3
aS'on'
p1316
aa(lp1317
F0.14770521232003
aI43
aI0
aI3
aS'off'
p1318
aa(lp1319
F0.85229478767997
aI43
aI110
aI3
aS'on'
p1320
aa(lp1321
F0.18721388546737
aI43
aI0
aI3
aS'off'
p1322
aa(lp1323
F0.81278611453263
aI43
aI110
aI3
aS'on'
p1324
aa(lp1325
F0.18820246556743
aI43
aI0
aI3
aS'off'
p1326
aa(lp1327
F0.81179753443257
aI43
aI112
aI3
aS'on'
p1328
aa(lp1329
F0.21498280458945
aI43
aI0
aI3
aS'off'
p1330
aa(lp1331
F0.78501719541055
aI38
aI114
aI3
aS'on'
p1332
aa(lp1333
F0.53796533505783
aI38
aI0
aI3
aS'off'
p1334
aa(lp1335
F0.46203466494217
aI43
aI111
aI3
aS'on'
p1336
aa(lp1337
F0.26794219363865
aI43
aI0
aI3
aS'off'
p1338
aa(lp1339
F0.73205780636135
aI43
aI114
aI3
aS'on'
p1340
aa(lp1341
F0.22826978055355
aI43
aI0
aI3
aS'off'
p1342
aa(lp1343
F0.77173021944645
aI43
aI115
aI3
aS'on'
p1344
aa(lp1345
F0.24092401844882
aI43
aI0
aI3
aS'off'
p1346
aa(lp1347
F0.75907598155118
aI43
aI118
aI3
aS'on'
p1348
aa(lp1349
F0.2421919528274
aI43
aI0
aI3
aS'off'
p1350
aa(lp1351
F0.7578080471726
aI43
aI116
aI3
aS'on'
p1352
aa(lp1353
F0.18765678979798
aI43
aI0
aI3
aS'off'
p1354
aa(lp1355
F0.81234321020202
aI0
aI0
aI0
aS'timeAfterLastHit'
p1356
aaa(lp1357
(lp1358
F0.0
aI36
aI103
aI3
aS'on'
p1359
aa(lp1360
F0.31994529587701
aI36
aI0
aI3
aS'off'
p1361
aa(lp1362
F0.68005470412299
aI43
aI94
aI3
aS'on'
p1363
aa(lp1364
F0.25582788107477
aI43
aI0
aI3
aS'off'
p1365
aa(lp1366
F0.74417211892523
aI43
aI101
aI3
aS'on'
p1367
aa(lp1368
F0.28064442883169
aI43
aI0
aI3
aS'off'
p1369
aa(lp1370
F0.71935557116831
aI43
aI114
aI3
aS'on'
p1371
aa(lp1372
F0.2568338536189
aI43
aI0
aI3
aS'off'
p1373
aa(lp1374
F0.7431661463811
aI43
aI112
aI3
aS'on'
p1375
aa(lp1376
F0.25511594297541
aI43
aI0
aI3
aS'off'
p1377
aa(lp1378
F0.74488405702459
aI43
aI114
aI3
aS'on'
p1379
aa(lp1380
F0.22833198330636
aI43
aI0
aI3
aS'off'
p1381
aa(lp1382
F0.77166801669364
aI43
aI116
aI3
aS'on'
p1383
aa(lp1384
F0.33646626070868
aI43
aI0
aI3
aS'off'
p1385
aa(lp1386
F0.66353373929132
aI38
aI97
aI3
aS'on'
p1387
aa(lp1388
F0.45688833377017
aI38
aI0
aI3
aS'off'
p1389
aa(lp1390
F0.54311166622983
aI43
aI116
aI3
aS'on'
p1391
aa(lp1392
F0.26828146691605
aI43
aI0
aI3
aS'off'
p1393
aa(lp1394
F0.73171853308395
aI43
aI117
aI3
aS'on'
p1395
aa(lp1396
F0.268498428557
aI43
aI0
aI3
aS'off'
p1397
aa(lp1398
F0.731501571443
aI43
aI116
aI3
aS'on'
p1399
aa(lp1400
F0.29442816463325
aI43
aI0
aI3
aS'off'
p1401
aa(lp1402
F0.70557183536675
aI43
aI116
aI3
aS'on'
p1403
aa(lp1404
F0.29433915729669
aI43
aI0
aI3
aS'off'
p1405
aa(lp1406
F0.70566084270331
aI43
aI116
aI3
aS'on'
p1407
aa(lp1408
F0.24231362296132
aI43
aI0
aI3
aS'off'
p1409
aa(lp1410
F0.75768637703868
aI43
aI117
aI3
aS'on'
p1411
aa(lp1412
F0.30704156697766
aI43
aI0
aI3
aS'off'
p1413
aa(lp1414
F0.69295843302234
aI0
aI0
aI0
aS'timeAfterLastHit'
p1415
aaa(lp1416
(lp1417
F0.0
aI36
aI117
aI3
aS'on'
p1418
aa(lp1419
F0.24175878395545
aI36
aI0
aI3
aS'off'
p1420
aa(lp1421
F0.75824121604455
aI43
aI113
aI3
aS'on'
p1422
aa(lp1423
F0.19942015371907
aI43
aI0
aI3
aS'off'
p1424
aa(lp1425
F0.80057984628093
aI43
aI114
aI3
aS'on'
p1426
aa(lp1427
F0.17272292789949
aI43
aI0
aI3
aS'off'
p1428
aa(lp1429
F0.82727707210051
aI37
aI120
aI3
aS'on'
p1430
aa(lp1431
F0.26687723868872
aI37
aI0
aI3
aS'off'
p1432
aa(lp1433
F0.73312276131128
aI43
aI118
aI3
aS'on'
p1434
aa(lp1435
F0.16011765725489
aI43
aI0
aI3
aS'off'
p1436
aa(lp1437
F0.83988234274511
aI43
aI118
aI3
aS'on'
p1438
aa(lp1439
F0.1472436838576
aI43
aI0
aI3
aS'off'
p1440
aa(lp1441
F0.8527563161424
aI38
aI120
aI3
aS'on'
p1442
aa(lp1443
F0.28260598509951
aI38
aI0
aI3
aS'off'
p1444
aa(lp1445
F0.71739401490049
aI43
aI108
aI3
aS'on'
p1446
aa(lp1447
F0.1749174859624
aI43
aI0
aI3
aS'off'
p1448
aa(lp1449
F0.8250825140376
aI43
aI114
aI3
aS'on'
p1450
aa(lp1451
F0.16047269868977
aI43
aI0
aI3
aS'off'
p1452
aa(lp1453
F0.83952730131023
aI37
aI119
aI3
aS'on'
p1454
aa(lp1455
F0.29401389189024
aI37
aI0
aI3
aS'off'
p1456
aa(lp1457
F0.70598610810976
aI43
aI107
aI3
aS'on'
p1458
aa(lp1459
F0.14750173765151
aI43
aI0
aI3
aS'off'
p1460
aa(lp1461
F0.85249826234849
aI43
aI105
aI3
aS'on'
p1462
aa(lp1463
F0.14734754585243
aI43
aI0
aI3
aS'off'
p1464
aa(lp1465
F0.85265245414757
aI0
aI0
aI0
aS'timeAfterLastHit'
p1466
aaa(lp1467
(lp1468
F0.0
aI41
aI116
aI3
aS'on'
p1469
aa(lp1470
F0.12755477481915
aI41
aI0
aI3
aS'off'
p1471
aa(lp1472
F0.1211643788929
aI43
aI119
aI3
aS'on'
p1473
aa(lp1474
F0.087408547841278
aI43
aI0
aI3
aS'off'
p1475
aa(lp1476
F0.16565895370968
aI43
aI72
aI3
aS'on'
p1477
aa(lp1478
F0.043689670471394
aI43
aI0
aI3
aS'off'
p1479
aa(lp1480
F0.16577260536678
aI41
aI95
aI3
aS'on'
p1481
aa(lp1482
F0.12217321803473
aI41
aI0
aI3
aS'off'
p1483
aa(lp1484
F0.16545386524058
aI43
aI118
aI3
aS'on'
p1485
aa(lp1486
F0.23405898796636
aI43
aI0
aI3
aS'off'
p1487
aa(lp1488
F0.27026381210226
aI41
aI89
aI3
aS'on'
p1489
aa(lp1490
F0.095998404849979
aI41
aI0
aI3
aS'off'
p1491
aa(lp1492
F0.13976709349163
aI43
aI107
aI3
aS'on'
p1493
aa(lp1494
F0.087389395557693
aI43
aI0
aI3
aS'off'
p1495
aa(lp1496
F0.1753407525598
aI41
aI110
aI3
aS'on'
p1497
aa(lp1498
F0.11368060120412
aI41
aI0
aI3
aS'off'
p1499
aa(lp1500
F0.41102830471164
aI41
aI105
aI3
aS'on'
p1501
aa(lp1502
F0.14707844895793
aI41
aI0
aI3
aS'off'
p1503
aa(lp1504
F0.32190844842307
aI47
aI116
aI3
aS'on'
p1505
aa(lp1506
F0.18350354601353
aI47
aI0
aI3
aS'off'
p1507
aa(lp1508
F0.32211405370936
aI41
aI101
aI3
aS'on'
p1509
aa(lp1510
F0.12186928391611
aI41
aI0
aI3
aS'off'
p1511
aa(lp1512
F0.095829053526813
aI47
aI107
aI3
aS'on'
p1513
aa(lp1514
F0.0874062871776
aI47
aI0
aI3
aS'off'
p1515
aa(lp1516
F0.19226860772869
aI41
aI112
aI3
aS'on'
p1517
aa(lp1518
F0.12199081788594
aI41
aI0
aI3
aS'off'
p1519
aa(lp1520
F0.11317305071589
aI43
aI114
aI3
aS'on'
p1521
aa(lp1522
F0.069968139048797
aI43
aI0
aI3
aS'off'
p1523
aa(lp1524
F0.41139830820293
aI41
aI97
aI3
aS'on'
p1525
aa(lp1526
F0.077629388777041
aI41
aI0
aI3
aS'off'
p1527
aa(lp1528
F0.18335670795796
aI43
aI117
aI3
aS'on'
p1529
aa(lp1530
F0.23519468430322
aI43
aI0
aI3
aS'off'
p1531
aa(lp1532
F0.27901333259342
aI41
aI98
aI3
aS'on'
p1533
aa(lp1534
F0.10484268646042
aI41
aI0
aI3
aS'off'
p1535
aa(lp1536
F0.12136663819956
aI43
aI116
aI3
aS'on'
p1537
aa(lp1538
F0.096394529333338
aI43
aI0
aI3
aS'off'
p1539
aa(lp1540
F0.17426965182949
aI41
aI104
aI3
aS'on'
p1541
aa(lp1542
F0.10464434496998
aI41
aI0
aI3
aS'off'
p1543
aa(lp1544
F0.42710783614075
aI41
aI115
aI3
aS'on'
p1545
aa(lp1546
F0.15765111402288
aI41
aI0
aI3
aS'off'
p1547
aa(lp1548
F0.29572442087056
aI47
aI113
aI3
aS'on'
p1549
aa(lp1550
F0.07803175008803
aI47
aI0
aI3
aS'off'
p1551
aa(lp1552
F0.13963082353484
aI45
aI111
aI3
aS'on'
p1553
aa(lp1554
F0.096443246951367
aI45
aI0
aI3
aS'off'
p1555
aa(lp1556
F0.17406848451083
aI47
aI99
aI3
aS'on'
p1557
aa(lp1558
F0.11289961887496
aI47
aI0
aI3
aS'off'
p1559
aa(lp1560
F0.42681932845471
aI0
aI0
aI0
aS'timeAfterLastHit'
p1561
aaaaa(lp1562
(lp1563
(dp1564
S'button'
p1565
S'50'
p1566
sS'playing'
p1567
I0
sa(dp1568
g1565
S'60'
p1569
sg1567
I0
sa(dp1570
a(dp1571
aa(lp1572
(dp1573
g1565
S'59'
p1574
sg1567
I0
sa(dp1575
g1565
S'69'
p1576
sg1567
I0
sa(dp1577
g1565
S'79'
p1578
sg1567
I0
sa(dp1579
g1565
S'89'
p1580
sg1567
I0
saa(lp1581
(dp1582
g1565
S'10'
p1583
sg1567
I0
sa(dp1584
g1565
S'20'
p1585
sg1567
I0
sa(dp1586
g1565
S'30'
p1587
sg1567
I0
sa(dp1588
aa(lp1589
(dp1590
g1565
S'19'
p1591
sg1567
I0
sa(dp1592
g1565
S'29'
p1593
sg1567
I0
sa(dp1594
g1565
S'39'
p1595
sg1567
I0
sa(dp1596
g1565
S'49'
p1597
sg1567
I0
saaa(lp1598
I60
aI60
aI36
aI36
aa(lp1599
(lp1600
I0
aI2
aI3
aI5
aI7
aI8
aI10
aa(lp1601
I0
aI2
aI3
aI5
aI7
aI8
aI10
aa(lp1602
I0
aI2
aI3
aI5
aI7
aI8
aI10
aa(lp1603
I0
aI1
aI2
aI3
aI4
aI5
aI6
aI7
aI8
aI9
aI10
aI11
aaa(lp1604
(lp1605
(lp1606
I0
aI0
aI0
aI0
aI0
aI0
aI0
aI0
aI0
aI0
aI0
aI0
aa(lp1607
I0
aI0
aI0
aI0
aI0
aI0
aI0
aI0
aI0
aI0
aI0
aI0
aa(lp1608
I0
aI0
aI0
aI0
aI0
aI0
aI0
aI0
aI0
aI0
aI0
aI0
aa(lp1609
I0
aI0
aI0
aI0
aI0
aI0
aI0
aI0
aI0
aI0
aI0
aI0
aaa(lp1610
(lp1611
I0
aI0
aI0
aI0
aI0
aI0
aI0
aI0
aI0
aI0
aI0
aI0
aa(lp1612
I0
aI0
aI0
aI0
aI0
aI0
aI0
aI0
aI0
aI0
aI0
aI0
aa(lp1613
I0
aI0
aI0
aI0
aI0
aI0
aI0
aI0
aI0
aI0
aI0
aI0
aa(lp1614
I0
aI0
aI0
aI0
aI0
aI0
aI0
aI0
aI0
aI0
aI0
aI0
aaa(lp1615
(lp1616
I0
aI0
aI0
aI0
aI0
aI0
aI0
aI0
aI0
aI0
aI0
aI0
aa(lp1617
I0
aI0
aI0
aI0
aI0
aI0
aI0
aI0
aI0
aI0
aI0
aI0
aa(lp1618
I0
aI0
aI0
aI0
aI0
aI0
aI0
aI0
aI0
aI0
aI0
aI0
aa(lp1619
I0
aI0
aI0
aI0
aI0
aI0
aI0
aI0
aI0
aI0
aI0
aI0
aaa(lp1620
(lp1621
I0
aI0
aI0
aI0
aI0
aI0
aI0
aI0
aI0
aI0
aI0
aI0
aa(lp1622
I0
aI0
aI0
aI0
aI0
aI0
aI0
aI0
aI0
aI0
aI0
aI0
aa(lp1623
I0
aI0
aI0
aI0
aI0
aI0
aI0
aI0
aI0
aI0
aI0
aI0
aa(lp1624
I0
aI0
aI0
aI0
aI0
aI0
aI0
aI0
aI0
aI0
aI0
aI0
aaaa(lp1625
(lp1626
I0
aI0
aI0
aI0
aI0
aI0
aI0
aI0
aI0
aI0
aI0
aI0
aa(lp1627
I0
aI0
aI0
aI0
aI0
aI0
aI0
aI0
aI0
aI0
aI0
aI0
aa(lp1628
I0
aI0
aI0
aI0
aI0
aI0
aI0
aI0
aI0
aI0
aI0
aI0
aa(lp1629
I0
aI0
aI0
aI0
aI0
aI0
aI0
aI0
aI0
aI0
aI0
aI0
aaaaI0
aI0
aI0
aI0
aI0
aI0
aI0
aI0
aI0
a(lp1630
(lp1631
(lp1632
(lp1633
(lp1634
F0.0
aI48
aI84
aI0
ag6
aa(lp1635
F0.25862909596617
aI48
aI0
aI0
ag8
aa(lp1636
F0.49616993517884
aI58
aI49
aI0
ag10
aa(lp1637
F0.28118328156961
aI58
aI0
aI0
ag12
aa(lp1638
F0.64372450193423
aI60
aI88
aI0
ag14
aa(lp1639
F0.22860951058192
aI60
aI0
aI0
ag16
aa(lp1640
F0.093784140133721
aI62
aI72
aI0
ag18
aa(lp1641
F0.27016576819005
aI67
aI89
aI0
ag20
aa(lp1642
F0.053392793995044
aI62
aI0
aI0
ag22
aa(lp1643
F0.30880589682056
aI67
aI0
aI0
ag24
aa(lp1644
F0.97654982700169
aI48
aI97
aI0
ag26
aa(lp1645
F0.30992633156529
aI48
aI0
aI0
ag28
aa(lp1646
F0.60589686323965
aI58
aI98
aI0
ag30
aa(lp1647
F0.2279304302956
aI58
aI0
aI0
ag32
aa(lp1648
F0.62917634790756
aI60
aI109
aI0
ag34
aa(lp1649
F0.22881497134676
aI60
aI0
aI0
ag36
aa(lp1650
F0.040816090787303
aI62
aI89
aI0
ag38
aa(lp1651
F0.18750500492024
aI67
aI47
aI0
ag40
aa(lp1652
F0.12038019827378
aI62
aI0
aI0
ag42
aa(lp1653
F0.32324579070428
aI67
aI0
aI0
ag44
aa(lp1654
F5.5394774968518
aI48
aI90
aI0
ag46
aa(lp1655
F0.42949343432338
aI48
aI0
aI0
ag48
aa(lp1656
F0.5748116195482
aI58
aI95
aI0
ag50
aa(lp1657
F0.14731660998405
aI58
aI0
aI0
ag52
aa(lp1658
F0.71305608600323
aI60
aI104
aI0
ag54
aa(lp1659
F0.22876197545338
aI60
aI0
aI0
ag56
aa(lp1660
F0.093647748776675
aI62
aI84
aI0
ag58
aa(lp1661
F0.33470228241003
aI67
aI92
aI0
ag60
aa(lp1662
F0.053181916373433
aI62
aI0
aI0
ag62
aa(lp1663
F0.24112953053464
aI67
aI0
aI0
ag64
aa(lp1664
F1.2487128421535
aI48
aI88
aI0
ag66
aa(lp1665
F0.29491793208308
aI48
aI0
aI0
ag68
aa(lp1666
F0.45479066840653
aI58
aI95
aI0
ag70
aa(lp1667
F0.28186602099231
aI58
aI0
aI0
ag72
aa(lp1668
F0.65686744238246
aI60
aI96
aI0
ag74
aa(lp1669
F0.21404657887888
aI60
aI0
aI0
ag76
aa(lp1670
F0.17330058390598
aI62
aI104
aI0
ag78
aa(lp1671
F0.20146616264901
aI67
aI84
aI0
ag80
aa(lp1672
F0.13375997927778
aI62
aI0
aI0
ag82
aa(lp1673
F0.2684133882758
aI67
aI0
aI0
ag84
aa(lp1674
F2.4410242821768
aI72
aI116
aI0
ag86
aa(lp1675
F0.33535888697679
aI72
aI0
aI0
ag88
aa(lp1676
F2.264611800364
aI72
aI101
aI0
ag90
aa(lp1677
F0.16174342232625
aI72
aI0
aI0
ag92
aa(lp1678
F0.22883452847964
aI0
aI0
aI0
ag94
aaa(lp1679
(lp1680
F0.0
aI48
aI100
aI0
ag97
aa(lp1681
F0.095574614399084
aI48
aI0
aI0
ag99
aa(lp1682
F0.65552183475302
aI58
aI110
aI0
ag101
aa(lp1683
F0.17576803758811
aI58
aI0
aI0
ag103
aa(lp1684
F0.67147185627255
aI60
aI101
aI0
ag105
aa(lp1685
F0.21362398455221
aI60
aI0
aI0
ag107
aa(lp1686
F0.16056796453677
aI62
aI97
aI0
ag109
aa(lp1687
F0.21470920844831
aI67
aI85
aI0
ag111
aa(lp1688
F0.027305748411436
aI62
aI0
aI0
ag113
aa(lp1689
F0.30668471393665
aI67
aI0
aI0
ag115
aa(lp1690
F0.80276349659061
aI48
aI99
aI0
ag117
aa(lp1691
F0.23060173072008
aI48
aI0
aI0
ag119
aa(lp1692
F0.73640469909651
aI58
aI109
aI0
ag121
aa(lp1693
F0.24048797564046
aI58
aI0
aI0
ag123
aa(lp1694
F0.69849498130361
aI60
aI106
aI0
ag125
aa(lp1695
F0.2016196257
aI60
aI0
aI0
ag127
aa(lp1696
F0.16065283546004
aI62
aI96
aI0
ag129
aa(lp1697
F0.22774412739363
aI67
aI90
aI0
ag131
aa(lp1698
F0.080899407438665
aI62
aI0
aI0
ag133
aa(lp1699
F0.30932710564412
aI67
aI0
aI0
ag135
aa(lp1700
F7.5673473303677
aI48
aI118
aI0
ag137
aa(lp1701
F0.2681321659411
aI48
aI0
aI0
ag139
aa(lp1702
F0.76526349429969
aI58
aI104
aI0
ag141
aa(lp1703
F0.17350685039855
aI58
aI0
aI0
ag143
aa(lp1704
F0.64564323142167
aI60
aI108
aI0
ag145
aa(lp1705
F0.22805421739122
aI60
aI0
aI0
ag147
aa(lp1706
F0.14779350887238
aI62
aI92
aI0
ag149
aa(lp1707
F0.28118538826675
aI67
aI44
aI0
ag151
aa(lp1708
F0.067658337469766
aI62
aI0
aI0
ag153
aa(lp1709
F0.29514997675687
aI67
aI0
aI0
ag155
aa(lp1710
F0.91034022270969
aI48
aI64
aI0
ag157
aa(lp1711
F0.29394617990602
aI48
aI0
aI0
ag159
aa(lp1712
F0.64514326149947
aI58
aI103
aI0
ag161
aa(lp1713
F0.18828573529709
aI58
aI0
aI0
ag163
aa(lp1714
F0.67100653780653
aI60
aI114
aI0
ag165
aa(lp1715
F0.21467481872514
aI60
aI0
aI0
ag167
aa(lp1716
F0.20169500236989
aI62
aI97
aI0
ag169
aa(lp1717
F0.22921281390018
aI67
aI16
aI0
ag171
aa(lp1718
F0.14642287490415
aI62
aI0
aI0
ag173
aa(lp1719
F0.24199951971741
aI67
aI0
aI0
ag175
aa(lp1720
F1.3940160931729
aI72
aI100
aI0
ag177
aa(lp1721
F5.5428706530206
aI72
aI0
aI0
ag179
aa(lp1722
F0.6704278378993
aI0
aI0
aI0
ag181
aaaI0
aI0
aa(lp1723
(lp1724
(lp1725
F1.7821690192941
aI67
aI116
aI1
ag185
aa(lp1726
F0.16092430180288
aI67
aI0
aI1
ag187
aa(lp1727
F0.20238632256223
aI65
aI110
aI1
ag189
aa(lp1728
F0.18734171403048
aI65
aI0
aI1
ag191
aa(lp1729
F0.24088287240011
aI67
aI112
aI1
ag193
aa(lp1730
F0.2009220085456
aI67
aI0
aI1
ag195
aa(lp1731
F0.17546137834142
aI65
aI112
aI1
ag197
aa(lp1732
F0.20085946448671
aI65
aI0
aI1
ag199
aa(lp1733
F1.4094902499201
aI67
aI120
aI1
ag201
aa(lp1734
F0.24207072918944
aI67
aI0
aI1
ag203
aa(lp1735
F0.20090696396073
aI65
aI115
aI1
ag205
aa(lp1736
F0.20001307238999
aI65
aI0
aI1
ag207
aa(lp1737
F0.2406180366379
aI67
aI109
aI1
ag209
aa(lp1738
F0.22894725964579
aI67
aI0
aI1
ag211
aa(lp1739
F0.22783162849373
aI60
aI118
aI1
ag213
aa(lp1740
F0.18736541374528
aI60
aI0
aI1
ag215
aa(lp1741
F1.2746576792124
aI67
aI114
aI1
ag217
aa(lp1742
F0.21379937932943
aI67
aI0
aI1
ag219
aa(lp1743
F0.31021807456273
aI65
aI103
aI1
ag221
aa(lp1744
F0.18822593176446
aI65
aI0
aI1
ag223
aa(lp1745
F0.37556631404732
aI67
aI114
aI1
ag225
aa(lp1746
F0.25561666986323
aI67
aI0
aI1
ag227
aa(lp1747
F0.18844537218683
aI60
aI102
aI1
ag229
aa(lp1748
F0.14832159974321
aI60
aI0
aI1
ag231
aa(lp1749
F0.88594445768103
aI62
aI112
aI1
ag233
aa(lp1750
F0.21503783276421
aI62
aI0
aI1
ag235
aa(lp1751
F0.91150054871105
aI60
aI113
aI1
ag237
aa(lp1752
F0.17431103157287
aI60
aI0
aI1
ag239
aa(lp1753
F0.32192692093668
aI62
aI118
aI1
ag241
aa(lp1754
F0.21439087898761
aI62
aI0
aI1
ag243
aa(lp1755
F0.76648954363191
aI64
aI115
aI1
ag245
aa(lp1756
F0.22663303550507
aI64
aI0
aI1
ag247
aa(lp1757
F0.69749859281001
aI65
aI114
aI1
ag249
aa(lp1758
F0.17439792965888
aI65
aI0
aI1
ag251
aa(lp1759
F0.80610273567436
aI67
aI114
aI1
ag253
aa(lp1760
F0.18872004091099
aI67
aI0
aI1
ag255
aa(lp1761
F0.80620062911476
aI70
aI114
aI1
ag257
aa(lp1762
F0.20097482993151
aI70
aI0
aI1
ag259
aa(lp1763
F0.33501163338951
aI72
aI110
aI1
ag261
aa(lp1764
F0.20015697703639
aI72
aI0
aI1
ag263
aa(lp1765
F0.22819879175222
aI70
aI116
aI1
ag265
aa(lp1766
F0.21441403213248
aI70
aI0
aI1
ag267
aa(lp1767
F0.26915201805241
aI67
aI102
aI1
ag269
aa(lp1768
F0.18816994903318
aI67
aI0
aI1
ag271
aa(lp1769
F0.3488484446425
aI65
aI114
aI1
ag273
aa(lp1770
F0.18657366232947
aI65
aI0
aI1
ag275
aa(lp1771
F0.80179145446164
aI64
aI120
aI1
ag277
aa(lp1772
F0.18735155470495
aI64
aI0
aI1
ag279
aa(lp1773
F0.88688506356266
aI65
aI112
aI1
ag281
aa(lp1774
F0.18887712205469
aI65
aI0
aI1
ag283
aa(lp1775
F0.33417530517909
aI64
aI120
aI1
ag285
aa(lp1776
F0.20110807791934
aI64
aI0
aI1
ag287
aa(lp1777
F0.8996904551168
aI62
aI118
aI1
ag289
aa(lp1778
F0.18763956413022
aI62
aI0
aI1
ag291
aa(lp1779
F0.75102040088677
aI60
aI114
aI1
ag293
aa(lp1780
F0.18827387005149
aI60
aI0
aI1
ag295
aa(lp1781
F0.85770938098722
aI58
aI119
aI1
ag297
aa(lp1782
F0.18770534136274
aI58
aI0
aI1
ag299
aa(lp1783
F0.30830865714233
aI60
aI118
aI1
ag301
aa(lp1784
F0.20111571438611
aI60
aI0
aI1
ag303
aa(lp1785
F0.68262197099102
aI62
aI114
aI1
ag305
aa(lp1786
F0.18819586835161
aI62
aI0
aI1
ag307
aa(lp1787
F0.85886763880262
aI65
aI110
aI1
ag309
aa(lp1788
F0.17430756744579
aI65
aI0
aI1
ag311
aa(lp1789
F0.80542937245627
aI67
aI112
aI1
ag313
aa(lp1790
F0.22863196834805
aI67
aI0
aI1
ag315
aa(lp1791
F0.75179272242531
aI64
aI114
aI1
ag317
aa(lp1792
F0.20113423845032
aI64
aI0
aI1
ag319
aa(lp1793
F0.32072828433593
aI65
aI110
aI1
ag321
aa(lp1794
F0.20206645090366
aI65
aI0
aI1
ag323
aa(lp1795
F0.25567521349876
aI67
aI112
aI1
ag325
aa(lp1796
F0.2154939546308
aI67
aI0
aI1
ag327
aa(lp1797
F0.22904595882574
aI70
aI115
aI1
ag329
aa(lp1798
F0.26892096898519
aI70
aI0
aI1
ag331
aa(lp1799
F0.33564125631528
aI72
aI120
aI1
ag333
aa(lp1800
F0.18719752199831
aI72
aI0
aI1
ag335
aa(lp1801
F0.80517793899344
aI64
aI114
aI1
ag337
aa(lp1802
F0.2020166599541
aI64
aI0
aI1
ag339
aa(lp1803
F0.32239881352871
aI65
aI109
aI1
ag341
aa(lp1804
F0.18851382317371
aI65
aI0
aI1
ag343
aa(lp1805
F0.29474505201506
aI67
aI106
aI1
ag345
aa(lp1806
F0.22838045273966
aI67
aI0
aI1
ag347
aa(lp1807
F0.25416042597499
aI70
aI107
aI1
ag349
aa(lp1808
F0.21500692254631
aI70
aI0
aI1
ag351
aa(lp1809
F0.3497731207317
aI72
aI109
aI1
ag353
aa(lp1810
F0.20052528730594
aI72
aI0
aI1
ag355
aa(lp1811
F0.80263356391515
aI67
aI99
aI1
ag357
aa(lp1812
F0.22656686825212
aI67
aI0
aI1
ag359
aa(lp1813
F0.30968109244714
aI65
aI114
aI1
ag361
aa(lp1814
F0.20155165711185
aI65
aI0
aI1
ag363
aa(lp1815
F0.76353243796621
aI65
aI113
aI1
ag365
aa(lp1816
F0.20209806675848
aI65
aI0
aI1
ag367
aa(lp1817
F0.28062415732711
aI64
aI115
aI1
ag369
aa(lp1818
F0.21479866483423
aI64
aI0
aI1
ag371
aa(lp1819
F0.77906498435186
aI62
aI87
aI1
ag373
aa(lp1820
F0.22817693701654
aI62
aI0
aI1
ag375
aa(lp1821
F0.29623958085722
aI60
aI116
aI1
ag377
aa(lp1822
F0.20138157397741
aI60
aI0
aI1
ag379
aa(lp1823
F0.26954481327266
aI58
aI114
aI1
ag381
aa(lp1824
F0.00035065867996309
aI48
aI9
aI1
ag383
aa(lp1825
F0.066227219984285
aI48
aI0
aI1
ag385
aa(lp1826
F0.13312422357558
aI58
aI0
aI1
ag387
aa(lp1827
F0.69858825847041
aI60
aI110
aI1
ag389
aa(lp1828
F0.24152819935989
aI60
aI0
aI1
ag391
aa(lp1829
F0.72478798801603
aI62
aI97
aI1
ag393
aa(lp1830
F0.24127357374527
aI62
aI0
aI1
ag395
aa(lp1831
F0.37697551777819
aI65
aI110
aI1
ag397
aa(lp1832
F0.17515586868103
aI65
aI0
aI1
ag399
aa(lp1833
F0.2552798497054
aI64
aI113
aI1
ag401
aa(lp1834
F0.21368364695809
aI64
aI0
aI1
ag403
aa(lp1835
F0.25613060916658
aI65
aI117
aI1
ag405
aa(lp1836
F0.20140111420187
aI65
aI0
aI1
ag407
aa(lp1837
F0.82018323357624
aI65
aI113
aI1
ag409
aa(lp1838
F0.22681765767629
aI65
aI0
aI1
ag411
aa(lp1839
F0.70903869811445
aI64
aI107
aI1
ag413
aa(lp1840
F0.17495002300711
aI64
aI0
aI1
ag415
aa(lp1841
F0.37649994039384
aI62
aI115
aI1
ag417
aa(lp1842
F0.2022405652242
aI62
aI0
aI1
ag419
aa(lp1843
F0.80244887756999
aI60
aI106
aI1
ag421
aa(lp1844
F0.21423552479246
aI60
aI0
aI1
ag423
aa(lp1845
F0.7788174435118
aI58
aI105
aI1
ag425
aa(lp1846
F0.2409919485508
aI58
aI0
aI1
ag427
aa(lp1847
F0.77748318537488
aI60
aI95
aI1
ag429
aa(lp1848
F0.25440170316142
aI60
aI0
aI1
ag431
aa(lp1849
F0.73816234446713
aI62
aI103
aI1
ag433
aa(lp1850
F0.1876600306714
aI62
aI0
aI1
ag435
aa(lp1851
F0.3880750383978
aI65
aI98
aI1
ag437
aa(lp1852
F0.20115018365323
aI65
aI0
aI1
ag439
aa(lp1853
F0.77735927254253
aI67
aI46
aI1
ag441
aa(lp1854
F0.26801568684459
aI67
aI0
aI1
ag443
aa(lp1855
F0.77863840245118
aI72
aI108
aI1
ag445
aa(lp1856
F0.24225266985013
aI72
aI0
aI1
ag447
aa(lp1857
F0.76385314356594
aI70
aI112
aI1
ag449
aa(lp1858
F0.20085866903537
aI70
aI0
aI1
ag451
aa(lp1859
F0.29559720226098
aI67
aI96
aI1
ag453
aa(lp1860
F0.28185019636294
aI67
aI0
aI1
ag455
aa(lp1861
F0.63111622650467
aI65
aI105
aI1
ag457
aa(lp1862
F0.21371403368539
aI65
aI0
aI1
ag459
aa(lp1863
F0.8988901409175
aI64
aI110
aI1
ag461
aa(lp1864
F0.1338276835595
aI64
aI0
aI1
ag463
aa(lp1865
F0.40350777453568
aI65
aI113
aI1
ag465
aa(lp1866
F0.20246433450666
aI65
aI0
aI1
ag467
aa(lp1867
F0.20092058180308
aI64
aI114
aI1
ag469
aa(lp1868
F0.25559300095483
aI64
aI0
aI1
ag471
aa(lp1869
F0.3077338673902
aI62
aI115
aI1
ag473
aa(lp1870
F0.2017998907686
aI62
aI0
aI1
ag475
aa(lp1871
F0.65642310364638
aI60
aI118
aI1
ag477
aa(lp1872
F0.20150834535889
aI60
aI0
aI1
ag479
aa(lp1873
F0.76505879820616
aI58
aI110
aI1
ag481
aa(lp1874
F0.16058218540275
aI58
aI0
aI1
ag483
aa(lp1875
F0.3361694857449
aI60
aI114
aI1
ag485
aa(lp1876
F0.18882544765074
aI60
aI0
aI1
ag487
aa(lp1877
F0.89900282741291
aI58
aI106
aI1
ag489
aa(lp1878
F0.20094696815067
aI58
aI0
aI1
ag491
aa(lp1879
F0.28231866078568
aI60
aI110
aI1
ag493
aa(lp1880
F0.20085514076345
aI60
aI0
aI1
ag495
aa(lp1881
F0.80521217474598
aI58
aI109
aI1
ag497
aa(lp1882
F0.20209503886872
aI58
aI0
aI1
ag499
aa(lp1883
F0.25356567517156
aI60
aI92
aI1
ag501
aa(lp1884
F0.22763138957089
aI60
aI0
aI1
ag503
aa(lp1885
F0.29569447471295
aI62
aI114
aI1
ag505
aa(lp1886
F0.21494542031724
aI62
aI0
aI1
ag507
aa(lp1887
F0.26888911708375
aI64
aI114
aI1
ag509
aa(lp1888
F0.22860009843134
aI64
aI0
aI1
ag511
aa(lp1889
F0.13477411174972
aI65
aI94
aI1
ag513
aa(lp1890
F0.2268563300604
aI65
aI0
aI1
ag515
aa(lp1891
F0.30961936441599
aI67
aI97
aI1
ag517
aa(lp1892
F0.00025431512040086
aI68
aI83
aI1
ag519
aa(lp1893
F0.092993140555336
aI68
aI0
aI1
ag521
aa(lp1894
F0.067121850588592
aI67
aI0
aI1
ag523
aa(lp1895
F0.44247800808807
aI72
aI107
aI1
ag525
aa(lp1896
F0.18747875715781
aI72
aI0
aI1
ag527
aa(lp1897
F0.88675208005589
aI0
aI0
aI0
ag529
aaa(lp1898
(lp1899
F0.13416338839374
aI81
aI105
aI1
ag532
aa(lp1900
F0.12294940555626
aI82
aI85
aI1
ag534
aa(lp1901
F0.091220176731213
aI81
aI0
aI1
ag536
aa(lp1902
F0.04056521322741
aI83
aI89
aI1
ag538
aa(lp1903
F0.071935440735842
aI82
aI0
aI1
ag540
aa(lp1904
F0.081415117590495
aI83
aI0
aI1
ag542
aa(lp1905
F0.041436324375923
aI81
aI99
aI1
ag544
aa(lp1906
F0.1430972382791
aI82
aI67
aI1
ag546
aa(lp1907
F0.092766064367765
aI81
aI0
aI1
ag548
aa(lp1908
F0.00049717217689249
aI83
aI73
aI1
ag550
aa(lp1909
F0.029762118907684
aI82
aI0
aI1
ag552
aa(lp1910
F0.11271444756119
aI83
aI0
aI1
ag554
aa(lp1911
F0.071794817162527
aI81
aI82
aI1
ag556
aa(lp1912
F0.1333068366514
aI82
aI93
aI1
ag558
aa(lp1913
F0.040587883201169
aI81
aI0
aI1
ag560
aa(lp1914
F0.07132435449148
aI83
aI80
aI1
ag562
aa(lp1915
F0.041408118165805
aI82
aI0
aI1
ag564
aa(lp1916
F0.1020210906421
aI83
aI0
aI1
ag566
aa(lp1917
F0.071356024279225
aI81
aI96
aI1
ag568
aa(lp1918
F0.15328287165062
aI82
aI88
aI1
ag570
aa(lp1919
F0.06212651641647
aI81
aI0
aI1
ag572
aa(lp1920
F0.00019492023636758
aI82
aI0
aI1
ag574
aa(lp1921
F0.031525494882089
aI83
aI88
aI1
ag576
aa(lp1922
F0.13243140191094
aI83
aI0
aI1
ag578
aa(lp1923
F0.061928638033805
aI81
aI99
aI1
ag580
aa(lp1924
F0.15289380107913
aI82
aI68
aI1
ag582
aa(lp1925
F0.051453874351864
aI81
aI0
aI1
ag584
aa(lp1926
F0.00021471434433806
aI82
aI0
aI1
ag586
aa(lp1927
F0.081635808954388
aI83
aI93
aI1
ag588
aa(lp1928
F0.11224166343197
aI83
aI0
aI1
ag590
aa(lp1929
F0.072498640288472
aI81
aI94
aI1
ag592
aa(lp1930
F0.12184328248384
aI81
aI0
aI1
ag594
aa(lp1931
F0.030748631033589
aI81
aI18
aI1
ag596
aa(lp1932
F0.051574887969878
aI82
aI98
aI1
ag598
aa(lp1933
F0.061136540714642
aI81
aI0
aI1
ag600
aa(lp1934
F0.094040625416596
aI83
aI86
aI1
ag602
aa(lp1935
F0.039063862333023
aI82
aI0
aI1
ag604
aa(lp1936
F0.020832369130403
aI83
aI0
aI1
ag606
aa(lp1937
F0.14290477075747
aI81
aI104
aI1
ag608
aa(lp1938
F0.13372547692416
aI82
aI89
aI1
ag610
aa(lp1939
F0.07198269662058
aI81
aI0
aI1
ag612
aa(lp1940
F0.051122757964777
aI83
aI91
aI1
ag614
aa(lp1941
F0.071517041428137
aI82
aI0
aI1
ag616
aa(lp1942
F0.09194406039137
aI83
aI0
aI1
ag618
aa(lp1943
F0.071218364728452
aI81
aI95
aI1
ag620
aa(lp1944
F0.1644650082311
aI82
aI98
aI1
ag622
aa(lp1945
F0.010198829440469
aI81
aI0
aI1
ag624
aa(lp1946
F0.041122141901383
aI82
aI0
aI1
ag626
aa(lp1947
F0.082333801986124
aI83
aI92
aI1
ag628
aa(lp1948
F0.14381533690528
aI81
aI93
aI1
ag630
aa(lp1949
F0.010505614592148
aI83
aI0
aI1
ag632
aa(lp1950
F0.07715432096893
aI81
aI0
aI1
ag634
aa(lp1951
F0.0099999999999909
aI0
aI0
aI0
ag636
aaa(lp1952
(lp1953
F0.0
aI68
aI83
aI1
ag639
aa(lp1954
F0.0
aI67
aI84
aI1
ag641
aa(lp1955
F0.013907942089645
aI68
aI0
aI1
ag643
aa(lp1956
F0.026193205244454
aI67
aI0
aI1
ag645
aa(lp1957
F0.13861399371854
aI67
aI95
aI1
ag647
aa(lp1958
F0.09555725383052
aI67
aI0
aI1
ag649
aa(lp1959
F0.12197254252715
aI67
aI101
aI1
ag651
aa(lp1960
F0.043421378470157
aI67
aI0
aI1
ag653
aa(lp1961
F0.22753845771604
aI67
aI96
aI1
ag655
aa(lp1962
F0.096494286916823
aI67
aI0
aI1
ag657
aa(lp1963
F0.12977297806538
aI67
aI100
aI1
ag659
aa(lp1964
F0.043444743655527
aI67
aI0
aI1
ag661
aa(lp1965
F0.24522194444762
aI67
aI96
aI1
ag663
aa(lp1966
F0.052281014583968
aI67
aI0
aI1
ag665
aa(lp1967
F0.20849988198279
aI67
aI105
aI1
ag667
aa(lp1968
F0.044691489219986
aI67
aI0
aI1
ag669
aa(lp1969
F0.2009790600996
aI67
aI97
aI1
ag671
aa(lp1970
F0.052495634180559
aI67
aI0
aI1
ag673
aa(lp1971
F0.21750653953859
aI67
aI108
aI1
ag675
aa(lp1972
F0.043997980872518
aI67
aI0
aI1
ag677
aa(lp1973
F0.19204772129524
aI67
aI96
aI1
ag679
aa(lp1974
F0.043731641110753
aI67
aI0
aI1
ag681
aa(lp1975
F0.22624730579719
aI67
aI112
aI1
ag683
aa(lp1976
F0.044019610548276
aI67
aI0
aI1
ag685
aa(lp1977
F0.20048211105131
aI67
aI93
aI1
ag687
aa(lp1978
F0.052901896636286
aI67
aI0
aI1
ag689
aa(lp1979
F0.2525327097419
aI67
aI99
aI1
ag691
aa(lp1980
F0.043933168535659
aI67
aI0
aI1
ag693
aa(lp1981
F0.17412489771777
aI67
aI90
aI1
ag695
aa(lp1982
F0.05244290538667
aI67
aI0
aI1
ag697
aa(lp1983
F0.20929044045351
aI67
aI98
aI1
ag699
aa(lp1984
F0.043827410859194
aI67
aI0
aI1
ag701
aa(lp1985
F0.20084762656097
aI67
aI98
aI1
ag703
aa(lp1986
F0.051969654954519
aI67
aI0
aI1
ag705
aa(lp1987
F0.20036457158858
aI74
aI94
aI1
ag707
aa(lp1988
F0.044468392137787
aI74
aI0
aI1
ag709
aa(lp1989
F0.14743285120676
aI74
aI102
aI1
ag711
aa(lp1990
F0.061228821548866
aI74
aI0
aI1
ag713
aa(lp1991
F0.20821814437386
aI74
aI98
aI1
ag715
aa(lp1992
F0.043532184295145
aI74
aI0
aI1
ag717
aa(lp1993
F0.19219222033098
aI74
aI103
aI1
ag719
aa(lp1994
F0.051864420765014
aI74
aI0
aI1
ag721
aa(lp1995
F0.20926591659645
aI74
aI92
aI1
ag723
aa(lp1996
F0.042919316259031
aI74
aI0
aI1
ag725
aa(lp1997
F0.2016240158764
aI74
aI102
aI1
ag727
aa(lp1998
F0.052151449926896
aI74
aI0
aI1
ag729
aa(lp1999
F0.23560018320131
aI74
aI103
aI1
ag731
aa(lp2000
F0.044139404007183
aI74
aI0
aI1
ag733
aa(lp2001
F0.19132035968778
aI74
aI95
aI1
ag735
aa(lp2002
F0.052580737466997
aI74
aI0
aI1
ag737
aa(lp2003
F0.2532493832141
aI74
aI99
aI1
ag739
aa(lp2004
F0.043456061974211
aI74
aI0
aI1
ag741
aa(lp2005
F0.15629244564116
aI74
aI98
aI1
ag743
aa(lp2006
F0.060701050131684
aI74
aI0
aI1
ag745
aa(lp2007
F0.23508781296732
aI74
aI98
aI1
ag747
aa(lp2008
F0.04415729091761
aI74
aI0
aI1
ag749
aa(lp2009
F0.16586740483035
aI74
aI86
aI1
ag751
aa(lp2010
F0.052329387101054
aI74
aI0
aI1
ag753
aa(lp2011
F0.21811276896096
aI74
aI99
aI1
ag755
aa(lp2012
F0.053169420077211
aI74
aI0
aI1
ag757
aa(lp2013
F0.15605397738545
aI74
aI98
aI1
ag759
aa(lp2014
F0.061285661549846
aI74
aI0
aI1
ag761
aa(lp2015
F0.191473859697
aI74
aI99
aI1
ag763
aa(lp2016
F0.042976876467947
aI74
aI0
aI1
ag765
aa(lp2017
F0.20223042535144
aI74
aI102
aI1
ag767
aa(lp2018
F0.060970552487561
aI74
aI0
aI1
ag769
aa(lp2019
F0.20061788419662
aI75
aI103
aI1
ag771
aa(lp2020
F0.051761337206699
aI75
aI0
aI1
ag773
aa(lp2021
F0.13944670121418
aI75
aI98
aI1
ag775
aa(lp2022
F0.052558786030204
aI75
aI0
aI1
ag777
aa(lp2023
F0.24445343244133
aI75
aI103
aI1
ag779
aa(lp2024
F0.043344145825358
aI75
aI0
aI1
ag781
aa(lp2025
F0.16631021967078
aI75
aI95
aI1
ag783
aa(lp2026
F0.05231822382666
aI75
aI0
aI1
ag785
aa(lp2027
F0.23579898649405
aI75
aI109
aI1
ag787
aa(lp2028
F0.043451012160403
aI75
aI0
aI1
ag789
aa(lp2029
F0.19153778844247
aI75
aI93
aI1
ag791
aa(lp2030
F0.052570976271454
aI75
aI0
aI1
ag793
aa(lp2031
F0.20920412347732
aI75
aI109
aI1
ag795
aa(lp2032
F0.052225116526643
aI75
aI0
aI1
ag797
aa(lp2033
F0.17387897727804
aI75
aI98
aI1
ag799
aa(lp2034
F0.051913841923124
aI75
aI0
aI1
ag801
aa(lp2035
F0.22716859760021
aI75
aI107
aI1
ag803
aa(lp2036
F0.043337093757145
aI75
aI0
aI1
ag805
aa(lp2037
F0.18300808573804
aI75
aI96
aI1
ag807
aa(lp2038
F0.052215360332411
aI75
aI0
aI1
ag809
aa(lp2039
F0.20925685393922
aI75
aI100
aI1
ag811
aa(lp2040
F0.043626957083688
aI75
aI0
aI1
ag813
aa(lp2041
F0.19159198933357
aI75
aI99
aI1
ag815
aa(lp2042
F0.051993313559251
aI75
aI0
aI1
ag817
aa(lp2043
F0.20888185565036
aI75
aI103
aI1
ag819
aa(lp2044
F0.051952291530142
aI75
aI0
aI1
ag821
aa(lp2045
F0.19123433279765
aI75
aI98
aI1
ag823
aa(lp2046
F0.052572506720026
aI75
aI0
aI1
ag825
aa(lp2047
F0.22692218201428
aI75
aI103
aI1
ag827
aa(lp2048
F0.043998656070471
aI75
aI0
aI1
ag829
aa(lp2049
F0.16601942440502
aI75
aI97
aI1
ag831
aa(lp2050
F0.052100469978541
aI75
aI0
aI1
ag833
aa(lp2051
F0.23585016983452
aI75
aI95
aI1
ag835
aa(lp2052
F0.043908532979913
aI75
aI0
aI1
ag837
aa(lp2053
F0.15735569073331
aI75
aI98
aI1
ag839
aa(lp2054
F0.052223192629754
aI75
aI0
aI1
ag841
aa(lp2055
F0.24520561299141
aI75
aI97
aI1
ag843
aa(lp2056
F0.043564352059548
aI75
aI0
aI1
ag845
aa(lp2057
F0.1480765399474
aI75
aI94
aI1
ag847
aa(lp2058
F0.052691511614285
aI75
aI0
aI1
ag849
aa(lp2059
F0.21689950821383
aI75
aI97
aI1
ag851
aa(lp2060
F0.043886481513255
aI75
aI0
aI1
ag853
aa(lp2061
F0.17484129277727
aI75
aI97
aI1
ag855
aa(lp2062
F0.053072906777743
aI75
aI0
aI1
ag857
aa(lp2063
F0.23373586322214
aI75
aI102
aI1
ag859
aa(lp2064
F0.043990223598485
aI75
aI0
aI1
ag861
aa(lp2065
F0.1651586886901
aI75
aI103
aI1
ag863
aa(lp2066
F0.096239633915502
aI75
aI0
aI1
ag865
aa(lp2067
F0.20052883808694
aI82
aI78
aI1
ag867
aa(lp2068
F0.00020683731418103
aI77
aI89
aI1
ag869
aa(lp2069
F0.043197957961638
aI77
aI0
aI1
ag871
aa(lp2070
F0.026970161391546
aI82
aI0
aI1
ag873
aa(lp2071
F0.1646313323954
aI75
aI97
aI1
ag875
aa(lp2072
F0.053077037990079
aI75
aI0
aI1
ag877
aa(lp2073
F0.20884519490119
aI75
aI98
aI1
ag879
aa(lp2074
F0.078207524961726
aI75
aI0
aI1
ag881
aa(lp2075
F0.13058362409265
aI75
aI95
aI1
ag883
aa(lp2076
F0.052376921038558
aI75
aI0
aI1
ag885
aa(lp2077
F0.22642936751254
aI75
aI98
aI1
ag887
aa(lp2078
F0.069724632649013
aI75
aI0
aI1
ag889
aa(lp2079
F0.17427299281007
aI75
aI92
aI1
ag891
aa(lp2080
F0.051994513911268
aI75
aI0
aI1
ag893
aa(lp2081
F0.17398459324613
aI75
aI108
aI1
ag895
aa(lp2082
F0.08695091865593
aI75
aI0
aI1
ag897
aa(lp2083
F0.17498522831374
aI75
aI97
aI1
ag899
aa(lp2084
F0.052175657025145
aI75
aI0
aI1
ag901
aa(lp2085
F0.29957814491536
aI0
aI0
aI0
ag903
aaa(lp2086
(lp2087
F0.0
aI72
aI98
aI1
ag906
aa(lp2088
F0.047129908076386
aI72
aI0
aI1
ag908
aa(lp2089
F0.11334296720452
aI72
aI77
aI1
ag910
aa(lp2090
F0.1662133546015
aI72
aI0
aI1
ag912
aa(lp2091
F0.14741681984015
aI84
aI101
aI1
ag914
aa(lp2092
F0.043312089759638
aI84
aI0
aI1
ag916
aa(lp2093
F0.19252072665404
aI84
aI67
aI1
ag918
aa(lp2094
F0.043290601792251
aI84
aI0
aI1
ag920
aa(lp2095
F0.18314152319545
aI72
aI96
aI1
ag922
aa(lp2096
F0.12220794154928
aI72
aI0
aI1
ag924
aa(lp2097
F0.16488609376211
aI96
aI108
aI1
ag926
aa(lp2098
F0.078117190140802
aI96
aI0
aI1
ag928
aa(lp2099
F0.15693451390416
aI96
aI79
aI1
ag930
aa(lp2100
F0.087109228410554
aI96
aI0
aI1
ag932
aa(lp2101
F0.17494278420236
aI72
aI101
aI1
ag934
aa(lp2102
F0.11296431784467
aI72
aI0
aI1
ag936
aa(lp2103
F0.16556861388653
aI84
aI108
aI1
ag938
aa(lp2104
F0.043587533857135
aI84
aI0
aI1
ag940
aa(lp2105
F0.18267535984432
aI84
aI96
aI1
ag942
aa(lp2106
F0.087259937599811
aI84
aI0
aI1
ag944
aa(lp2107
F0.14786485620971
aI72
aI99
aI1
ag946
aa(lp2108
F0.13075696992018
aI72
aI0
aI1
ag948
aa(lp2109
F0.11364083621174
aI84
aI101
aI1
ag950
aa(lp2110
F0.078456021156853
aI84
aI0
aI1
ag952
aa(lp2111
F0.18398649262144
aI72
aI110
aI1
ag954
aa(lp2112
F0.096345798378024
aI72
aI0
aI1
ag956
aa(lp2113
F0.14834166268429
aI84
aI105
aI1
ag958
aa(lp2114
F0.043145262509825
aI84
aI0
aI1
ag960
aa(lp2115
F0.16626190883744
aI84
aI92
aI1
ag962
aa(lp2116
F0.096663038064435
aI84
aI0
aI1
ag964
aa(lp2117
F0.1734074223441
aI72
aI105
aI1
ag966
aa(lp2118
F0.12196824793409
aI72
aI0
aI1
ag968
aa(lp2119
F0.15804446602579
aI96
aI112
aI1
ag970
aa(lp2120
F0.095691696586073
aI96
aI0
aI1
ag972
aa(lp2121
F0.14820330378188
aI72
aI108
aI1
ag974
aa(lp2122
F0.1129788854505
aI72
aI0
aI1
ag976
aa(lp2123
F0.14003545551259
aI84
aI116
aI1
ag978
aa(lp2124
F0.078147947491743
aI84
aI0
aI1
ag980
aa(lp2125
F0.156675946424
aI72
aI103
aI1
ag982
aa(lp2126
F0.086207640715656
aI72
aI0
aI1
ag984
aa(lp2127
F0.16472025013354
aI96
aI105
aI1
ag986
aa(lp2128
F0.070016346518969
aI96
aI0
aI1
ag988
aa(lp2129
F0.20034971556379
aI96
aI67
aI1
ag990
aa(lp2130
F0.043835543245223
aI96
aI0
aI1
ag992
aa(lp2131
F0.20972401925246
aI72
aI104
aI1
ag994
aa(lp2132
F0.11316751075719
aI72
aI0
aI1
ag996
aa(lp2133
F0.11317528137079
aI84
aI115
aI1
ag998
aa(lp2134
F0.069711367093078
aI84
aI0
aI1
ag1000
aa(lp2135
F0.13039815637694
aI72
aI111
aI1
ag1002
aa(lp2136
F0.12182083637708
aI72
aI0
aI1
ag1004
aa(lp2137
F0.1398308888638
aI96
aI101
aI1
ag1006
aa(lp2138
F0.043477096474817
aI96
aI0
aI1
ag1008
aa(lp2139
F0.19233733621513
aI96
aI83
aI1
ag1010
aa(lp2140
F0.11291471996901
aI96
aI0
aI1
ag1012
aa(lp2141
F0.14807627987011
aI72
aI105
aI1
ag1014
aa(lp2142
F0.11395434480255
aI72
aI0
aI1
ag1016
aa(lp2143
F0.18297819030522
aI84
aI116
aI1
ag1018
aa(lp2144
F0.069840046489844
aI84
aI0
aI1
ag1020
aa(lp2145
F0.20858391329057
aI72
aI105
aI1
ag1022
aa(lp2146
F0.087579939761781
aI72
aI0
aI1
ag1024
aa(lp2147
F0.11489173632708
aI94
aI114
aI1
ag1026
aa(lp2148
F0.15638466434848
aI96
aI53
aI1
ag1028
aa(lp2149
F0.061686028942859
aI94
aI0
aI1
ag1030
aa(lp2150
F0.19117091086628
aI96
aI0
aI1
ag1032
aa(lp2151
F0.10429320701223
aI72
aI120
aI1
ag1034
aa(lp2152
F0.13121401893295
aI72
aI0
aI1
ag1036
aa(lp2153
F0.18276321893791
aI72
aI118
aI1
ag1038
aa(lp2154
F0.096012567337311
aI72
aI0
aI1
ag1040
aa(lp2155
F0.087364608290954
aI84
aI114
aI1
ag1042
aa(lp2156
F0.12123410933873
aI84
aI0
aI1
ag1044
aa(lp2157
F0.15703129228223
aI72
aI105
aI1
ag1046
aa(lp2158
F0.10423054363764
aI72
aI0
aI1
ag1048
aa(lp2159
F0.16562470366716
aI96
aI109
aI1
ag1050
aa(lp2160
F0.095467360806651
aI96
aI0
aI1
ag1052
aa(lp2161
F0.17396161317356
aI96
aI91
aI1
ag1054
aa(lp2162
F0.087350894269548
aI96
aI0
aI1
ag1056
aa(lp2163
F0.10508160818335
aI72
aI101
aI1
ag1058
aa(lp2164
F0.094899147530668
aI72
aI0
aI1
ag1060
aa(lp2165
F0.15644855141363
aI84
aI106
aI1
ag1062
aa(lp2166
F0.043701597302061
aI84
aI0
aI1
ag1064
aa(lp2167
F0.16523172343841
aI72
aI112
aI1
ag1066
aa(lp2168
F0.09597961934287
aI72
aI0
aI1
ag1068
aa(lp2169
F0.14818813600141
aI96
aI100
aI1
ag1070
aa(lp2170
F0.078181282266996
aI96
aI0
aI1
ag1072
aa(lp2171
F0.19177747538743
aI96
aI97
aI1
ag1074
aa(lp2172
F0.096480174445787
aI96
aI0
aI1
ag1076
aa(lp2173
F0.14844150862791
aI72
aI101
aI1
ag1078
aa(lp2174
F0.10414237778605
aI72
aI0
aI1
ag1080
aa(lp2175
F0.1910643346182
aI84
aI112
aI1
ag1082
aa(lp2176
F0.043136003127074
aI84
aI0
aI1
ag1084
aa(lp2177
F0.16637359491961
aI72
aI112
aI1
ag1086
aa(lp2178
F0.1048125009429
aI72
aI0
aI1
ag1088
aa(lp2179
F0.17431005534308
aI84
aI110
aI1
ag1090
aa(lp2180
F0.043702562585167
aI84
aI0
aI1
ag1092
aa(lp2181
F0.16594958726091
aI72
aI113
aI1
ag1094
aa(lp2182
F0.12218422626211
aI72
aI0
aI1
ag1096
aa(lp2183
F0.13878015243881
aI84
aI110
aI1
ag1098
aa(lp2184
F0.043788146012957
aI84
aI0
aI1
ag1100
aa(lp2185
F0.19243515489597
aI84
aI86
aI1
ag1102
aa(lp2186
F0.078260772241265
aI84
aI0
aI1
ag1104
aa(lp2187
F0.16617908288572
aI72
aI114
aI1
ag1106
aa(lp2188
F0.11288215375316
aI72
aI0
aI1
ag1108
aa(lp2189
F0.10449945582059
aI89
aI118
aI1
ag1110
aa(lp2190
F0.096738715254105
aI89
aI0
aI1
ag1112
aa(lp2191
F0.18313376425431
aI72
aI112
aI1
ag1114
aa(lp2192
F0.1053727485496
aI72
aI0
aI1
ag1116
aa(lp2193
F0.13907895671855
aI84
aI102
aI1
ag1118
aa(lp2194
F0.043626490280985
aI84
aI0
aI1
ag1120
aa(lp2195
F0.22603536698534
aI84
aI71
aI1
ag1122
aa(lp2196
F0.043391027905272
aI84
aI0
aI1
ag1124
aa(lp2197
F0.22669705767112
aI84
aI112
aI1
ag1126
aa(lp2198
F0.095698500246726
aI84
aI0
aI1
ag1128
aa(lp2199
F0.1304083860432
aI72
aI111
aI1
ag1130
aa(lp2200
F0.13020421617784
aI72
aI0
aI1
ag1132
aa(lp2201
F0.09668838716334
aI91
aI117
aI1
ag1134
aa(lp2202
F0.12221292634422
aI91
aI0
aI1
ag1136
aa(lp2203
F0.14058639538962
aI72
aI107
aI1
ag1138
aa(lp2204
F0.12065960588643
aI72
aI0
aI1
ag1140
aa(lp2205
F0.13053436965038
aI92
aI112
aI1
ag1142
aa(lp2206
F0.11282573387689
aI92
aI0
aI1
ag1144
aa(lp2207
F0.16588307109123
aI72
aI115
aI1
ag1146
aa(lp2208
F0.12286090800808
aI72
aI0
aI1
ag1148
aa(lp2209
F0.13868280556198
aI94
aI112
aI1
ag1150
aa(lp2210
F0.095839158156195
aI94
aI0
aI1
ag1152
aa(lp2211
F0.13981470078397
aI72
aI114
aI1
ag1154
aa(lp2212
F0.11277172137306
aI72
aI0
aI1
ag1156
aa(lp2213
F0.11297438413112
aI96
aI116
aI1
ag1158
aa(lp2214
F0.12158217639808
aI96
aI0
aI1
ag1160
aa(lp2215
F0.21216881537475
aI0
aI0
aI0
ag1162
aaaa(lp2216
(lp2217
(lp2218
F0.030339297358296
aI24
aI105
aI2
ag1166
aa(lp2219
F2.0539449804892
aI34
aI120
aI2
ag1168
aa(lp2220
F0.027306761989166
aI24
aI0
aI2
ag1170
aa(lp2221
F1.8519313689576
aI36
aI113
aI2
ag1172
aa(lp2222
F0.14730850137857
aI34
aI0
aI2
ag1174
aa(lp2223
F1.8927338059802
aI38
aI118
aI2
ag1176
aa(lp2224
F0.053019023220259
aI36
aI0
aI2
ag1178
aa(lp2225
F1.9488366703117
aI46
aI112
aI2
ag1180
aa(lp2226
F0.1474538378643
aI38
aI0
aI2
ag1182
aa(lp2227
F0.81942032161169
aI43
aI121
aI2
ag1184
aa(lp2228
F0.121078133634
aI46
aI0
aI2
ag1186
aa(lp2229
F0.96537859653836
aI43
aI0
aI2
ag1188
aa(lp2230
F0.027136981654621
aI48
aI99
aI2
ag1190
aa(lp2231
F0.9041117190136
aI48
aI0
aI2
ag1192
aa(lp2232
F0.0099999999983993
aI0
aI0
aI0
ag1194
aaa(lp2233
(lp2234
F0.017301133480032
aI43
aI117
aI2
ag1197
aa(lp2235
F0.11418611804038
aI44
aI84
aI2
ag1199
aa(lp2236
F0.16616025749499
aI43
aI0
aI2
ag1201
aa(lp2237
F0.33124642700204
aI44
aI0
aI2
ag1203
aa(lp2238
F0.1247194103571
aI43
aI118
aI2
ag1205
aa(lp2239
F0.46534784044161
aI43
aI0
aI2
ag1207
aa(lp2240
F0.19769004146292
aI41
aI98
aI2
ag1209
aa(lp2241
F0.23766260718639
aI41
aI0
aI2
ag1211
aa(lp2242
F0.31210769977406
aI43
aI120
aI2
ag1213
aa(lp2243
F0.71724958814411
aI43
aI0
aI2
ag1215
aa(lp2244
F0.2276218558427
aI41
aI112
aI2
ag1217
aa(lp2245
F0.2585374709297
aI41
aI0
aI2
ag1219
aa(lp2246
F0.30131171100675
aI39
aI118
aI2
ag1221
aa(lp2247
F0.86218141110021
aI39
aI0
aI2
ag1223
aa(lp2248
F1.6576371580095
aI39
aI108
aI2
ag1225
aa(lp2249
F0.20763112238183
aI39
aI0
aI2
ag1227
aa(lp2250
F0.00024268660126836
aI36
aI118
aI2
ag1229
aa(lp2251
F0.18643955998959
aI36
aI0
aI2
ag1231
aa(lp2252
F0.3743084883954
aI39
aI99
aI2
ag1233
aa(lp2253
F0.19646091631785
aI39
aI0
aI2
ag1235
aa(lp2254
F0.55881660114756
aI41
aI105
aI2
ag1237
aa(lp2255
F0.22725833664663
aI41
aI0
aI2
ag1239
aa(lp2256
F0.36269047742553
aI39
aI114
aI2
ag1241
aa(lp2257
F0.67520143842557
aI39
aI0
aI2
ag1243
aa(lp2258
F0.25921885695698
aI36
aI114
aI2
ag1245
aa(lp2259
F0.28997999220337
aI36
aI0
aI2
ag1247
aa(lp2260
F0.25009899697579
aI34
aI105
aI2
ag1249
aa(lp2261
F0.58025869223911
aI34
aI0
aI2
ag1251
aa(lp2262
F0.35223694882188
aI36
aI97
aI2
ag1253
aa(lp2263
F0.23957322347542
aI36
aI0
aI2
ag1255
aa(lp2264
F0.2904232751107
aI39
aI106
aI2
ag1257
aa(lp2265
F0.60298971985867
aI39
aI0
aI2
ag1259
aa(lp2266
F0.26933072864722
aI36
aI100
aI2
ag1261
aa(lp2267
F0.30022688525332
aI36
aI0
aI2
ag1263
aa(lp2268
F0.25953763612142
aI39
aI114
aI2
ag1265
aa(lp2269
F0.72423770010118
aI39
aI0
aI2
ag1267
aa(lp2270
F0.17648750727221
aI36
aI83
aI2
ag1269
aa(lp2271
F0.20647894461581
aI36
aI0
aI2
ag1271
aa(lp2272
F0.35200159460146
aI39
aI111
aI2
ag1273
aa(lp2273
F0.10413530127971
aI41
aI17
aI2
ag1275
aa(lp2274
F0.15559372848111
aI39
aI0
aI2
ag1277
aa(lp2275
F0.63301525268071
aI41
aI0
aI2
ag1279
aa(lp2276
F0.07315506721261
aI39
aI101
aI2
ag1281
aa(lp2277
F0.36338148460254
aI39
aI0
aI2
ag1283
aa(lp2278
F0.73762810588505
aI0
aI0
aI0
ag1285
aaa(lp2279
(lp2280
F0.0071493820878459
aI24
aI117
aI2
ag1288
aa(lp2281
F3.9762220717489
aI24
aI0
aI2
ag1290
aa(lp2282
F0.060771937583922
aI22
aI16
aI2
ag1292
aa(lp2283
F3.9572003609626
aI22
aI0
aI2
ag1294
aa(lp2284
F0.0084180599690171
aI15
aI114
aI2
ag1296
aa(lp2285
F4.0259370489316
aI17
aI111
aI2
ag1298
aa(lp2286
F0.088207320386118
aI15
aI0
aI2
ag1300
aa(lp2287
F3.86609381833
aI17
aI0
aI2
ag1302
aa(lp2288
F0.0099999999999909
aI0
aI0
aI0
ag1304
aaaI0
aa(lp2289
(lp2290
(lp2291
F0.0
aI36
aI110
aI3
ag1308
aa(lp2292
F0.2050815399316
aI36
aI0
aI3
ag1310
aa(lp2293
F0.7949184600684
aI43
aI107
aI3
ag1312
aa(lp2294
F0.17557074188107
aI43
aI0
aI3
ag1314
aa(lp2295
F0.82442925811893
aI43
aI101
aI3
ag1316
aa(lp2296
F0.14770521232003
aI43
aI0
aI3
ag1318
aa(lp2297
F0.85229478767997
aI43
aI110
aI3
ag1320
aa(lp2298
F0.18721388546737
aI43
aI0
aI3
ag1322
aa(lp2299
F0.81278611453263
aI43
aI110
aI3
ag1324
aa(lp2300
F0.18820246556743
aI43
aI0
aI3
ag1326
aa(lp2301
F0.81179753443257
aI43
aI112
aI3
ag1328
aa(lp2302
F0.21498280458945
aI43
aI0
aI3
ag1330
aa(lp2303
F0.78501719541055
aI38
aI114
aI3
ag1332
aa(lp2304
F0.53796533505783
aI38
aI0
aI3
ag1334
aa(lp2305
F0.46203466494217
aI43
aI111
aI3
ag1336
aa(lp2306
F0.26794219363865
aI43
aI0
aI3
ag1338
aa(lp2307
F0.73205780636135
aI43
aI114
aI3
ag1340
aa(lp2308
F0.22826978055355
aI43
aI0
aI3
ag1342
aa(lp2309
F0.77173021944645
aI43
aI115
aI3
ag1344
aa(lp2310
F0.24092401844882
aI43
aI0
aI3
ag1346
aa(lp2311
F0.75907598155118
aI43
aI118
aI3
ag1348
aa(lp2312
F0.2421919528274
aI43
aI0
aI3
ag1350
aa(lp2313
F0.7578080471726
aI43
aI116
aI3
ag1352
aa(lp2314
F0.18765678979798
aI43
aI0
aI3
ag1354
aa(lp2315
F0.81234321020202
aI0
aI0
aI0
ag1356
aaa(lp2316
(lp2317
F0.0
aI36
aI103
aI3
ag1359
aa(lp2318
F0.31994529587701
aI36
aI0
aI3
ag1361
aa(lp2319
F0.68005470412299
aI43
aI94
aI3
ag1363
aa(lp2320
F0.25582788107477
aI43
aI0
aI3
ag1365
aa(lp2321
F0.74417211892523
aI43
aI101
aI3
ag1367
aa(lp2322
F0.28064442883169
aI43
aI0
aI3
ag1369
aa(lp2323
F0.71935557116831
aI43
aI114
aI3
ag1371
aa(lp2324
F0.2568338536189
aI43
aI0
aI3
ag1373
aa(lp2325
F0.7431661463811
aI43
aI112
aI3
ag1375
aa(lp2326
F0.25511594297541
aI43
aI0
aI3
ag1377
aa(lp2327
F0.74488405702459
aI43
aI114
aI3
ag1379
aa(lp2328
F0.22833198330636
aI43
aI0
aI3
ag1381
aa(lp2329
F0.77166801669364
aI43
aI116
aI3
ag1383
aa(lp2330
F0.33646626070868
aI43
aI0
aI3
ag1385
aa(lp2331
F0.66353373929132
aI38
aI97
aI3
ag1387
aa(lp2332
F0.45688833377017
aI38
aI0
aI3
ag1389
aa(lp2333
F0.54311166622983
aI43
aI116
aI3
ag1391
aa(lp2334
F0.26828146691605
aI43
aI0
aI3
ag1393
aa(lp2335
F0.73171853308395
aI43
aI117
aI3
ag1395
aa(lp2336
F0.268498428557
aI43
aI0
aI3
ag1397
aa(lp2337
F0.731501571443
aI43
aI116
aI3
ag1399
aa(lp2338
F0.29442816463325
aI43
aI0
aI3
ag1401
aa(lp2339
F0.70557183536675
aI43
aI116
aI3
ag1403
aa(lp2340
F0.29433915729669
aI43
aI0
aI3
ag1405
aa(lp2341
F0.70566084270331
aI43
aI116
aI3
ag1407
aa(lp2342
F0.24231362296132
aI43
aI0
aI3
ag1409
aa(lp2343
F0.75768637703868
aI43
aI117
aI3
ag1411
aa(lp2344
F0.30704156697766
aI43
aI0
aI3
ag1413
aa(lp2345
F0.69295843302234
aI0
aI0
aI0
ag1415
aaa(lp2346
(lp2347
F0.0
aI36
aI117
aI3
ag1418
aa(lp2348
F0.24175878395545
aI36
aI0
aI3
ag1420
aa(lp2349
F0.75824121604455
aI43
aI113
aI3
ag1422
aa(lp2350
F0.19942015371907
aI43
aI0
aI3
ag1424
aa(lp2351
F0.80057984628093
aI43
aI114
aI3
ag1426
aa(lp2352
F0.17272292789949
aI43
aI0
aI3
ag1428
aa(lp2353
F0.82727707210051
aI37
aI120
aI3
ag1430
aa(lp2354
F0.26687723868872
aI37
aI0
aI3
ag1432
aa(lp2355
F0.73312276131128
aI43
aI118
aI3
ag1434
aa(lp2356
F0.16011765725489
aI43
aI0
aI3
ag1436
aa(lp2357
F0.83988234274511
aI43
aI118
aI3
ag1438
aa(lp2358
F0.1472436838576
aI43
aI0
aI3
ag1440
aa(lp2359
F0.8527563161424
aI38
aI120
aI3
ag1442
aa(lp2360
F0.28260598509951
aI38
aI0
aI3
ag1444
aa(lp2361
F0.71739401490049
aI43
aI108
aI3
ag1446
aa(lp2362
F0.1749174859624
aI43
aI0
aI3
ag1448
aa(lp2363
F0.8250825140376
aI43
aI114
aI3
ag1450
aa(lp2364
F0.16047269868977
aI43
aI0
aI3
ag1452
aa(lp2365
F0.83952730131023
aI37
aI119
aI3
ag1454
aa(lp2366
F0.29401389189024
aI37
aI0
aI3
ag1456
aa(lp2367
F0.70598610810976
aI43
aI107
aI3
ag1458
aa(lp2368
F0.14750173765151
aI43
aI0
aI3
ag1460
aa(lp2369
F0.85249826234849
aI43
aI105
aI3
ag1462
aa(lp2370
F0.14734754585243
aI43
aI0
aI3
ag1464
aa(lp2371
F0.85265245414757
aI0
aI0
aI0
ag1466
aaa(lp2372
(lp2373
F0.0
aI41
aI116
aI3
ag1469
aa(lp2374
F0.12755477481915
aI41
aI0
aI3
ag1471
aa(lp2375
F0.1211643788929
aI43
aI119
aI3
ag1473
aa(lp2376
F0.087408547841278
aI43
aI0
aI3
ag1475
aa(lp2377
F0.16565895370968
aI43
aI72
aI3
ag1477
aa(lp2378
F0.043689670471394
aI43
aI0
aI3
ag1479
aa(lp2379
F0.16577260536678
aI41
aI95
aI3
ag1481
aa(lp2380
F0.12217321803473
aI41
aI0
aI3
ag1483
aa(lp2381
F0.16545386524058
aI43
aI118
aI3
ag1485
aa(lp2382
F0.23405898796636
aI43
aI0
aI3
ag1487
aa(lp2383
F0.27026381210226
aI41
aI89
aI3
ag1489
aa(lp2384
F0.095998404849979
aI41
aI0
aI3
ag1491
aa(lp2385
F0.13976709349163
aI43
aI107
aI3
ag1493
aa(lp2386
F0.087389395557693
aI43
aI0
aI3
ag1495
aa(lp2387
F0.1753407525598
aI41
aI110
aI3
ag1497
aa(lp2388
F0.11368060120412
aI41
aI0
aI3
ag1499
aa(lp2389
F0.41102830471164
aI41
aI105
aI3
ag1501
aa(lp2390
F0.14707844895793
aI41
aI0
aI3
ag1503
aa(lp2391
F0.32190844842307
aI47
aI116
aI3
ag1505
aa(lp2392
F0.18350354601353
aI47
aI0
aI3
ag1507
aa(lp2393
F0.32211405370936
aI41
aI101
aI3
ag1509
aa(lp2394
F0.12186928391611
aI41
aI0
aI3
ag1511
aa(lp2395
F0.095829053526813
aI47
aI107
aI3
ag1513
aa(lp2396
F0.0874062871776
aI47
aI0
aI3
ag1515
aa(lp2397
F0.19226860772869
aI41
aI112
aI3
ag1517
aa(lp2398
F0.12199081788594
aI41
aI0
aI3
ag1519
aa(lp2399
F0.11317305071589
aI43
aI114
aI3
ag1521
aa(lp2400
F0.069968139048797
aI43
aI0
aI3
ag1523
aa(lp2401
F0.41139830820293
aI41
aI97
aI3
ag1525
aa(lp2402
F0.077629388777041
aI41
aI0
aI3
ag1527
aa(lp2403
F0.18335670795796
aI43
aI117
aI3
ag1529
aa(lp2404
F0.23519468430322
aI43
aI0
aI3
ag1531
aa(lp2405
F0.27901333259342
aI41
aI98
aI3
ag1533
aa(lp2406
F0.10484268646042
aI41
aI0
aI3
ag1535
aa(lp2407
F0.12136663819956
aI43
aI116
aI3
ag1537
aa(lp2408
F0.096394529333338
aI43
aI0
aI3
ag1539
aa(lp2409
F0.17426965182949
aI41
aI104
aI3
ag1541
aa(lp2410
F0.10464434496998
aI41
aI0
aI3
ag1543
aa(lp2411
F0.42710783614075
aI41
aI115
aI3
ag1545
aa(lp2412
F0.15765111402288
aI41
aI0
aI3
ag1547
aa(lp2413
F0.29572442087056
aI47
aI113
aI3
ag1549
aa(lp2414
F0.07803175008803
aI47
aI0
aI3
ag1551
aa(lp2415
F0.13963082353484
aI45
aI111
aI3
ag1553
aa(lp2416
F0.096443246951367
aI45
aI0
aI3
ag1555
aa(lp2417
F0.17406848451083
aI47
aI99
aI3
ag1557
aa(lp2418
F0.11289961887496
aI47
aI0
aI3
ag1559
aa(lp2419
F0.42681932845471
aI0
aI0
aI0
ag1561
aaaaa(lp2420
(lp2421
(dp2422
g1565
g1566
sg1567
I1
sa(dp2423
g1565
g1569
sg1567
I0
sa(dp2424
a(dp2425
aa(lp2426
(dp2427
g1565
g1574
sg1567
I01
sa(dp2428
g1565
g1576
sg1567
I0
sa(dp2429
g1565
g1578
sg1567
I0
sa(dp2430
g1565
g1580
sg1567
I0
saa(lp2431
(dp2432
g1565
g1583
sg1567
I1
sa(dp2433
g1565
g1585
sg1567
I0
sa(dp2434
g1565
g1587
sg1567
I0
sa(dp2435
aa(lp2436
(dp2437
g1565
g1591
sg1567
I1
sa(dp2438
g1565
g1593
sg1567
I0
sa(dp2439
g1565
g1595
sg1567
I0
sa(dp2440
g1565
g1597
sg1567
I0
saaa(lp2441
I60
aI60
aI36
aI36
aa(lp2442
(lp2443
I0
aI2
aI3
aI5
aI7
aI8
aI10
aa(lp2444
I0
aI2
aI3
aI5
aI7
aI8
aI10
aa(lp2445
I0
aI2
aI3
aI5
aI7
aI8
aI10
aa(lp2446
I0
aI1
aI2
aI3
aI4
aI5
aI6
aI7
aI8
aI9
aI10
aI11
aaa(lp2447
(lp2448
(lp2449
I0
aI0
aI0
aI0
aI0
aI0
aI0
aI0
aI0
aI0
aI0
aI0
aa(lp2450
I0
aI0
aI0
aI0
aI0
aI0
aI0
aI0
aI0
aI0
aI0
aI0
aa(lp2451
I0
aI0
aI0
aI0
aI0
aI0
aI0
aI0
aI0
aI0
aI0
aI0
aa(lp2452
I0
aI0
aI0
aI0
aI0
aI0
aI0
aI0
aI0
aI0
aI0
aI0
aaa(lp2453
(lp2454
I0
aI0
aI0
aI0
aI0
aI0
aI0
aI0
aI0
aI0
aI0
aI0
aa(lp2455
I0
aI0
aI0
aI0
aI0
aI0
aI0
aI0
aI0
aI0
aI0
aI0
aa(lp2456
I0
aI0
aI0
aI0
aI0
aI0
aI0
aI0
aI0
aI0
aI0
aI0
aa(lp2457
I0
aI0
aI0
aI0
aI0
aI0
aI0
aI0
aI0
aI0
aI0
aI0
aaa(lp2458
(lp2459
I0
aI0
aI0
aI0
aI0
aI0
aI0
aI0
aI0
aI0
aI0
aI0
aa(lp2460
I0
aI0
aI0
aI0
aI0
aI0
aI0
aI0
aI0
aI0
aI0
aI0
aa(lp2461
I0
aI0
aI0
aI0
aI0
aI0
aI0
aI0
aI0
aI0
aI0
aI0
aa(lp2462
I0
aI0
aI0
aI0
aI0
aI0
aI0
aI0
aI0
aI0
aI0
aI0
aaa(lp2463
(lp2464
I0
aI0
aI0
aI0
aI0
aI0
aI0
aI0
aI0
aI0
aI0
aI0
aa(lp2465
I0
aI0
aI0
aI0
aI0
aI0
aI0
aI0
aI0
aI0
aI0
aI0
aa(lp2466
I0
aI0
aI0
aI0
aI0
aI0
aI0
aI0
aI0
aI0
aI0
aI0
aa(lp2467
I0
aI0
aI0
aI0
aI0
aI0
aI0
aI0
aI0
aI0
aI0
aI0
aaaa(lp2468
(lp2469
I0
aI0
aI0
aI0
aI0
aI0
aI0
aI0
aI0
aI0
aI0
aI0
aa(lp2470
I0
aI0
aI0
aI0
aI0
aI0
aI0
aI0
aI0
aI0
aI0
aI0
aa(lp2471
I0
aI0
aI0
aI0
aI0
aI0
aI0
aI0
aI0
aI0
aI0
aI0
aa(lp2472
I0
aI0
aI0
aI0
aI0
aI0
aI0
aI0
aI0
aI0
aI0
aI0
aaaaI0
aI0
aI0
aI0
aI0
aI0
aI0
aI0
aI0
a(lp2473
(lp2474
(lp2475
(lp2476
(lp2477
F0.0
aI74
aI35
aI0
aS'on'
p2478
aa(lp2479
F0.0
aI70
aI54
aI0
aS'on'
p2480
aa(lp2481
F0.30888276759379
aI70
aI0
aI0
aS'off'
p2482
aa(lp2483
F0.093266563851103
aI74
aI0
aI0
aS'off'
p2484
aa(lp2485
F1.1501558706377
aI68
aI39
aI0
aS'on'
p2486
aa(lp2487
F0.020414490453732
aI72
aI72
aI0
aS'on'
p2488
aa(lp2489
F0.4566918741657
aI72
aI0
aI0
aS'off'
p2490
aa(lp2491
F0.062262406817354
aI68
aI0
aI0
aS'off'
p2492
aa(lp2493
F3.7548168155927
aI74
aI14
aI0
aS'on'
p2494
aa(lp2495
F0.00021569938689936
aI70
aI20
aI0
aS'on'
p2496
aa(lp2497
F0.3315253173696
aI70
aI0
aI0
aS'off'
p2498
aa(lp2499
F0.020856311643911
aI74
aI0
aI0
aS'off'
p2500
aa(lp2501
F0.44521259735484
aI68
aI17
aI0
aS'on'
p2502
aa(lp2503
F0.042490895143601
aI72
aI52
aI0
aS'on'
p2504
aa(lp2505
F0.26775972247287
aI68
aI0
aI0
aS'off'
p2506
aa(lp2507
F0.10384032607999
aI72
aI0
aI0
aS'off'
p2508
aa(lp2509
F0.29068243726306
aI74
aI14
aI0
aS'on'
p2510
aa(lp2511
F0.093410014374967
aI77
aI66
aI0
aS'on'
p2512
aa(lp2513
F7.9749332409292
aI77
aI0
aI0
aS'off'
p2514
aa(lp2515
F0.04150935146663
aI74
aI0
aI0
aS'off'
p2516
aa(lp2517
F0.54107329740236
aI0
aI0
aI0
aS'timeAfterLastHit'
p2518
aaa(lp2519
(lp2520
F0.0
aI60
aI91
aI0
aS'on'
p2521
aa(lp2522
F0.1506832758464
aI60
aI0
aI0
aS'off'
p2523
aa(lp2524
F0.3651999004644
aI63
aI57
aI0
aS'on'
p2525
aa(lp2526
F0.18224818458907
aI63
aI0
aI0
aS'off'
p2527
aa(lp2528
F0.7938642513318
aI70
aI98
aI0
aS'on'
p2529
aa(lp2530
F0.20057564847889
aI70
aI0
aI0
aS'off'
p2531
aa(lp2532
F1.1405446666031
aI58
aI105
aI0
aS'on'
p2533
aa(lp2534
F0.14769411614725
aI58
aI0
aI0
aS'off'
p2535
aa(lp2536
F4.9833468292848
aI60
aI90
aI0
aS'on'
p2537
aa(lp2538
F0.1577550328268
aI60
aI0
aI0
aS'off'
p2539
aa(lp2540
F5.5431668636477
aI72
aI33
aI0
aS'on'
p2541
aa(lp2542
F0.10468315968478
aI72
aI0
aI0
aS'off'
p2543
aa(lp2544
F2.024542511467
aI60
aI22
aI0
aS'on'
p2545
aa(lp2546
F0.10435466836634
aI60
aI0
aI0
aS'off'
p2547
aa(lp2548
F0.53204013554341
aI63
aI42
aI0
aS'on'
p2549
aa(lp2550
F0.20965974373939
aI63
aI0
aI0
aS'off'
p2551
aa(lp2552
F0.2790227236801
aI67
aI56
aI0
aS'on'
p2553
aa(lp2554
F0.29654478641373
aI67
aI0
aI0
aS'off'
p2555
aa(lp2556
F0.30442789786161
aI70
aI98
aI0
aS'on'
p2557
aa(lp2558
F0.32270434012344
aI70
aI0
aI0
aS'off'
p2559
aa(lp2560
F2.641983916287
aI58
aI99
aI0
aS'on'
p2561
aa(lp2562
F0.51431958961143
aI58
aI0
aI0
aS'off'
p2563
aa(lp2564
F3.1113499381659
aI60
aI99
aI0
aS'on'
p2565
aa(lp2566
F0.21859857974118
aI60
aI0
aI0
aS'off'
p2567
aa(lp2568
F4.1541140923784
aI77
aI40
aI0
aS'on'
p2569
aa(lp2570
F0.28724815883538
aI77
aI0
aI0
aS'off'
p2571
aa(lp2572
F0.47920888795625
aI75
aI64
aI0
aS'on'
p2573
aa(lp2574
F0.2251482702095
aI75
aI0
aI0
aS'off'
p2575
aa(lp2576
F0.48817794448587
aI72
aI54
aI0
aS'on'
p2577
aa(lp2578
F0.21871417863645
aI72
aI0
aI0
aS'off'
p2579
aa(lp2580
F0.47835080301934
aI70
aI54
aI0
aS'on'
p2581
aa(lp2582
F0.20024538163966
aI70
aI0
aI0
aS'off'
p2583
aa(lp2584
F0.51402060027635
aI68
aI36
aI0
aS'on'
p2585
aa(lp2586
F0.21880138087226
aI68
aI0
aI0
aS'off'
p2587
aa(lp2588
F0.3394617569852
aI65
aI57
aI0
aS'on'
p2589
aa(lp2590
F0.23567485342937
aI65
aI0
aI0
aS'off'
p2591
aa(lp2592
F0.37443668883066
aI68
aI73
aI0
aS'on'
p2593
aa(lp2594
F0.21849944567339
aI68
aI0
aI0
aS'off'
p2595
aa(lp2596
F0.40910188485668
aI72
aI93
aI0
aS'on'
p2597
aa(lp2598
F0.15669266465784
aI72
aI0
aI0
aS'off'
p2599
aa(lp2600
F0.27950140236931
aI75
aI95
aI0
aS'on'
p2601
aa(lp2602
F0.14760014692774
aI75
aI0
aI0
aS'off'
p2603
aa(lp2604
F2.1609718162679
aI74
aI105
aI0
aS'on'
p2605
aa(lp2606
F0.1213979107024
aI74
aI0
aI0
aS'off'
p2607
aa(lp2608
F3.8970826868851
aI68
aI90
aI0
aS'on'
p2609
aa(lp2610
F0.14827495145732
aI68
aI0
aI0
aS'off'
p2611
aa(lp2612
F0.40944478373285
aI70
aI104
aI0
aS'on'
p2613
aa(lp2614
F0.10506788582552
aI70
aI0
aI0
aS'off'
p2615
aa(lp2616
F3.8878143942813
aI82
aI69
aI0
aS'on'
p2617
aa(lp2618
F0.18371574823436
aI82
aI0
aI0
aS'off'
p2619
aa(lp2620
F0.52210260170841
aI80
aI8
aI0
aS'on'
p2621
aa(lp2622
F0.060610166816787
aI80
aI0
aI0
aS'off'
p2623
aa(lp2624
F0.63780128964595
aI77
aI79
aI0
aS'on'
p2625
aa(lp2626
F0.043448661470848
aI77
aI0
aI0
aS'off'
p2627
aa(lp2628
F0.061169729222684
aI77
aI6
aI0
aS'on'
p2629
aa(lp2630
F0.051870332498765
aI77
aI0
aI0
aS'off'
p2631
aa(lp2632
F0.54918424578909
aI70
aI85
aI0
aS'on'
p2633
aa(lp2634
F0.16595874994755
aI70
aI0
aI0
aS'off'
p2635
aa(lp2636
F1.0274853625726
aI65
aI90
aI0
aS'on'
p2637
aa(lp2638
F0.13953256805848
aI65
aI0
aI0
aS'off'
p2639
aa(lp2640
F0.40028448612838
aI68
aI53
aI0
aS'on'
p2641
aa(lp2642
F0.22698036574116
aI68
aI0
aI0
aS'off'
p2643
aa(lp2644
F0.27837135435539
aI72
aI36
aI0
aS'on'
p2645
aa(lp2646
F0.23665965385453
aI72
aI0
aI0
aS'off'
p2647
aa(lp2648
F0.44350964539876
aI75
aI107
aI0
aS'on'
p2649
aa(lp2650
F0.13034707306542
aI75
aI0
aI0
aS'off'
p2651
aa(lp2652
F2.3007258192542
aI74
aI95
aI0
aS'on'
p2653
aa(lp2654
F0.13046651308719
aI74
aI0
aI0
aS'off'
p2655
aa(lp2656
F1.244985882013
aI75
aI89
aI0
aS'on'
p2657
aa(lp2658
F0.10455029239256
aI75
aI0
aI0
aS'off'
p2659
aa(lp2660
F1.3940002586141
aI77
aI97
aI0
aS'on'
p2661
aa(lp2662
F0.12196445515519
aI77
aI0
aI0
aS'off'
p2663
aa(lp2664
F0.89645515920324
aI79
aI85
aI0
aS'on'
p2665
aa(lp2666
F0.11338380417874
aI79
aI0
aI0
aS'off'
p2667
aa(lp2668
F1.5238777956711
aI77
aI90
aI0
aS'on'
p2669
aa(lp2670
F0.05271995828889
aI77
aI0
aI0
aS'off'
p2671
aa(lp2672
F4.2763590247732
aI80
aI66
aI0
aS'on'
p2673
aa(lp2674
F0.095565137809672
aI80
aI0
aI0
aS'off'
p2675
aa(lp2676
F0.27028973803704
aI77
aI93
aI0
aS'on'
p2677
aa(lp2678
F0.04346008315315
aI77
aI0
aI0
aS'off'
p2679
aa(lp2680
F0.10574778018122
aI75
aI4
aI0
aS'on'
p2681
aa(lp2682
F0.04288380417961
aI75
aI0
aI0
aS'off'
p2683
aa(lp2684
F0.24494195568377
aI72
aI81
aI0
aS'on'
p2685
aa(lp2686
F0.043341858488247
aI72
aI0
aI0
aS'off'
p2687
aa(lp2688
F0.17433600461823
aI65
aI53
aI0
aS'on'
p2689
aa(lp2690
F0.043988002947572
aI65
aI0
aI0
aS'off'
p2691
aa(lp2692
F0.18331504074081
aI67
aI63
aI0
aS'on'
p2693
aa(lp2694
F0.043737216079307
aI67
aI0
aI0
aS'off'
p2695
aa(lp2696
F0.1730785259067
aI60
aI85
aI0
aS'on'
p2697
aa(lp2698
F0.043952969341717
aI60
aI0
aI0
aS'off'
p2699
aa(lp2700
F0.61025779347642
aI60
aI98
aI0
aS'on'
p2701
aa(lp2702
F0.16561842682609
aI60
aI0
aI0
aS'off'
p2703
aa(lp2704
F0.36668285695669
aI63
aI77
aI0
aS'on'
p2705
aa(lp2706
F0.17434925850466
aI63
aI0
aI0
aS'off'
p2707
aa(lp2708
F0.87256816184117
aI70
aI83
aI0
aS'on'
p2709
aa(lp2710
F0.17382422288983
aI70
aI0
aI0
aS'off'
p2711
aa(lp2712
F2.1682435767914
aI58
aI105
aI0
aS'on'
p2713
aa(lp2714
F0.4975977915276
aI58
aI0
aI0
aS'off'
p2715
aa(lp2716
F2.4754674644794
aI58
aI29
aI0
aS'on'
p2717
aa(lp2718
F0.25275847593912
aI58
aI0
aI0
aS'off'
p2719
aa(lp2720
F0.87132108951414
aI60
aI83
aI0
aS'on'
p2721
aa(lp2722
F0.38229660681054
aI60
aI0
aI0
aS'off'
p2723
aa(lp2724
F0.50401835580078
aI72
aI14
aI0
aS'on'
p2725
aa(lp2726
F0.17423368961795
aI72
aI0
aI0
aS'off'
p2727
aa(lp2728
F0.56654683676288
aI84
aI6
aI0
aS'on'
p2729
aa(lp2730
F0.052137622539249
aI84
aI0
aI0
aS'off'
p2731
aa(lp2732
F1.3076317040482
aI60
aI35
aI0
aS'on'
p2733
aa(lp2734
F0.043083526074497
aI60
aI0
aI0
aS'off'
p2735
aa(lp2736
F1.3423082984166
aI84
aI68
aI0
aS'on'
p2737
aa(lp2738
F0.14836259882327
aI84
aI0
aI0
aS'off'
p2739
aa(lp2740
F1.0978694835946
aI77
aI43
aI0
aS'on'
p2741
aa(lp2742
F0.078459738914717
aI77
aI0
aI0
aS'off'
p2743
aa(lp2744
F0.31329029478343
aI75
aI8
aI0
aS'on'
p2745
aa(lp2746
F0.095698268512024
aI75
aI0
aI0
aS'off'
p2747
aa(lp2748
F0.25285047291413
aI72
aI21
aI0
aS'on'
p2749
aa(lp2750
F0.043647448091406
aI72
aI0
aI0
aS'off'
p2751
aa(lp2752
F0.89845833656545
aI60
aI75
aI0
aS'on'
p2753
aa(lp2754
F0.043745498508088
aI60
aI0
aI0
aS'off'
p2755
aa(lp2756
F0.45333894249711
aI60
aI95
aI0
aS'on'
p2757
aa(lp2758
F0.25232431697054
aI60
aI0
aI0
aS'off'
p2759
aa(lp2760
F0.42754643641138
aI63
aI76
aI0
aS'on'
p2761
aa(lp2762
F0.22671252387227
aI63
aI0
aI0
aS'off'
p2763
aa(lp2764
F0.30509292785791
aI67
aI84
aI0
aS'on'
p2765
aa(lp2766
F0.25264099315814
aI67
aI0
aI0
aS'off'
p2767
aa(lp2768
F0.33168883784765
aI70
aI111
aI0
aS'on'
p2769
aa(lp2770
F0.1841952271584
aI70
aI0
aI0
aS'off'
p2771
aa(lp2772
F1.7241360927642
aI58
aI45
aI0
aS'on'
p2773
aa(lp2774
F0.14796573912463
aI58
aI0
aI0
aS'off'
p2775
aa(lp2776
F2.3440764286418
aI58
aI31
aI0
aS'on'
p2777
aa(lp2778
F0.13900952802828
aI58
aI0
aI0
aS'off'
p2779
aa(lp2780
F0.54001725288799
aI58
aI14
aI0
aS'on'
p2781
aa(lp2782
F0.13200469577191
aI58
aI0
aI0
aS'off'
p2783
aa(lp2784
F0.17383051473462
aI65
aI7
aI0
aS'on'
p2785
aa(lp2786
F0.16520329343621
aI65
aI0
aI0
aS'off'
p2787
aa(lp2788
F1.0625704117062
aI60
aI93
aI0
aS'on'
p2789
aa(lp2790
F0.1311454521624
aI60
aI0
aI0
aS'off'
p2791
aa(lp2792
F3.9330906032835
aI84
aI69
aI0
aS'on'
p2793
aa(lp2794
F0.14789766416402
aI84
aI0
aI0
aS'off'
p2795
aa(lp2796
F0.80961258898265
aI77
aI87
aI0
aS'on'
p2797
aa(lp2798
F0.070036764171164
aI77
aI0
aI0
aS'off'
p2799
aa(lp2800
F1.5070812189942
aI70
aI80
aI0
aS'on'
p2801
aa(lp2802
F0.043320505560359
aI70
aI0
aI0
aS'off'
p2803
aa(lp2804
F1.1760682259812
aI65
aI111
aI0
aS'on'
p2805
aa(lp2806
F0.14903877875599
aI65
aI0
aI0
aS'off'
p2807
aa(lp2808
F0.39155766729368
aI68
aI98
aI0
aS'on'
p2809
aa(lp2810
F0.16553899520227
aI68
aI0
aI0
aS'off'
p2811
aa(lp2812
F0.37531269068745
aI72
aI97
aI0
aS'on'
p2813
aa(lp2814
F0.15768759305251
aI72
aI0
aI0
aS'off'
p2815
aa(lp2816
F0.33129483898779
aI75
aI110
aI0
aS'on'
p2817
aa(lp2818
F0.13896517835747
aI75
aI0
aI0
aS'off'
p2819
aa(lp2820
F2.3200445721384
aI74
aI98
aI0
aS'on'
p2821
aa(lp2822
F0.15616298934901
aI74
aI0
aI0
aS'off'
p2823
aa(lp2824
F1.3071228415085
aI75
aI95
aI0
aS'on'
p2825
aa(lp2826
F0.043094837724311
aI75
aI0
aI0
aS'off'
p2827
aa(lp2828
F1.3705187651519
aI77
aI114
aI0
aS'on'
p2829
aa(lp2830
F0.1308111908188
aI77
aI0
aI0
aS'off'
p2831
aa(lp2832
F0.88932655232134
aI80
aI114
aI0
aS'on'
p2833
aa(lp2834
F0.13059525416929
aI80
aI0
aI0
aS'off'
p2835
aa(lp2836
F1.7846682733809
aI79
aI103
aI0
aS'on'
p2837
aa(lp2838
F0.12301388119636
aI79
aI0
aI0
aS'off'
p2839
aa(lp2840
F2.4156307894616
aI82
aI79
aI0
aS'on'
p2841
aa(lp2842
F0.1656717291221
aI82
aI0
aI0
aS'off'
p2843
aa(lp2844
F0.41825479196041
aI80
aI38
aI0
aS'on'
p2845
aa(lp2846
F0.078229202984858
aI80
aI0
aI0
aS'off'
p2847
aa(lp2848
F0.86362631995826
aI77
aI69
aI0
aS'on'
p2849
aa(lp2850
F0.043267518357197
aI77
aI0
aI0
aS'off'
p2851
aa(lp2852
F0.017454024450217
aI77
aI7
aI0
aS'on'
p2853
aa(lp2854
F0.070112254639753
aI77
aI0
aI0
aS'off'
p2855
aa(lp2856
F0.14711758710041
aI70
aI60
aI0
aS'on'
p2857
aa(lp2858
F0.043634914416543
aI70
aI0
aI0
aS'off'
p2859
aa(lp2860
F0.77800448934295
aI68
aI4
aI0
aS'on'
p2861
aa(lp2862
F0.077655554782496
aI67
aI28
aI0
aS'on'
p2863
aa(lp2864
F0.04341396129621
aI67
aI0
aI0
aS'off'
p2865
aa(lp2866
F0.017547246784716
aI68
aI0
aI0
aS'off'
p2867
aa(lp2868
F0.15709671813261
aI65
aI58
aI0
aS'on'
p2869
aa(lp2870
F0.043470284477507
aI65
aI0
aI0
aS'off'
p2871
aa(lp2872
F0.64519762669693
aI65
aI99
aI0
aS'on'
p2873
aa(lp2874
F0.1647519594319
aI65
aI0
aI0
aS'off'
p2875
aa(lp2876
F0.48812710791299
aI68
aI111
aI0
aS'on'
p2877
aa(lp2878
F0.16545309668231
aI68
aI0
aI0
aS'off'
p2879
aa(lp2880
F0.26172697230436
aI72
aI95
aI0
aS'on'
p2881
aa(lp2882
F0.13957173120798
aI72
aI0
aI0
aS'off'
p2883
aa(lp2884
F0.29534810886344
aI75
aI112
aI0
aS'on'
p2885
aa(lp2886
F0.1398137304991
aI75
aI0
aI0
aS'off'
p2887
aa(lp2888
F2.2467118815512
aI74
aI95
aI0
aS'on'
p2889
aa(lp2890
F0.19177642841464
aI74
aI0
aI0
aS'off'
p2891
aa(lp2892
F1.1578295131146
aI75
aI100
aI0
aS'on'
p2893
aa(lp2894
F0.23638008021271
aI75
aI0
aI0
aS'off'
p2895
aa(lp2896
F1.3773673032467
aI80
aI75
aI0
aS'on'
p2897
aa(lp2898
F0.24293180127643
aI80
aI0
aI0
aS'off'
p2899
aa(lp2900
F0.86233163366956
aI84
aI120
aI0
aS'on'
p2901
aa(lp2902
F0.18322319381014
aI84
aI0
aI0
aS'off'
p2903
aa(lp2904
F1.4374752994863
aI82
aI115
aI0
aS'on'
p2905
aa(lp2906
F0.13031610231815
aI82
aI0
aI0
aS'off'
p2907
aa(lp2908
F3.4082113840957
aI82
aI65
aI0
aS'on'
p2909
aa(lp2910
F0.1743292242968
aI82
aI0
aI0
aS'off'
p2911
aa(lp2912
F0.26919572058796
aI80
aI34
aI0
aS'on'
p2913
aa(lp2914
F0.13947355242067
aI80
aI0
aI0
aS'off'
p2915
aa(lp2916
F0.58352750408449
aI77
aI3
aI0
aS'on'
p2917
aa(lp2918
F0.37547582518778
aI77
aI0
aI0
aS'off'
p2919
aa(lp2920
F0.0165960512129
aI70
aI28
aI0
aS'on'
p2921
aa(lp2922
F0.14831798240766
aI70
aI0
aI0
aS'off'
p2923
aa(lp2924
F0.09656630803488
aI77
aI79
aI0
aS'on'
p2925
aa(lp2926
F0.31356871808771
aI70
aI63
aI0
aS'on'
p2927
aa(lp2928
F0.06940236648984
aI77
aI0
aI0
aS'off'
p2929
aa(lp2930
F0.21860572516948
aI70
aI0
aI0
aS'off'
p2931
aa(lp2932
F0.5099958487624
aI0
aI0
aI0
aS'timeAfterLastHit'
p2933
aaaI0
aI0
aa(lp2934
(lp2935
(lp2936
F0.0
aI70
aI92
aI1
aS'on'
p2937
aa(lp2938
F0.0058041877587129
aI74
aI111
aI1
aS'on'
p2939
aa(lp2940
F0.03130323574851
aI67
aI95
aI1
aS'on'
p2941
aa(lp2942
F0.12500882032327
aI74
aI0
aI1
aS'off'
p2943
aa(lp2944
F0.030915561537768
aI70
aI0
aI1
aS'off'
p2945
aa(lp2946
F0.010381194458205
aI67
aI0
aI1
aS'off'
p2947
aa(lp2948
F0.48658195921416
aI68
aI99
aI1
aS'on'
p2949
aa(lp2950
F0.010734108770976
aI72
aI110
aI1
aS'on'
p2951
aa(lp2952
F0.00017740717294146
aI65
aI106
aI1
aS'on'
p2953
aa(lp2954
F4.9059162312246
aI68
aI0
aI1
aS'off'
p2955
aa(lp2956
F0.031037631731124
aI72
aI0
aI1
aS'off'
p2957
aa(lp2958
F0.072789368333815
aI65
aI0
aI1
aS'off'
p2959
aa(lp2960
F0.28913843813643
aI74
aI114
aI1
aS'on'
p2961
aa(lp2962
F0.00036546286219163
aI67
aI97
aI1
aS'on'
p2963
aa(lp2964
F0.00033581203024369
aI70
aI92
aI1
aS'on'
p2965
aa(lp2966
F0.10205433650162
aI70
aI0
aI1
aS'off'
p2967
aa(lp2968
F0.041747220553134
aI74
aI0
aI1
aS'off'
p2969
aa(lp2970
F0.041542508831753
aI67
aI0
aI1
aS'off'
p2971
aa(lp2972
F0.49861645627561
aI68
aI94
aI1
aS'on'
p2973
aa(lp2974
F0.010339286627186
aI72
aI96
aI1
aS'on'
p2975
aa(lp2976
F0.010534093582464
aI65
aI109
aI1
aS'on'
p2977
aa(lp2978
F0.11387629164255
aI72
aI0
aI1
aS'off'
p2979
aa(lp2980
F0.072589220261762
aI68
aI0
aI1
aS'off'
p2981
aa(lp2982
F0.010690885990243
aI65
aI0
aI1
aS'off'
p2983
aa(lp2984
F0.49505045885098
aI70
aI112
aI1
aS'on'
p2985
aa(lp2986
F0.00018097717293131
aI74
aI105
aI1
aS'on'
p2987
aa(lp2988
F0.009993282247251
aI77
aI116
aI1
aS'on'
p2989
aa(lp2990
F8.5822955621593
aI70
aI0
aI1
aS'off'
p2991
aa(lp2992
F0.0
aI74
aI0
aI1
aS'off'
p2993
aa(lp2994
F0.0
aI77
aI0
aI1
aS'off'
p2995
aa(lp2996
F0.010000000000218
aI0
aI0
aI0
aS'timeAfterLastHit'
p2997
aaa(lp2998
(lp2999
F0.13416338839374
aI81
aI105
aI1
ag532
aa(lp3000
F0.12294940555626
aI82
aI85
aI1
ag534
aa(lp3001
F0.091220176731213
aI81
aI0
aI1
ag536
aa(lp3002
F0.04056521322741
aI83
aI89
aI1
ag538
aa(lp3003
F0.071935440735842
aI82
aI0
aI1
ag540
aa(lp3004
F0.081415117590495
aI83
aI0
aI1
ag542
aa(lp3005
F0.041436324375923
aI81
aI99
aI1
ag544
aa(lp3006
F0.1430972382791
aI82
aI67
aI1
ag546
aa(lp3007
F0.092766064367765
aI81
aI0
aI1
ag548
aa(lp3008
F0.00049717217689249
aI83
aI73
aI1
ag550
aa(lp3009
F0.029762118907684
aI82
aI0
aI1
ag552
aa(lp3010
F0.11271444756119
aI83
aI0
aI1
ag554
aa(lp3011
F0.071794817162527
aI81
aI82
aI1
ag556
aa(lp3012
F0.1333068366514
aI82
aI93
aI1
ag558
aa(lp3013
F0.040587883201169
aI81
aI0
aI1
ag560
aa(lp3014
F0.07132435449148
aI83
aI80
aI1
ag562
aa(lp3015
F0.041408118165805
aI82
aI0
aI1
ag564
aa(lp3016
F0.1020210906421
aI83
aI0
aI1
ag566
aa(lp3017
F0.071356024279225
aI81
aI96
aI1
ag568
aa(lp3018
F0.15328287165062
aI82
aI88
aI1
ag570
aa(lp3019
F0.06212651641647
aI81
aI0
aI1
ag572
aa(lp3020
F0.00019492023636758
aI82
aI0
aI1
ag574
aa(lp3021
F0.031525494882089
aI83
aI88
aI1
ag576
aa(lp3022
F0.13243140191094
aI83
aI0
aI1
ag578
aa(lp3023
F0.061928638033805
aI81
aI99
aI1
ag580
aa(lp3024
F0.15289380107913
aI82
aI68
aI1
ag582
aa(lp3025
F0.051453874351864
aI81
aI0
aI1
ag584
aa(lp3026
F0.00021471434433806
aI82
aI0
aI1
ag586
aa(lp3027
F0.081635808954388
aI83
aI93
aI1
ag588
aa(lp3028
F0.11224166343197
aI83
aI0
aI1
ag590
aa(lp3029
F0.072498640288472
aI81
aI94
aI1
ag592
aa(lp3030
F0.12184328248384
aI81
aI0
aI1
ag594
aa(lp3031
F0.030748631033589
aI81
aI18
aI1
ag596
aa(lp3032
F0.051574887969878
aI82
aI98
aI1
ag598
aa(lp3033
F0.061136540714642
aI81
aI0
aI1
ag600
aa(lp3034
F0.094040625416596
aI83
aI86
aI1
ag602
aa(lp3035
F0.039063862333023
aI82
aI0
aI1
ag604
aa(lp3036
F0.020832369130403
aI83
aI0
aI1
ag606
aa(lp3037
F0.14290477075747
aI81
aI104
aI1
ag608
aa(lp3038
F0.13372547692416
aI82
aI89
aI1
ag610
aa(lp3039
F0.07198269662058
aI81
aI0
aI1
ag612
aa(lp3040
F0.051122757964777
aI83
aI91
aI1
ag614
aa(lp3041
F0.071517041428137
aI82
aI0
aI1
ag616
aa(lp3042
F0.09194406039137
aI83
aI0
aI1
ag618
aa(lp3043
F0.071218364728452
aI81
aI95
aI1
ag620
aa(lp3044
F0.1644650082311
aI82
aI98
aI1
ag622
aa(lp3045
F0.010198829440469
aI81
aI0
aI1
ag624
aa(lp3046
F0.041122141901383
aI82
aI0
aI1
ag626
aa(lp3047
F0.082333801986124
aI83
aI92
aI1
ag628
aa(lp3048
F0.14381533690528
aI81
aI93
aI1
ag630
aa(lp3049
F0.010505614592148
aI83
aI0
aI1
ag632
aa(lp3050
F0.07715432096893
aI81
aI0
aI1
ag634
aa(lp3051
F0.0099999999999909
aI0
aI0
aI0
ag636
aaa(lp3052
(lp3053
F0.0
aI68
aI83
aI1
ag639
aa(lp3054
F0.0
aI67
aI84
aI1
ag641
aa(lp3055
F0.013907942089645
aI68
aI0
aI1
ag643
aa(lp3056
F0.026193205244454
aI67
aI0
aI1
ag645
aa(lp3057
F0.13861399371854
aI67
aI95
aI1
ag647
aa(lp3058
F0.09555725383052
aI67
aI0
aI1
ag649
aa(lp3059
F0.12197254252715
aI67
aI101
aI1
ag651
aa(lp3060
F0.043421378470157
aI67
aI0
aI1
ag653
aa(lp3061
F0.22753845771604
aI67
aI96
aI1
ag655
aa(lp3062
F0.096494286916823
aI67
aI0
aI1
ag657
aa(lp3063
F0.12977297806538
aI67
aI100
aI1
ag659
aa(lp3064
F0.043444743655527
aI67
aI0
aI1
ag661
aa(lp3065
F0.24522194444762
aI67
aI96
aI1
ag663
aa(lp3066
F0.052281014583968
aI67
aI0
aI1
ag665
aa(lp3067
F0.20849988198279
aI67
aI105
aI1
ag667
aa(lp3068
F0.044691489219986
aI67
aI0
aI1
ag669
aa(lp3069
F0.2009790600996
aI67
aI97
aI1
ag671
aa(lp3070
F0.052495634180559
aI67
aI0
aI1
ag673
aa(lp3071
F0.21750653953859
aI67
aI108
aI1
ag675
aa(lp3072
F0.043997980872518
aI67
aI0
aI1
ag677
aa(lp3073
F0.19204772129524
aI67
aI96
aI1
ag679
aa(lp3074
F0.043731641110753
aI67
aI0
aI1
ag681
aa(lp3075
F0.22624730579719
aI67
aI112
aI1
ag683
aa(lp3076
F0.044019610548276
aI67
aI0
aI1
ag685
aa(lp3077
F0.20048211105131
aI67
aI93
aI1
ag687
aa(lp3078
F0.052901896636286
aI67
aI0
aI1
ag689
aa(lp3079
F0.2525327097419
aI67
aI99
aI1
ag691
aa(lp3080
F0.043933168535659
aI67
aI0
aI1
ag693
aa(lp3081
F0.17412489771777
aI67
aI90
aI1
ag695
aa(lp3082
F0.05244290538667
aI67
aI0
aI1
ag697
aa(lp3083
F0.20929044045351
aI67
aI98
aI1
ag699
aa(lp3084
F0.043827410859194
aI67
aI0
aI1
ag701
aa(lp3085
F0.20084762656097
aI67
aI98
aI1
ag703
aa(lp3086
F0.051969654954519
aI67
aI0
aI1
ag705
aa(lp3087
F0.20036457158858
aI74
aI94
aI1
ag707
aa(lp3088
F0.044468392137787
aI74
aI0
aI1
ag709
aa(lp3089
F0.14743285120676
aI74
aI102
aI1
ag711
aa(lp3090
F0.061228821548866
aI74
aI0
aI1
ag713
aa(lp3091
F0.20821814437386
aI74
aI98
aI1
ag715
aa(lp3092
F0.043532184295145
aI74
aI0
aI1
ag717
aa(lp3093
F0.19219222033098
aI74
aI103
aI1
ag719
aa(lp3094
F0.051864420765014
aI74
aI0
aI1
ag721
aa(lp3095
F0.20926591659645
aI74
aI92
aI1
ag723
aa(lp3096
F0.042919316259031
aI74
aI0
aI1
ag725
aa(lp3097
F0.2016240158764
aI74
aI102
aI1
ag727
aa(lp3098
F0.052151449926896
aI74
aI0
aI1
ag729
aa(lp3099
F0.23560018320131
aI74
aI103
aI1
ag731
aa(lp3100
F0.044139404007183
aI74
aI0
aI1
ag733
aa(lp3101
F0.19132035968778
aI74
aI95
aI1
ag735
aa(lp3102
F0.052580737466997
aI74
aI0
aI1
ag737
aa(lp3103
F0.2532493832141
aI74
aI99
aI1
ag739
aa(lp3104
F0.043456061974211
aI74
aI0
aI1
ag741
aa(lp3105
F0.15629244564116
aI74
aI98
aI1
ag743
aa(lp3106
F0.060701050131684
aI74
aI0
aI1
ag745
aa(lp3107
F0.23508781296732
aI74
aI98
aI1
ag747
aa(lp3108
F0.04415729091761
aI74
aI0
aI1
ag749
aa(lp3109
F0.16586740483035
aI74
aI86
aI1
ag751
aa(lp3110
F0.052329387101054
aI74
aI0
aI1
ag753
aa(lp3111
F0.21811276896096
aI74
aI99
aI1
ag755
aa(lp3112
F0.053169420077211
aI74
aI0
aI1
ag757
aa(lp3113
F0.15605397738545
aI74
aI98
aI1
ag759
aa(lp3114
F0.061285661549846
aI74
aI0
aI1
ag761
aa(lp3115
F0.191473859697
aI74
aI99
aI1
ag763
aa(lp3116
F0.042976876467947
aI74
aI0
aI1
ag765
aa(lp3117
F0.20223042535144
aI74
aI102
aI1
ag767
aa(lp3118
F0.060970552487561
aI74
aI0
aI1
ag769
aa(lp3119
F0.20061788419662
aI75
aI103
aI1
ag771
aa(lp3120
F0.051761337206699
aI75
aI0
aI1
ag773
aa(lp3121
F0.13944670121418
aI75
aI98
aI1
ag775
aa(lp3122
F0.052558786030204
aI75
aI0
aI1
ag777
aa(lp3123
F0.24445343244133
aI75
aI103
aI1
ag779
aa(lp3124
F0.043344145825358
aI75
aI0
aI1
ag781
aa(lp3125
F0.16631021967078
aI75
aI95
aI1
ag783
aa(lp3126
F0.05231822382666
aI75
aI0
aI1
ag785
aa(lp3127
F0.23579898649405
aI75
aI109
aI1
ag787
aa(lp3128
F0.043451012160403
aI75
aI0
aI1
ag789
aa(lp3129
F0.19153778844247
aI75
aI93
aI1
ag791
aa(lp3130
F0.052570976271454
aI75
aI0
aI1
ag793
aa(lp3131
F0.20920412347732
aI75
aI109
aI1
ag795
aa(lp3132
F0.052225116526643
aI75
aI0
aI1
ag797
aa(lp3133
F0.17387897727804
aI75
aI98
aI1
ag799
aa(lp3134
F0.051913841923124
aI75
aI0
aI1
ag801
aa(lp3135
F0.22716859760021
aI75
aI107
aI1
ag803
aa(lp3136
F0.043337093757145
aI75
aI0
aI1
ag805
aa(lp3137
F0.18300808573804
aI75
aI96
aI1
ag807
aa(lp3138
F0.052215360332411
aI75
aI0
aI1
ag809
aa(lp3139
F0.20925685393922
aI75
aI100
aI1
ag811
aa(lp3140
F0.043626957083688
aI75
aI0
aI1
ag813
aa(lp3141
F0.19159198933357
aI75
aI99
aI1
ag815
aa(lp3142
F0.051993313559251
aI75
aI0
aI1
ag817
aa(lp3143
F0.20888185565036
aI75
aI103
aI1
ag819
aa(lp3144
F0.051952291530142
aI75
aI0
aI1
ag821
aa(lp3145
F0.19123433279765
aI75
aI98
aI1
ag823
aa(lp3146
F0.052572506720026
aI75
aI0
aI1
ag825
aa(lp3147
F0.22692218201428
aI75
aI103
aI1
ag827
aa(lp3148
F0.043998656070471
aI75
aI0
aI1
ag829
aa(lp3149
F0.16601942440502
aI75
aI97
aI1
ag831
aa(lp3150
F0.052100469978541
aI75
aI0
aI1
ag833
aa(lp3151
F0.23585016983452
aI75
aI95
aI1
ag835
aa(lp3152
F0.043908532979913
aI75
aI0
aI1
ag837
aa(lp3153
F0.15735569073331
aI75
aI98
aI1
ag839
aa(lp3154
F0.052223192629754
aI75
aI0
aI1
ag841
aa(lp3155
F0.24520561299141
aI75
aI97
aI1
ag843
aa(lp3156
F0.043564352059548
aI75
aI0
aI1
ag845
aa(lp3157
F0.1480765399474
aI75
aI94
aI1
ag847
aa(lp3158
F0.052691511614285
aI75
aI0
aI1
ag849
aa(lp3159
F0.21689950821383
aI75
aI97
aI1
ag851
aa(lp3160
F0.043886481513255
aI75
aI0
aI1
ag853
aa(lp3161
F0.17484129277727
aI75
aI97
aI1
ag855
aa(lp3162
F0.053072906777743
aI75
aI0
aI1
ag857
aa(lp3163
F0.23373586322214
aI75
aI102
aI1
ag859
aa(lp3164
F0.043990223598485
aI75
aI0
aI1
ag861
aa(lp3165
F0.1651586886901
aI75
aI103
aI1
ag863
aa(lp3166
F0.096239633915502
aI75
aI0
aI1
ag865
aa(lp3167
F0.20052883808694
aI82
aI78
aI1
ag867
aa(lp3168
F0.00020683731418103
aI77
aI89
aI1
ag869
aa(lp3169
F0.043197957961638
aI77
aI0
aI1
ag871
aa(lp3170
F0.026970161391546
aI82
aI0
aI1
ag873
aa(lp3171
F0.1646313323954
aI75
aI97
aI1
ag875
aa(lp3172
F0.053077037990079
aI75
aI0
aI1
ag877
aa(lp3173
F0.20884519490119
aI75
aI98
aI1
ag879
aa(lp3174
F0.078207524961726
aI75
aI0
aI1
ag881
aa(lp3175
F0.13058362409265
aI75
aI95
aI1
ag883
aa(lp3176
F0.052376921038558
aI75
aI0
aI1
ag885
aa(lp3177
F0.22642936751254
aI75
aI98
aI1
ag887
aa(lp3178
F0.069724632649013
aI75
aI0
aI1
ag889
aa(lp3179
F0.17427299281007
aI75
aI92
aI1
ag891
aa(lp3180
F0.051994513911268
aI75
aI0
aI1
ag893
aa(lp3181
F0.17398459324613
aI75
aI108
aI1
ag895
aa(lp3182
F0.08695091865593
aI75
aI0
aI1
ag897
aa(lp3183
F0.17498522831374
aI75
aI97
aI1
ag899
aa(lp3184
F0.052175657025145
aI75
aI0
aI1
ag901
aa(lp3185
F0.29957814491536
aI0
aI0
aI0
ag903
aaa(lp3186
(lp3187
F0.0
aI72
aI98
aI1
ag906
aa(lp3188
F0.047129908076386
aI72
aI0
aI1
ag908
aa(lp3189
F0.11334296720452
aI72
aI77
aI1
ag910
aa(lp3190
F0.1662133546015
aI72
aI0
aI1
ag912
aa(lp3191
F0.14741681984015
aI84
aI101
aI1
ag914
aa(lp3192
F0.043312089759638
aI84
aI0
aI1
ag916
aa(lp3193
F0.19252072665404
aI84
aI67
aI1
ag918
aa(lp3194
F0.043290601792251
aI84
aI0
aI1
ag920
aa(lp3195
F0.18314152319545
aI72
aI96
aI1
ag922
aa(lp3196
F0.12220794154928
aI72
aI0
aI1
ag924
aa(lp3197
F0.16488609376211
aI96
aI108
aI1
ag926
aa(lp3198
F0.078117190140802
aI96
aI0
aI1
ag928
aa(lp3199
F0.15693451390416
aI96
aI79
aI1
ag930
aa(lp3200
F0.087109228410554
aI96
aI0
aI1
ag932
aa(lp3201
F0.17494278420236
aI72
aI101
aI1
ag934
aa(lp3202
F0.11296431784467
aI72
aI0
aI1
ag936
aa(lp3203
F0.16556861388653
aI84
aI108
aI1
ag938
aa(lp3204
F0.043587533857135
aI84
aI0
aI1
ag940
aa(lp3205
F0.18267535984432
aI84
aI96
aI1
ag942
aa(lp3206
F0.087259937599811
aI84
aI0
aI1
ag944
aa(lp3207
F0.14786485620971
aI72
aI99
aI1
ag946
aa(lp3208
F0.13075696992018
aI72
aI0
aI1
ag948
aa(lp3209
F0.11364083621174
aI84
aI101
aI1
ag950
aa(lp3210
F0.078456021156853
aI84
aI0
aI1
ag952
aa(lp3211
F0.18398649262144
aI72
aI110
aI1
ag954
aa(lp3212
F0.096345798378024
aI72
aI0
aI1
ag956
aa(lp3213
F0.14834166268429
aI84
aI105
aI1
ag958
aa(lp3214
F0.043145262509825
aI84
aI0
aI1
ag960
aa(lp3215
F0.16626190883744
aI84
aI92
aI1
ag962
aa(lp3216
F0.096663038064435
aI84
aI0
aI1
ag964
aa(lp3217
F0.1734074223441
aI72
aI105
aI1
ag966
aa(lp3218
F0.12196824793409
aI72
aI0
aI1
ag968
aa(lp3219
F0.15804446602579
aI96
aI112
aI1
ag970
aa(lp3220
F0.095691696586073
aI96
aI0
aI1
ag972
aa(lp3221
F0.14820330378188
aI72
aI108
aI1
ag974
aa(lp3222
F0.1129788854505
aI72
aI0
aI1
ag976
aa(lp3223
F0.14003545551259
aI84
aI116
aI1
ag978
aa(lp3224
F0.078147947491743
aI84
aI0
aI1
ag980
aa(lp3225
F0.156675946424
aI72
aI103
aI1
ag982
aa(lp3226
F0.086207640715656
aI72
aI0
aI1
ag984
aa(lp3227
F0.16472025013354
aI96
aI105
aI1
ag986
aa(lp3228
F0.070016346518969
aI96
aI0
aI1
ag988
aa(lp3229
F0.20034971556379
aI96
aI67
aI1
ag990
aa(lp3230
F0.043835543245223
aI96
aI0
aI1
ag992
aa(lp3231
F0.20972401925246
aI72
aI104
aI1
ag994
aa(lp3232
F0.11316751075719
aI72
aI0
aI1
ag996
aa(lp3233
F0.11317528137079
aI84
aI115
aI1
ag998
aa(lp3234
F0.069711367093078
aI84
aI0
aI1
ag1000
aa(lp3235
F0.13039815637694
aI72
aI111
aI1
ag1002
aa(lp3236
F0.12182083637708
aI72
aI0
aI1
ag1004
aa(lp3237
F0.1398308888638
aI96
aI101
aI1
ag1006
aa(lp3238
F0.043477096474817
aI96
aI0
aI1
ag1008
aa(lp3239
F0.19233733621513
aI96
aI83
aI1
ag1010
aa(lp3240
F0.11291471996901
aI96
aI0
aI1
ag1012
aa(lp3241
F0.14807627987011
aI72
aI105
aI1
ag1014
aa(lp3242
F0.11395434480255
aI72
aI0
aI1
ag1016
aa(lp3243
F0.18297819030522
aI84
aI116
aI1
ag1018
aa(lp3244
F0.069840046489844
aI84
aI0
aI1
ag1020
aa(lp3245
F0.20858391329057
aI72
aI105
aI1
ag1022
aa(lp3246
F0.087579939761781
aI72
aI0
aI1
ag1024
aa(lp3247
F0.11489173632708
aI94
aI114
aI1
ag1026
aa(lp3248
F0.15638466434848
aI96
aI53
aI1
ag1028
aa(lp3249
F0.061686028942859
aI94
aI0
aI1
ag1030
aa(lp3250
F0.19117091086628
aI96
aI0
aI1
ag1032
aa(lp3251
F0.10429320701223
aI72
aI120
aI1
ag1034
aa(lp3252
F0.13121401893295
aI72
aI0
aI1
ag1036
aa(lp3253
F0.18276321893791
aI72
aI118
aI1
ag1038
aa(lp3254
F0.096012567337311
aI72
aI0
aI1
ag1040
aa(lp3255
F0.087364608290954
aI84
aI114
aI1
ag1042
aa(lp3256
F0.12123410933873
aI84
aI0
aI1
ag1044
aa(lp3257
F0.15703129228223
aI72
aI105
aI1
ag1046
aa(lp3258
F0.10423054363764
aI72
aI0
aI1
ag1048
aa(lp3259
F0.16562470366716
aI96
aI109
aI1
ag1050
aa(lp3260
F0.095467360806651
aI96
aI0
aI1
ag1052
aa(lp3261
F0.17396161317356
aI96
aI91
aI1
ag1054
aa(lp3262
F0.087350894269548
aI96
aI0
aI1
ag1056
aa(lp3263
F0.10508160818335
aI72
aI101
aI1
ag1058
aa(lp3264
F0.094899147530668
aI72
aI0
aI1
ag1060
aa(lp3265
F0.15644855141363
aI84
aI106
aI1
ag1062
aa(lp3266
F0.043701597302061
aI84
aI0
aI1
ag1064
aa(lp3267
F0.16523172343841
aI72
aI112
aI1
ag1066
aa(lp3268
F0.09597961934287
aI72
aI0
aI1
ag1068
aa(lp3269
F0.14818813600141
aI96
aI100
aI1
ag1070
aa(lp3270
F0.078181282266996
aI96
aI0
aI1
ag1072
aa(lp3271
F0.19177747538743
aI96
aI97
aI1
ag1074
aa(lp3272
F0.096480174445787
aI96
aI0
aI1
ag1076
aa(lp3273
F0.14844150862791
aI72
aI101
aI1
ag1078
aa(lp3274
F0.10414237778605
aI72
aI0
aI1
ag1080
aa(lp3275
F0.1910643346182
aI84
aI112
aI1
ag1082
aa(lp3276
F0.043136003127074
aI84
aI0
aI1
ag1084
aa(lp3277
F0.16637359491961
aI72
aI112
aI1
ag1086
aa(lp3278
F0.1048125009429
aI72
aI0
aI1
ag1088
aa(lp3279
F0.17431005534308
aI84
aI110
aI1
ag1090
aa(lp3280
F0.043702562585167
aI84
aI0
aI1
ag1092
aa(lp3281
F0.16594958726091
aI72
aI113
aI1
ag1094
aa(lp3282
F0.12218422626211
aI72
aI0
aI1
ag1096
aa(lp3283
F0.13878015243881
aI84
aI110
aI1
ag1098
aa(lp3284
F0.043788146012957
aI84
aI0
aI1
ag1100
aa(lp3285
F0.19243515489597
aI84
aI86
aI1
ag1102
aa(lp3286
F0.078260772241265
aI84
aI0
aI1
ag1104
aa(lp3287
F0.16617908288572
aI72
aI114
aI1
ag1106
aa(lp3288
F0.11288215375316
aI72
aI0
aI1
ag1108
aa(lp3289
F0.10449945582059
aI89
aI118
aI1
ag1110
aa(lp3290
F0.096738715254105
aI89
aI0
aI1
ag1112
aa(lp3291
F0.18313376425431
aI72
aI112
aI1
ag1114
aa(lp3292
F0.1053727485496
aI72
aI0
aI1
ag1116
aa(lp3293
F0.13907895671855
aI84
aI102
aI1
ag1118
aa(lp3294
F0.043626490280985
aI84
aI0
aI1
ag1120
aa(lp3295
F0.22603536698534
aI84
aI71
aI1
ag1122
aa(lp3296
F0.043391027905272
aI84
aI0
aI1
ag1124
aa(lp3297
F0.22669705767112
aI84
aI112
aI1
ag1126
aa(lp3298
F0.095698500246726
aI84
aI0
aI1
ag1128
aa(lp3299
F0.1304083860432
aI72
aI111
aI1
ag1130
aa(lp3300
F0.13020421617784
aI72
aI0
aI1
ag1132
aa(lp3301
F0.09668838716334
aI91
aI117
aI1
ag1134
aa(lp3302
F0.12221292634422
aI91
aI0
aI1
ag1136
aa(lp3303
F0.14058639538962
aI72
aI107
aI1
ag1138
aa(lp3304
F0.12065960588643
aI72
aI0
aI1
ag1140
aa(lp3305
F0.13053436965038
aI92
aI112
aI1
ag1142
aa(lp3306
F0.11282573387689
aI92
aI0
aI1
ag1144
aa(lp3307
F0.16588307109123
aI72
aI115
aI1
ag1146
aa(lp3308
F0.12286090800808
aI72
aI0
aI1
ag1148
aa(lp3309
F0.13868280556198
aI94
aI112
aI1
ag1150
aa(lp3310
F0.095839158156195
aI94
aI0
aI1
ag1152
aa(lp3311
F0.13981470078397
aI72
aI114
aI1
ag1154
aa(lp3312
F0.11277172137306
aI72
aI0
aI1
ag1156
aa(lp3313
F0.11297438413112
aI96
aI116
aI1
ag1158
aa(lp3314
F0.12158217639808
aI96
aI0
aI1
ag1160
aa(lp3315
F0.21216881537475
aI0
aI0
aI0
ag1162
aaaa(lp3316
(lp3317
(lp3318
F0.60348545708098
aI24
aI114
aI2
aS'on'
p3319
aa(lp3320
F0.68506381473094
aI24
aI0
aI2
aS'off'
p3321
aa(lp3322
F0.051426691885695
aI27
aI113
aI2
aS'on'
p3323
aa(lp3324
F0.65451660775477
aI29
aI115
aI2
aS'on'
p3325
aa(lp3326
F0.051333344324576
aI27
aI0
aI2
aS'off'
p3327
aa(lp3328
F0.69552691688432
aI31
aI120
aI2
aS'on'
p3329
aa(lp3330
F0.030584539257461
aI29
aI0
aI2
aS'off'
p3331
aa(lp3332
F0.6235503661029
aI31
aI0
aI2
aS'off'
p3333
aa(lp3334
F0.052318089100254
aI34
aI110
aI2
aS'on'
p3335
aa(lp3336
F0.48716100326351
aI36
aI120
aI2
aS'on'
p3337
aa(lp3338
F0.020752462333689
aI34
aI0
aI2
aS'off'
p3339
aa(lp3340
F0.69622479432678
aI34
aI115
aI2
aS'on'
p3341
aa(lp3342
F0.041402761189829
aI36
aI0
aI2
aS'off'
p3343
aa(lp3344
F0.63242372553293
aI31
aI120
aI2
aS'on'
p3345
aa(lp3346
F0.031813259801993
aI34
aI0
aI2
aS'off'
p3347
aa(lp3348
F0.53792482353833
aI31
aI0
aI2
aS'off'
p3349
aa(lp3350
F0.010287702113601
aI29
aI112
aI2
aS'on'
p3351
aa(lp3352
F0.70533430527621
aI31
aI120
aI2
aS'on'
p3353
aa(lp3354
F0.041337618610441
aI29
aI0
aI2
aS'off'
p3355
aa(lp3356
F0.67357057525464
aI34
aI113
aI2
aS'on'
p3357
aa(lp3358
F0.021023302351068
aI31
aI0
aI2
aS'off'
p3359
aa(lp3360
F0.53960378452314
aI31
aI123
aI2
aS'on'
p3361
aa(lp3362
F0.031005182416152
aI34
aI0
aI2
aS'off'
p3363
aa(lp3364
F3.6336051521632
aI31
aI0
aI2
aS'off'
p3365
aa(lp3366
F1.0163423538809
aI27
aI118
aI2
aS'on'
p3367
aa(lp3368
F0.65453358707043
aI29
aI108
aI2
aS'on'
p3369
aa(lp3370
F0.062612830063472
aI27
aI0
aI2
aS'off'
p3371
aa(lp3372
F0.60085910233283
aI31
aI121
aI2
aS'on'
p3373
aa(lp3374
F0.020599930125968
aI29
aI0
aI2
aS'off'
p3375
aa(lp3376
F0.67410721960653
aI29
aI108
aI2
aS'on'
p3377
aa(lp3378
F0.062577421615401
aI31
aI0
aI2
aS'off'
p3379
aa(lp3380
F0.65342300376869
aI27
aI116
aI2
aS'on'
p3381
aa(lp3382
F0.14403187955816
aI29
aI0
aI2
aS'off'
p3383
aa(lp3384
F0.49876528956679
aI27
aI0
aI2
aS'off'
p3385
aa(lp3386
F0.06087110259341
aI0
aI0
aI0
aS'timeAfterLastHit'
p3387
aaa(lp3388
(lp3389
F0.017301133480032
aI43
aI117
aI2
ag1197
aa(lp3390
F0.11418611804038
aI44
aI84
aI2
ag1199
aa(lp3391
F0.16616025749499
aI43
aI0
aI2
ag1201
aa(lp3392
F0.33124642700204
aI44
aI0
aI2
ag1203
aa(lp3393
F0.1247194103571
aI43
aI118
aI2
ag1205
aa(lp3394
F0.46534784044161
aI43
aI0
aI2
ag1207
aa(lp3395
F0.19769004146292
aI41
aI98
aI2
ag1209
aa(lp3396
F0.23766260718639
aI41
aI0
aI2
ag1211
aa(lp3397
F0.31210769977406
aI43
aI120
aI2
ag1213
aa(lp3398
F0.71724958814411
aI43
aI0
aI2
ag1215
aa(lp3399
F0.2276218558427
aI41
aI112
aI2
ag1217
aa(lp3400
F0.2585374709297
aI41
aI0
aI2
ag1219
aa(lp3401
F0.30131171100675
aI39
aI118
aI2
ag1221
aa(lp3402
F0.86218141110021
aI39
aI0
aI2
ag1223
aa(lp3403
F1.6576371580095
aI39
aI108
aI2
ag1225
aa(lp3404
F0.20763112238183
aI39
aI0
aI2
ag1227
aa(lp3405
F0.00024268660126836
aI36
aI118
aI2
ag1229
aa(lp3406
F0.18643955998959
aI36
aI0
aI2
ag1231
aa(lp3407
F0.3743084883954
aI39
aI99
aI2
ag1233
aa(lp3408
F0.19646091631785
aI39
aI0
aI2
ag1235
aa(lp3409
F0.55881660114756
aI41
aI105
aI2
ag1237
aa(lp3410
F0.22725833664663
aI41
aI0
aI2
ag1239
aa(lp3411
F0.36269047742553
aI39
aI114
aI2
ag1241
aa(lp3412
F0.67520143842557
aI39
aI0
aI2
ag1243
aa(lp3413
F0.25921885695698
aI36
aI114
aI2
ag1245
aa(lp3414
F0.28997999220337
aI36
aI0
aI2
ag1247
aa(lp3415
F0.25009899697579
aI34
aI105
aI2
ag1249
aa(lp3416
F0.58025869223911
aI34
aI0
aI2
ag1251
aa(lp3417
F0.35223694882188
aI36
aI97
aI2
ag1253
aa(lp3418
F0.23957322347542
aI36
aI0
aI2
ag1255
aa(lp3419
F0.2904232751107
aI39
aI106
aI2
ag1257
aa(lp3420
F0.60298971985867
aI39
aI0
aI2
ag1259
aa(lp3421
F0.26933072864722
aI36
aI100
aI2
ag1261
aa(lp3422
F0.30022688525332
aI36
aI0
aI2
ag1263
aa(lp3423
F0.25953763612142
aI39
aI114
aI2
ag1265
aa(lp3424
F0.72423770010118
aI39
aI0
aI2
ag1267
aa(lp3425
F0.17648750727221
aI36
aI83
aI2
ag1269
aa(lp3426
F0.20647894461581
aI36
aI0
aI2
ag1271
aa(lp3427
F0.35200159460146
aI39
aI111
aI2
ag1273
aa(lp3428
F0.10413530127971
aI41
aI17
aI2
ag1275
aa(lp3429
F0.15559372848111
aI39
aI0
aI2
ag1277
aa(lp3430
F0.63301525268071
aI41
aI0
aI2
ag1279
aa(lp3431
F0.07315506721261
aI39
aI101
aI2
ag1281
aa(lp3432
F0.36338148460254
aI39
aI0
aI2
ag1283
aa(lp3433
F0.73762810588505
aI0
aI0
aI0
ag1285
aaa(lp3434
(lp3435
F0.0071493820878459
aI24
aI117
aI2
ag1288
aa(lp3436
F3.9762220717489
aI24
aI0
aI2
ag1290
aa(lp3437
F0.060771937583922
aI22
aI16
aI2
ag1292
aa(lp3438
F3.9572003609626
aI22
aI0
aI2
ag1294
aa(lp3439
F0.0084180599690171
aI15
aI114
aI2
ag1296
aa(lp3440
F4.0259370489316
aI17
aI111
aI2
ag1298
aa(lp3441
F0.088207320386118
aI15
aI0
aI2
ag1300
aa(lp3442
F3.86609381833
aI17
aI0
aI2
ag1302
aa(lp3443
F0.0099999999999909
aI0
aI0
aI0
ag1304
aaaI0
aa(lp3444
(lp3445
(lp3446
F0.75
aI36
aI114
aI3
aS'on'
p3447
aa(lp3448
F0.67515266627856
aI36
aI0
aI3
aS'off'
p3449
aa(lp3450
F0.074847333721436
aI39
aI118
aI3
aS'on'
p3451
aa(lp3452
F0.5
aI41
aI115
aI3
aS'on'
p3453
aa(lp3454
F0.08019361709421
aI39
aI0
aI3
aS'off'
p3455
aa(lp3456
F0.75946310047561
aI41
aI0
aI3
aS'off'
p3457
aa(lp3458
F0.16034328243018
aI43
aI122
aI3
aS'on'
p3459
aa(lp3460
F0.71534317057285
aI43
aI0
aI3
aS'off'
p3461
aa(lp3462
F0.28465682942715
aI0
aI0
aI0
aS'timeAfterLastHit'
p3463
aaa(lp3464
(lp3465
F0.0
aI37
aI111
aI3
aS'on'
p3466
aa(lp3467
F0.15672389905865
aI37
aI0
aI3
aS'off'
p3468
aa(lp3469
F0.84327610094135
aI37
aI118
aI3
aS'on'
p3470
aa(lp3471
F0.22857238216977
aI37
aI0
aI3
aS'off'
p3472
aa(lp3473
F0.77142761783023
aI37
aI116
aI3
aS'on'
p3474
aa(lp3475
F0.22887035021904
aI37
aI0
aI3
aS'off'
p3476
aa(lp3477
F0.77112964978096
aI37
aI120
aI3
aS'on'
p3478
aa(lp3479
F0.15533771586206
aI37
aI0
aI3
aS'off'
p3480
aa(lp3481
F0.84466228413794
aI0
aI0
aI0
aS'timeAfterLastHit'
p3482
aaa(lp3483
(lp3484
F2.0
aI51
aI117
aI3
aS'on'
p3485
aa(lp3486
F0.53016892759297
aI51
aI0
aI3
aS'off'
p3487
aa(lp3488
F0.96983107240703
aI51
aI119
aI3
aS'on'
p3489
aa(lp3490
F0.30018977113878
aI51
aI0
aI3
aS'off'
p3491
aa(lp3492
F0.19981022886122
aI0
aI0
aI0
aS'timeAfterLastHit'
p3493
aaa(lp3494
(lp3495
F0.0
aI41
aI116
aI3
ag1469
aa(lp3496
F0.12755477481915
aI41
aI0
aI3
ag1471
aa(lp3497
F0.1211643788929
aI43
aI119
aI3
ag1473
aa(lp3498
F0.087408547841278
aI43
aI0
aI3
ag1475
aa(lp3499
F0.16565895370968
aI43
aI72
aI3
ag1477
aa(lp3500
F0.043689670471394
aI43
aI0
aI3
ag1479
aa(lp3501
F0.16577260536678
aI41
aI95
aI3
ag1481
aa(lp3502
F0.12217321803473
aI41
aI0
aI3
ag1483
aa(lp3503
F0.16545386524058
aI43
aI118
aI3
ag1485
aa(lp3504
F0.23405898796636
aI43
aI0
aI3
ag1487
aa(lp3505
F0.27026381210226
aI41
aI89
aI3
ag1489
aa(lp3506
F0.095998404849979
aI41
aI0
aI3
ag1491
aa(lp3507
F0.13976709349163
aI43
aI107
aI3
ag1493
aa(lp3508
F0.087389395557693
aI43
aI0
aI3
ag1495
aa(lp3509
F0.1753407525598
aI41
aI110
aI3
ag1497
aa(lp3510
F0.11368060120412
aI41
aI0
aI3
ag1499
aa(lp3511
F0.41102830471164
aI41
aI105
aI3
ag1501
aa(lp3512
F0.14707844895793
aI41
aI0
aI3
ag1503
aa(lp3513
F0.32190844842307
aI47
aI116
aI3
ag1505
aa(lp3514
F0.18350354601353
aI47
aI0
aI3
ag1507
aa(lp3515
F0.32211405370936
aI41
aI101
aI3
ag1509
aa(lp3516
F0.12186928391611
aI41
aI0
aI3
ag1511
aa(lp3517
F0.095829053526813
aI47
aI107
aI3
ag1513
aa(lp3518
F0.0874062871776
aI47
aI0
aI3
ag1515
aa(lp3519
F0.19226860772869
aI41
aI112
aI3
ag1517
aa(lp3520
F0.12199081788594
aI41
aI0
aI3
ag1519
aa(lp3521
F0.11317305071589
aI43
aI114
aI3
ag1521
aa(lp3522
F0.069968139048797
aI43
aI0
aI3
ag1523
aa(lp3523
F0.41139830820293
aI41
aI97
aI3
ag1525
aa(lp3524
F0.077629388777041
aI41
aI0
aI3
ag1527
aa(lp3525
F0.18335670795796
aI43
aI117
aI3
ag1529
aa(lp3526
F0.23519468430322
aI43
aI0
aI3
ag1531
aa(lp3527
F0.27901333259342
aI41
aI98
aI3
ag1533
aa(lp3528
F0.10484268646042
aI41
aI0
aI3
ag1535
aa(lp3529
F0.12136663819956
aI43
aI116
aI3
ag1537
aa(lp3530
F0.096394529333338
aI43
aI0
aI3
ag1539
aa(lp3531
F0.17426965182949
aI41
aI104
aI3
ag1541
aa(lp3532
F0.10464434496998
aI41
aI0
aI3
ag1543
aa(lp3533
F0.42710783614075
aI41
aI115
aI3
ag1545
aa(lp3534
F0.15765111402288
aI41
aI0
aI3
ag1547
aa(lp3535
F0.29572442087056
aI47
aI113
aI3
ag1549
aa(lp3536
F0.07803175008803
aI47
aI0
aI3
ag1551
aa(lp3537
F0.13963082353484
aI45
aI111
aI3
ag1553
aa(lp3538
F0.096443246951367
aI45
aI0
aI3
ag1555
aa(lp3539
F0.17406848451083
aI47
aI99
aI3
ag1557
aa(lp3540
F0.11289961887496
aI47
aI0
aI3
ag1559
aa(lp3541
F0.42681932845471
aI0
aI0
aI0
ag1561
aaaaa(lp3542
(lp3543
(dp3544
g1565
S'50'
p3545
sg1567
I0
sa(dp3546
g1565
S'60'
p3547
sg1567
I1
sa(dp3548
a(dp3549
aa(lp3550
(dp3551
g1565
S'59'
p3552
sg1567
I0
sa(dp3553
g1565
g1576
sg1567
I0
sa(dp3554
g1565
g1578
sg1567
I1
sa(dp3555
g1565
g1580
sg1567
I01
saa(lp3556
(dp3557
g1565
S'10'
p3558
sg1567
I0
sa(dp3559
g1565
g1585
sg1567
I0
sa(dp3560
g1565
g1587
sg1567
I1
sa(dp3561
aa(lp3562
(dp3563
g1565
S'19'
p3564
sg1567
I0
sa(dp3565
g1565
S'29'
p3566
sg1567
I0
sa(dp3567
g1565
S'39'
p3568
sg1567
I0
sa(dp3569
g1565
g1597
sg1567
I01
saaa(lp3570
I60
aI60
aI36
aI36
aa(lp3571
(lp3572
I0
aI2
aI3
aI5
aI7
aI8
aI10
aa(lp3573
I0
aI2
aI3
aI5
aI7
aI8
aI10
aa(lp3574
I0
aI2
aI3
aI5
aI7
aI8
aI10
aa(lp3575
I0
aI1
aI2
aI3
aI4
aI5
aI6
aI7
aI8
aI9
aI10
aI11
aaa(lp3576
(lp3577
(lp3578
I0
aI0
aI0
aI0
aI0
aI0
aI0
aI0
aI0
aI0
aI0
aI0
aa(lp3579
I0
aI0
aI0
aI0
aI0
aI0
aI0
aI0
aI0
aI0
aI0
aI0
aa(lp3580
I0
aI0
aI0
aI0
aI0
aI0
aI0
aI0
aI0
aI0
aI0
aI0
aa(lp3581
I0
aI0
aI0
aI0
aI0
aI0
aI0
aI0
aI0
aI0
aI0
aI0
aaa(lp3582
(lp3583
I0
aI0
aI0
aI0
aI0
aI0
aI0
aI0
aI0
aI0
aI0
aI0
aa(lp3584
I0
aI0
aI0
aI0
aI0
aI0
aI0
aI0
aI0
aI0
aI0
aI0
aa(lp3585
I0
aI0
aI0
aI0
aI0
aI0
aI0
aI0
aI0
aI0
aI0
aI0
aa(lp3586
I0
aI0
aI0
aI0
aI0
aI0
aI0
aI0
aI0
aI0
aI0
aI0
aaa(lp3587
(lp3588
I0
aI0
aI0
aI0
aI0
aI0
aI0
aI0
aI0
aI0
aI0
aI0
aa(lp3589
I0
aI0
aI0
aI0
aI0
aI0
aI0
aI0
aI0
aI0
aI0
aI0
aa(lp3590
I0
aI0
aI0
aI0
aI0
aI0
aI0
aI0
aI0
aI0
aI0
aI0
aa(lp3591
I0
aI0
aI0
aI0
aI0
aI0
aI0
aI0
aI0
aI0
aI0
aI0
aaa(lp3592
(lp3593
I0
aI0
aI0
aI0
aI0
aI0
aI0
aI0
aI0
aI0
aI0
aI0
aa(lp3594
I0
aI0
aI0
aI0
aI0
aI0
aI0
aI0
aI0
aI0
aI0
aI0
aa(lp3595
I0
aI0
aI0
aI0
aI0
aI0
aI0
aI0
aI0
aI0
aI0
aI0
aa(lp3596
I0
aI0
aI0
aI0
aI0
aI0
aI0
aI0
aI0
aI0
aI0
aI0
aaaa(lp3597
(lp3598
I0
aI0
aI0
aI0
aI0
aI0
aI0
aI0
aI0
aI0
aI0
aI0
aa(lp3599
I0
aI0
aI0
aI0
aI0
aI0
aI0
aI0
aI0
aI0
aI0
aI0
aa(lp3600
I0
aI0
aI0
aI0
aI0
aI0
aI0
aI0
aI0
aI0
aI0
aI0
aa(lp3601
I0
aI0
aI0
aI0
aI0
aI0
aI0
aI0
aI0
aI0
aI0
aI0
aaaa(lp3602
(lp3603
(lp3604
(lp3605
(lp3606
F0.0
aI74
aI35
aI0
ag2478
aa(lp3607
F0.0
aI70
aI54
aI0
ag2480
aa(lp3608
F0.30888276759379
aI70
aI0
aI0
ag2482
aa(lp3609
F0.093266563851103
aI74
aI0
aI0
ag2484
aa(lp3610
F1.1501558706377
aI68
aI39
aI0
ag2486
aa(lp3611
F0.020414490453732
aI72
aI72
aI0
ag2488
aa(lp3612
F0.4566918741657
aI72
aI0
aI0
ag2490
aa(lp3613
F0.062262406817354
aI68
aI0
aI0
ag2492
aa(lp3614
F3.7548168155927
aI74
aI14
aI0
ag2494
aa(lp3615
F0.00021569938689936
aI70
aI20
aI0
ag2496
aa(lp3616
F0.3315253173696
aI70
aI0
aI0
ag2498
aa(lp3617
F0.020856311643911
aI74
aI0
aI0
ag2500
aa(lp3618
F0.44521259735484
aI68
aI17
aI0
ag2502
aa(lp3619
F0.042490895143601
aI72
aI52
aI0
ag2504
aa(lp3620
F0.26775972247287
aI68
aI0
aI0
ag2506
aa(lp3621
F0.10384032607999
aI72
aI0
aI0
ag2508
aa(lp3622
F0.29068243726306
aI74
aI14
aI0
ag2510
aa(lp3623
F0.093410014374967
aI77
aI66
aI0
ag2512
aa(lp3624
F7.9749332409292
aI77
aI0
aI0
ag2514
aa(lp3625
F0.04150935146663
aI74
aI0
aI0
ag2516
aa(lp3626
F0.54107329740236
aI0
aI0
aI0
ag2518
aaa(lp3627
(lp3628
F0.0
aI60
aI91
aI0
ag2521
aa(lp3629
F0.1506832758464
aI60
aI0
aI0
ag2523
aa(lp3630
F0.3651999004644
aI63
aI57
aI0
ag2525
aa(lp3631
F0.18224818458907
aI63
aI0
aI0
ag2527
aa(lp3632
F0.7938642513318
aI70
aI98
aI0
ag2529
aa(lp3633
F0.20057564847889
aI70
aI0
aI0
ag2531
aa(lp3634
F1.1405446666031
aI58
aI105
aI0
ag2533
aa(lp3635
F0.14769411614725
aI58
aI0
aI0
ag2535
aa(lp3636
F4.9833468292848
aI60
aI90
aI0
ag2537
aa(lp3637
F0.1577550328268
aI60
aI0
aI0
ag2539
aa(lp3638
F5.5431668636477
aI72
aI33
aI0
ag2541
aa(lp3639
F0.10468315968478
aI72
aI0
aI0
ag2543
aa(lp3640
F2.024542511467
aI60
aI22
aI0
ag2545
aa(lp3641
F0.10435466836634
aI60
aI0
aI0
ag2547
aa(lp3642
F0.53204013554341
aI63
aI42
aI0
ag2549
aa(lp3643
F0.20965974373939
aI63
aI0
aI0
ag2551
aa(lp3644
F0.2790227236801
aI67
aI56
aI0
ag2553
aa(lp3645
F0.29654478641373
aI67
aI0
aI0
ag2555
aa(lp3646
F0.30442789786161
aI70
aI98
aI0
ag2557
aa(lp3647
F0.32270434012344
aI70
aI0
aI0
ag2559
aa(lp3648
F2.641983916287
aI58
aI99
aI0
ag2561
aa(lp3649
F0.51431958961143
aI58
aI0
aI0
ag2563
aa(lp3650
F3.1113499381659
aI60
aI99
aI0
ag2565
aa(lp3651
F0.21859857974118
aI60
aI0
aI0
ag2567
aa(lp3652
F4.1541140923784
aI77
aI40
aI0
ag2569
aa(lp3653
F0.28724815883538
aI77
aI0
aI0
ag2571
aa(lp3654
F0.47920888795625
aI75
aI64
aI0
ag2573
aa(lp3655
F0.2251482702095
aI75
aI0
aI0
ag2575
aa(lp3656
F0.48817794448587
aI72
aI54
aI0
ag2577
aa(lp3657
F0.21871417863645
aI72
aI0
aI0
ag2579
aa(lp3658
F0.47835080301934
aI70
aI54
aI0
ag2581
aa(lp3659
F0.20024538163966
aI70
aI0
aI0
ag2583
aa(lp3660
F0.51402060027635
aI68
aI36
aI0
ag2585
aa(lp3661
F0.21880138087226
aI68
aI0
aI0
ag2587
aa(lp3662
F0.3394617569852
aI65
aI57
aI0
ag2589
aa(lp3663
F0.23567485342937
aI65
aI0
aI0
ag2591
aa(lp3664
F0.37443668883066
aI68
aI73
aI0
ag2593
aa(lp3665
F0.21849944567339
aI68
aI0
aI0
ag2595
aa(lp3666
F0.40910188485668
aI72
aI93
aI0
ag2597
aa(lp3667
F0.15669266465784
aI72
aI0
aI0
ag2599
aa(lp3668
F0.27950140236931
aI75
aI95
aI0
ag2601
aa(lp3669
F0.14760014692774
aI75
aI0
aI0
ag2603
aa(lp3670
F2.1609718162679
aI74
aI105
aI0
ag2605
aa(lp3671
F0.1213979107024
aI74
aI0
aI0
ag2607
aa(lp3672
F3.8970826868851
aI68
aI90
aI0
ag2609
aa(lp3673
F0.14827495145732
aI68
aI0
aI0
ag2611
aa(lp3674
F0.40944478373285
aI70
aI104
aI0
ag2613
aa(lp3675
F0.10506788582552
aI70
aI0
aI0
ag2615
aa(lp3676
F3.8878143942813
aI82
aI69
aI0
ag2617
aa(lp3677
F0.18371574823436
aI82
aI0
aI0
ag2619
aa(lp3678
F0.52210260170841
aI80
aI8
aI0
ag2621
aa(lp3679
F0.060610166816787
aI80
aI0
aI0
ag2623
aa(lp3680
F0.63780128964595
aI77
aI79
aI0
ag2625
aa(lp3681
F0.043448661470848
aI77
aI0
aI0
ag2627
aa(lp3682
F0.061169729222684
aI77
aI6
aI0
ag2629
aa(lp3683
F0.051870332498765
aI77
aI0
aI0
ag2631
aa(lp3684
F0.54918424578909
aI70
aI85
aI0
ag2633
aa(lp3685
F0.16595874994755
aI70
aI0
aI0
ag2635
aa(lp3686
F1.0274853625726
aI65
aI90
aI0
ag2637
aa(lp3687
F0.13953256805848
aI65
aI0
aI0
ag2639
aa(lp3688
F0.40028448612838
aI68
aI53
aI0
ag2641
aa(lp3689
F0.22698036574116
aI68
aI0
aI0
ag2643
aa(lp3690
F0.27837135435539
aI72
aI36
aI0
ag2645
aa(lp3691
F0.23665965385453
aI72
aI0
aI0
ag2647
aa(lp3692
F0.44350964539876
aI75
aI107
aI0
ag2649
aa(lp3693
F0.13034707306542
aI75
aI0
aI0
ag2651
aa(lp3694
F2.3007258192542
aI74
aI95
aI0
ag2653
aa(lp3695
F0.13046651308719
aI74
aI0
aI0
ag2655
aa(lp3696
F1.244985882013
aI75
aI89
aI0
ag2657
aa(lp3697
F0.10455029239256
aI75
aI0
aI0
ag2659
aa(lp3698
F1.3940002586141
aI77
aI97
aI0
ag2661
aa(lp3699
F0.12196445515519
aI77
aI0
aI0
ag2663
aa(lp3700
F0.89645515920324
aI79
aI85
aI0
ag2665
aa(lp3701
F0.11338380417874
aI79
aI0
aI0
ag2667
aa(lp3702
F1.5238777956711
aI77
aI90
aI0
ag2669
aa(lp3703
F0.05271995828889
aI77
aI0
aI0
ag2671
aa(lp3704
F4.2763590247732
aI80
aI66
aI0
ag2673
aa(lp3705
F0.095565137809672
aI80
aI0
aI0
ag2675
aa(lp3706
F0.27028973803704
aI77
aI93
aI0
ag2677
aa(lp3707
F0.04346008315315
aI77
aI0
aI0
ag2679
aa(lp3708
F0.10574778018122
aI75
aI4
aI0
ag2681
aa(lp3709
F0.04288380417961
aI75
aI0
aI0
ag2683
aa(lp3710
F0.24494195568377
aI72
aI81
aI0
ag2685
aa(lp3711
F0.043341858488247
aI72
aI0
aI0
ag2687
aa(lp3712
F0.17433600461823
aI65
aI53
aI0
ag2689
aa(lp3713
F0.043988002947572
aI65
aI0
aI0
ag2691
aa(lp3714
F0.18331504074081
aI67
aI63
aI0
ag2693
aa(lp3715
F0.043737216079307
aI67
aI0
aI0
ag2695
aa(lp3716
F0.1730785259067
aI60
aI85
aI0
ag2697
aa(lp3717
F0.043952969341717
aI60
aI0
aI0
ag2699
aa(lp3718
F0.61025779347642
aI60
aI98
aI0
ag2701
aa(lp3719
F0.16561842682609
aI60
aI0
aI0
ag2703
aa(lp3720
F0.36668285695669
aI63
aI77
aI0
ag2705
aa(lp3721
F0.17434925850466
aI63
aI0
aI0
ag2707
aa(lp3722
F0.87256816184117
aI70
aI83
aI0
ag2709
aa(lp3723
F0.17382422288983
aI70
aI0
aI0
ag2711
aa(lp3724
F2.1682435767914
aI58
aI105
aI0
ag2713
aa(lp3725
F0.4975977915276
aI58
aI0
aI0
ag2715
aa(lp3726
F2.4754674644794
aI58
aI29
aI0
ag2717
aa(lp3727
F0.25275847593912
aI58
aI0
aI0
ag2719
aa(lp3728
F0.87132108951414
aI60
aI83
aI0
ag2721
aa(lp3729
F0.38229660681054
aI60
aI0
aI0
ag2723
aa(lp3730
F0.50401835580078
aI72
aI14
aI0
ag2725
aa(lp3731
F0.17423368961795
aI72
aI0
aI0
ag2727
aa(lp3732
F0.56654683676288
aI84
aI6
aI0
ag2729
aa(lp3733
F0.052137622539249
aI84
aI0
aI0
ag2731
aa(lp3734
F1.3076317040482
aI60
aI35
aI0
ag2733
aa(lp3735
F0.043083526074497
aI60
aI0
aI0
ag2735
aa(lp3736
F1.3423082984166
aI84
aI68
aI0
ag2737
aa(lp3737
F0.14836259882327
aI84
aI0
aI0
ag2739
aa(lp3738
F1.0978694835946
aI77
aI43
aI0
ag2741
aa(lp3739
F0.078459738914717
aI77
aI0
aI0
ag2743
aa(lp3740
F0.31329029478343
aI75
aI8
aI0
ag2745
aa(lp3741
F0.095698268512024
aI75
aI0
aI0
ag2747
aa(lp3742
F0.25285047291413
aI72
aI21
aI0
ag2749
aa(lp3743
F0.043647448091406
aI72
aI0
aI0
ag2751
aa(lp3744
F0.89845833656545
aI60
aI75
aI0
ag2753
aa(lp3745
F0.043745498508088
aI60
aI0
aI0
ag2755
aa(lp3746
F0.45333894249711
aI60
aI95
aI0
ag2757
aa(lp3747
F0.25232431697054
aI60
aI0
aI0
ag2759
aa(lp3748
F0.42754643641138
aI63
aI76
aI0
ag2761
aa(lp3749
F0.22671252387227
aI63
aI0
aI0
ag2763
aa(lp3750
F0.30509292785791
aI67
aI84
aI0
ag2765
aa(lp3751
F0.25264099315814
aI67
aI0
aI0
ag2767
aa(lp3752
F0.33168883784765
aI70
aI111
aI0
ag2769
aa(lp3753
F0.1841952271584
aI70
aI0
aI0
ag2771
aa(lp3754
F1.7241360927642
aI58
aI45
aI0
ag2773
aa(lp3755
F0.14796573912463
aI58
aI0
aI0
ag2775
aa(lp3756
F2.3440764286418
aI58
aI31
aI0
ag2777
aa(lp3757
F0.13900952802828
aI58
aI0
aI0
ag2779
aa(lp3758
F0.54001725288799
aI58
aI14
aI0
ag2781
aa(lp3759
F0.13200469577191
aI58
aI0
aI0
ag2783
aa(lp3760
F0.17383051473462
aI65
aI7
aI0
ag2785
aa(lp3761
F0.16520329343621
aI65
aI0
aI0
ag2787
aa(lp3762
F1.0625704117062
aI60
aI93
aI0
ag2789
aa(lp3763
F0.1311454521624
aI60
aI0
aI0
ag2791
aa(lp3764
F3.9330906032835
aI84
aI69
aI0
ag2793
aa(lp3765
F0.14789766416402
aI84
aI0
aI0
ag2795
aa(lp3766
F0.80961258898265
aI77
aI87
aI0
ag2797
aa(lp3767
F0.070036764171164
aI77
aI0
aI0
ag2799
aa(lp3768
F1.5070812189942
aI70
aI80
aI0
ag2801
aa(lp3769
F0.043320505560359
aI70
aI0
aI0
ag2803
aa(lp3770
F1.1760682259812
aI65
aI111
aI0
ag2805
aa(lp3771
F0.14903877875599
aI65
aI0
aI0
ag2807
aa(lp3772
F0.39155766729368
aI68
aI98
aI0
ag2809
aa(lp3773
F0.16553899520227
aI68
aI0
aI0
ag2811
aa(lp3774
F0.37531269068745
aI72
aI97
aI0
ag2813
aa(lp3775
F0.15768759305251
aI72
aI0
aI0
ag2815
aa(lp3776
F0.33129483898779
aI75
aI110
aI0
ag2817
aa(lp3777
F0.13896517835747
aI75
aI0
aI0
ag2819
aa(lp3778
F2.3200445721384
aI74
aI98
aI0
ag2821
aa(lp3779
F0.15616298934901
aI74
aI0
aI0
ag2823
aa(lp3780
F1.3071228415085
aI75
aI95
aI0
ag2825
aa(lp3781
F0.043094837724311
aI75
aI0
aI0
ag2827
aa(lp3782
F1.3705187651519
aI77
aI114
aI0
ag2829
aa(lp3783
F0.1308111908188
aI77
aI0
aI0
ag2831
aa(lp3784
F0.88932655232134
aI80
aI114
aI0
ag2833
aa(lp3785
F0.13059525416929
aI80
aI0
aI0
ag2835
aa(lp3786
F1.7846682733809
aI79
aI103
aI0
ag2837
aa(lp3787
F0.12301388119636
aI79
aI0
aI0
ag2839
aa(lp3788
F2.4156307894616
aI82
aI79
aI0
ag2841
aa(lp3789
F0.1656717291221
aI82
aI0
aI0
ag2843
aa(lp3790
F0.41825479196041
aI80
aI38
aI0
ag2845
aa(lp3791
F0.078229202984858
aI80
aI0
aI0
ag2847
aa(lp3792
F0.86362631995826
aI77
aI69
aI0
ag2849
aa(lp3793
F0.043267518357197
aI77
aI0
aI0
ag2851
aa(lp3794
F0.017454024450217
aI77
aI7
aI0
ag2853
aa(lp3795
F0.070112254639753
aI77
aI0
aI0
ag2855
aa(lp3796
F0.14711758710041
aI70
aI60
aI0
ag2857
aa(lp3797
F0.043634914416543
aI70
aI0
aI0
ag2859
aa(lp3798
F0.77800448934295
aI68
aI4
aI0
ag2861
aa(lp3799
F0.077655554782496
aI67
aI28
aI0
ag2863
aa(lp3800
F0.04341396129621
aI67
aI0
aI0
ag2865
aa(lp3801
F0.017547246784716
aI68
aI0
aI0
ag2867
aa(lp3802
F0.15709671813261
aI65
aI58
aI0
ag2869
aa(lp3803
F0.043470284477507
aI65
aI0
aI0
ag2871
aa(lp3804
F0.64519762669693
aI65
aI99
aI0
ag2873
aa(lp3805
F0.1647519594319
aI65
aI0
aI0
ag2875
aa(lp3806
F0.48812710791299
aI68
aI111
aI0
ag2877
aa(lp3807
F0.16545309668231
aI68
aI0
aI0
ag2879
aa(lp3808
F0.26172697230436
aI72
aI95
aI0
ag2881
aa(lp3809
F0.13957173120798
aI72
aI0
aI0
ag2883
aa(lp3810
F0.29534810886344
aI75
aI112
aI0
ag2885
aa(lp3811
F0.1398137304991
aI75
aI0
aI0
ag2887
aa(lp3812
F2.2467118815512
aI74
aI95
aI0
ag2889
aa(lp3813
F0.19177642841464
aI74
aI0
aI0
ag2891
aa(lp3814
F1.1578295131146
aI75
aI100
aI0
ag2893
aa(lp3815
F0.23638008021271
aI75
aI0
aI0
ag2895
aa(lp3816
F1.3773673032467
aI80
aI75
aI0
ag2897
aa(lp3817
F0.24293180127643
aI80
aI0
aI0
ag2899
aa(lp3818
F0.86233163366956
aI84
aI120
aI0
ag2901
aa(lp3819
F0.18322319381014
aI84
aI0
aI0
ag2903
aa(lp3820
F1.4374752994863
aI82
aI115
aI0
ag2905
aa(lp3821
F0.13031610231815
aI82
aI0
aI0
ag2907
aa(lp3822
F3.4082113840957
aI82
aI65
aI0
ag2909
aa(lp3823
F0.1743292242968
aI82
aI0
aI0
ag2911
aa(lp3824
F0.26919572058796
aI80
aI34
aI0
ag2913
aa(lp3825
F0.13947355242067
aI80
aI0
aI0
ag2915
aa(lp3826
F0.58352750408449
aI77
aI3
aI0
ag2917
aa(lp3827
F0.37547582518778
aI77
aI0
aI0
ag2919
aa(lp3828
F0.0165960512129
aI70
aI28
aI0
ag2921
aa(lp3829
F0.14831798240766
aI70
aI0
aI0
ag2923
aa(lp3830
F0.09656630803488
aI77
aI79
aI0
ag2925
aa(lp3831
F0.31356871808771
aI70
aI63
aI0
ag2927
aa(lp3832
F0.06940236648984
aI77
aI0
aI0
ag2929
aa(lp3833
F0.21860572516948
aI70
aI0
aI0
ag2931
aa(lp3834
F0.5099958487624
aI0
aI0
aI0
ag2933
aaa(lp3835
(lp3836
F0.0
aI67
aI108
aI0
aS'on'
p3837
aa(lp3838
F0.10459287830054
aI67
aI0
aI0
aS'off'
p3839
aa(lp3840
F3.8257521016785
aI65
aI95
aI0
aS'on'
p3841
aa(lp3842
F0.19180833110295
aI65
aI0
aI0
aS'off'
p3843
aa(lp3844
F2.3539276938482
aI67
aI115
aI0
aS'on'
p3845
aa(lp3846
F0.16525809617087
aI67
aI0
aI0
aS'off'
p3847
aa(lp3848
F0.65485333122979
aI68
aI123
aI0
aS'on'
p3849
aa(lp3850
F0.14847294451101
aI68
aI0
aI0
aS'off'
p3851
aa(lp3852
F0.52923381768869
aI67
aI123
aI0
aS'on'
p3853
aa(lp3854
F0.17536962102349
aI67
aI0
aI0
aS'off'
p3855
aa(lp3856
F4.6957613282029
aI74
aI15
aI0
aS'on'
p3857
aa(lp3858
F0.19194476110442
aI74
aI0
aI0
aS'off'
p3859
aa(lp3860
F1.4726890680295
aI70
aI53
aI0
aS'on'
p3861
aa(lp3862
F0.47953334309113
aI70
aI0
aI0
aS'off'
p3863
aa(lp3864
F0.010802684018017
aI0
aI0
aI0
aS'timeAfterLastHit'
p3865
aaaI0
aa(lp3866
(lp3867
(lp3868
F0.0
aI70
aI92
aI1
ag2937
aa(lp3869
F0.0058041877587129
aI74
aI111
aI1
ag2939
aa(lp3870
F0.03130323574851
aI67
aI95
aI1
ag2941
aa(lp3871
F0.12500882032327
aI74
aI0
aI1
ag2943
aa(lp3872
F0.030915561537768
aI70
aI0
aI1
ag2945
aa(lp3873
F0.010381194458205
aI67
aI0
aI1
ag2947
aa(lp3874
F0.48658195921416
aI68
aI99
aI1
ag2949
aa(lp3875
F0.010734108770976
aI72
aI110
aI1
ag2951
aa(lp3876
F0.00017740717294146
aI65
aI106
aI1
ag2953
aa(lp3877
F4.9059162312246
aI68
aI0
aI1
ag2955
aa(lp3878
F0.031037631731124
aI72
aI0
aI1
ag2957
aa(lp3879
F0.072789368333815
aI65
aI0
aI1
ag2959
aa(lp3880
F0.28913843813643
aI74
aI114
aI1
ag2961
aa(lp3881
F0.00036546286219163
aI67
aI97
aI1
ag2963
aa(lp3882
F0.00033581203024369
aI70
aI92
aI1
ag2965
aa(lp3883
F0.10205433650162
aI70
aI0
aI1
ag2967
aa(lp3884
F0.041747220553134
aI74
aI0
aI1
ag2969
aa(lp3885
F0.041542508831753
aI67
aI0
aI1
ag2971
aa(lp3886
F0.49861645627561
aI68
aI94
aI1
ag2973
aa(lp3887
F0.010339286627186
aI72
aI96
aI1
ag2975
aa(lp3888
F0.010534093582464
aI65
aI109
aI1
ag2977
aa(lp3889
F0.11387629164255
aI72
aI0
aI1
ag2979
aa(lp3890
F0.072589220261762
aI68
aI0
aI1
ag2981
aa(lp3891
F0.010690885990243
aI65
aI0
aI1
ag2983
aa(lp3892
F0.49505045885098
aI70
aI112
aI1
ag2985
aa(lp3893
F0.00018097717293131
aI74
aI105
aI1
ag2987
aa(lp3894
F0.009993282247251
aI77
aI116
aI1
ag2989
aa(lp3895
F8.5822955621593
aI70
aI0
aI1
ag2991
aa(lp3896
F0.0
aI74
aI0
aI1
ag2993
aa(lp3897
F0.0
aI77
aI0
aI1
ag2995
aa(lp3898
F0.010000000000218
aI0
aI0
aI0
ag2997
aaa(lp3899
(lp3900
F0.13416338839374
aI81
aI105
aI1
ag532
aa(lp3901
F0.12294940555626
aI82
aI85
aI1
ag534
aa(lp3902
F0.091220176731213
aI81
aI0
aI1
ag536
aa(lp3903
F0.04056521322741
aI83
aI89
aI1
ag538
aa(lp3904
F0.071935440735842
aI82
aI0
aI1
ag540
aa(lp3905
F0.081415117590495
aI83
aI0
aI1
ag542
aa(lp3906
F0.041436324375923
aI81
aI99
aI1
ag544
aa(lp3907
F0.1430972382791
aI82
aI67
aI1
ag546
aa(lp3908
F0.092766064367765
aI81
aI0
aI1
ag548
aa(lp3909
F0.00049717217689249
aI83
aI73
aI1
ag550
aa(lp3910
F0.029762118907684
aI82
aI0
aI1
ag552
aa(lp3911
F0.11271444756119
aI83
aI0
aI1
ag554
aa(lp3912
F0.071794817162527
aI81
aI82
aI1
ag556
aa(lp3913
F0.1333068366514
aI82
aI93
aI1
ag558
aa(lp3914
F0.040587883201169
aI81
aI0
aI1
ag560
aa(lp3915
F0.07132435449148
aI83
aI80
aI1
ag562
aa(lp3916
F0.041408118165805
aI82
aI0
aI1
ag564
aa(lp3917
F0.1020210906421
aI83
aI0
aI1
ag566
aa(lp3918
F0.071356024279225
aI81
aI96
aI1
ag568
aa(lp3919
F0.15328287165062
aI82
aI88
aI1
ag570
aa(lp3920
F0.06212651641647
aI81
aI0
aI1
ag572
aa(lp3921
F0.00019492023636758
aI82
aI0
aI1
ag574
aa(lp3922
F0.031525494882089
aI83
aI88
aI1
ag576
aa(lp3923
F0.13243140191094
aI83
aI0
aI1
ag578
aa(lp3924
F0.061928638033805
aI81
aI99
aI1
ag580
aa(lp3925
F0.15289380107913
aI82
aI68
aI1
ag582
aa(lp3926
F0.051453874351864
aI81
aI0
aI1
ag584
aa(lp3927
F0.00021471434433806
aI82
aI0
aI1
ag586
aa(lp3928
F0.081635808954388
aI83
aI93
aI1
ag588
aa(lp3929
F0.11224166343197
aI83
aI0
aI1
ag590
aa(lp3930
F0.072498640288472
aI81
aI94
aI1
ag592
aa(lp3931
F0.12184328248384
aI81
aI0
aI1
ag594
aa(lp3932
F0.030748631033589
aI81
aI18
aI1
ag596
aa(lp3933
F0.051574887969878
aI82
aI98
aI1
ag598
aa(lp3934
F0.061136540714642
aI81
aI0
aI1
ag600
aa(lp3935
F0.094040625416596
aI83
aI86
aI1
ag602
aa(lp3936
F0.039063862333023
aI82
aI0
aI1
ag604
aa(lp3937
F0.020832369130403
aI83
aI0
aI1
ag606
aa(lp3938
F0.14290477075747
aI81
aI104
aI1
ag608
aa(lp3939
F0.13372547692416
aI82
aI89
aI1
ag610
aa(lp3940
F0.07198269662058
aI81
aI0
aI1
ag612
aa(lp3941
F0.051122757964777
aI83
aI91
aI1
ag614
aa(lp3942
F0.071517041428137
aI82
aI0
aI1
ag616
aa(lp3943
F0.09194406039137
aI83
aI0
aI1
ag618
aa(lp3944
F0.071218364728452
aI81
aI95
aI1
ag620
aa(lp3945
F0.1644650082311
aI82
aI98
aI1
ag622
aa(lp3946
F0.010198829440469
aI81
aI0
aI1
ag624
aa(lp3947
F0.041122141901383
aI82
aI0
aI1
ag626
aa(lp3948
F0.082333801986124
aI83
aI92
aI1
ag628
aa(lp3949
F0.14381533690528
aI81
aI93
aI1
ag630
aa(lp3950
F0.010505614592148
aI83
aI0
aI1
ag632
aa(lp3951
F0.07715432096893
aI81
aI0
aI1
ag634
aa(lp3952
F0.0099999999999909
aI0
aI0
aI0
ag636
aaa(lp3953
(lp3954
F0.0
aI68
aI83
aI1
ag639
aa(lp3955
F0.0
aI67
aI84
aI1
ag641
aa(lp3956
F0.013907942089645
aI68
aI0
aI1
ag643
aa(lp3957
F0.026193205244454
aI67
aI0
aI1
ag645
aa(lp3958
F0.13861399371854
aI67
aI95
aI1
ag647
aa(lp3959
F0.09555725383052
aI67
aI0
aI1
ag649
aa(lp3960
F0.12197254252715
aI67
aI101
aI1
ag651
aa(lp3961
F0.043421378470157
aI67
aI0
aI1
ag653
aa(lp3962
F0.22753845771604
aI67
aI96
aI1
ag655
aa(lp3963
F0.096494286916823
aI67
aI0
aI1
ag657
aa(lp3964
F0.12977297806538
aI67
aI100
aI1
ag659
aa(lp3965
F0.043444743655527
aI67
aI0
aI1
ag661
aa(lp3966
F0.24522194444762
aI67
aI96
aI1
ag663
aa(lp3967
F0.052281014583968
aI67
aI0
aI1
ag665
aa(lp3968
F0.20849988198279
aI67
aI105
aI1
ag667
aa(lp3969
F0.044691489219986
aI67
aI0
aI1
ag669
aa(lp3970
F0.2009790600996
aI67
aI97
aI1
ag671
aa(lp3971
F0.052495634180559
aI67
aI0
aI1
ag673
aa(lp3972
F0.21750653953859
aI67
aI108
aI1
ag675
aa(lp3973
F0.043997980872518
aI67
aI0
aI1
ag677
aa(lp3974
F0.19204772129524
aI67
aI96
aI1
ag679
aa(lp3975
F0.043731641110753
aI67
aI0
aI1
ag681
aa(lp3976
F0.22624730579719
aI67
aI112
aI1
ag683
aa(lp3977
F0.044019610548276
aI67
aI0
aI1
ag685
aa(lp3978
F0.20048211105131
aI67
aI93
aI1
ag687
aa(lp3979
F0.052901896636286
aI67
aI0
aI1
ag689
aa(lp3980
F0.2525327097419
aI67
aI99
aI1
ag691
aa(lp3981
F0.043933168535659
aI67
aI0
aI1
ag693
aa(lp3982
F0.17412489771777
aI67
aI90
aI1
ag695
aa(lp3983
F0.05244290538667
aI67
aI0
aI1
ag697
aa(lp3984
F0.20929044045351
aI67
aI98
aI1
ag699
aa(lp3985
F0.043827410859194
aI67
aI0
aI1
ag701
aa(lp3986
F0.20084762656097
aI67
aI98
aI1
ag703
aa(lp3987
F0.051969654954519
aI67
aI0
aI1
ag705
aa(lp3988
F0.20036457158858
aI74
aI94
aI1
ag707
aa(lp3989
F0.044468392137787
aI74
aI0
aI1
ag709
aa(lp3990
F0.14743285120676
aI74
aI102
aI1
ag711
aa(lp3991
F0.061228821548866
aI74
aI0
aI1
ag713
aa(lp3992
F0.20821814437386
aI74
aI98
aI1
ag715
aa(lp3993
F0.043532184295145
aI74
aI0
aI1
ag717
aa(lp3994
F0.19219222033098
aI74
aI103
aI1
ag719
aa(lp3995
F0.051864420765014
aI74
aI0
aI1
ag721
aa(lp3996
F0.20926591659645
aI74
aI92
aI1
ag723
aa(lp3997
F0.042919316259031
aI74
aI0
aI1
ag725
aa(lp3998
F0.2016240158764
aI74
aI102
aI1
ag727
aa(lp3999
F0.052151449926896
aI74
aI0
aI1
ag729
aa(lp4000
F0.23560018320131
aI74
aI103
aI1
ag731
aa(lp4001
F0.044139404007183
aI74
aI0
aI1
ag733
aa(lp4002
F0.19132035968778
aI74
aI95
aI1
ag735
aa(lp4003
F0.052580737466997
aI74
aI0
aI1
ag737
aa(lp4004
F0.2532493832141
aI74
aI99
aI1
ag739
aa(lp4005
F0.043456061974211
aI74
aI0
aI1
ag741
aa(lp4006
F0.15629244564116
aI74
aI98
aI1
ag743
aa(lp4007
F0.060701050131684
aI74
aI0
aI1
ag745
aa(lp4008
F0.23508781296732
aI74
aI98
aI1
ag747
aa(lp4009
F0.04415729091761
aI74
aI0
aI1
ag749
aa(lp4010
F0.16586740483035
aI74
aI86
aI1
ag751
aa(lp4011
F0.052329387101054
aI74
aI0
aI1
ag753
aa(lp4012
F0.21811276896096
aI74
aI99
aI1
ag755
aa(lp4013
F0.053169420077211
aI74
aI0
aI1
ag757
aa(lp4014
F0.15605397738545
aI74
aI98
aI1
ag759
aa(lp4015
F0.061285661549846
aI74
aI0
aI1
ag761
aa(lp4016
F0.191473859697
aI74
aI99
aI1
ag763
aa(lp4017
F0.042976876467947
aI74
aI0
aI1
ag765
aa(lp4018
F0.20223042535144
aI74
aI102
aI1
ag767
aa(lp4019
F0.060970552487561
aI74
aI0
aI1
ag769
aa(lp4020
F0.20061788419662
aI75
aI103
aI1
ag771
aa(lp4021
F0.051761337206699
aI75
aI0
aI1
ag773
aa(lp4022
F0.13944670121418
aI75
aI98
aI1
ag775
aa(lp4023
F0.052558786030204
aI75
aI0
aI1
ag777
aa(lp4024
F0.24445343244133
aI75
aI103
aI1
ag779
aa(lp4025
F0.043344145825358
aI75
aI0
aI1
ag781
aa(lp4026
F0.16631021967078
aI75
aI95
aI1
ag783
aa(lp4027
F0.05231822382666
aI75
aI0
aI1
ag785
aa(lp4028
F0.23579898649405
aI75
aI109
aI1
ag787
aa(lp4029
F0.043451012160403
aI75
aI0
aI1
ag789
aa(lp4030
F0.19153778844247
aI75
aI93
aI1
ag791
aa(lp4031
F0.052570976271454
aI75
aI0
aI1
ag793
aa(lp4032
F0.20920412347732
aI75
aI109
aI1
ag795
aa(lp4033
F0.052225116526643
aI75
aI0
aI1
ag797
aa(lp4034
F0.17387897727804
aI75
aI98
aI1
ag799
aa(lp4035
F0.051913841923124
aI75
aI0
aI1
ag801
aa(lp4036
F0.22716859760021
aI75
aI107
aI1
ag803
aa(lp4037
F0.043337093757145
aI75
aI0
aI1
ag805
aa(lp4038
F0.18300808573804
aI75
aI96
aI1
ag807
aa(lp4039
F0.052215360332411
aI75
aI0
aI1
ag809
aa(lp4040
F0.20925685393922
aI75
aI100
aI1
ag811
aa(lp4041
F0.043626957083688
aI75
aI0
aI1
ag813
aa(lp4042
F0.19159198933357
aI75
aI99
aI1
ag815
aa(lp4043
F0.051993313559251
aI75
aI0
aI1
ag817
aa(lp4044
F0.20888185565036
aI75
aI103
aI1
ag819
aa(lp4045
F0.051952291530142
aI75
aI0
aI1
ag821
aa(lp4046
F0.19123433279765
aI75
aI98
aI1
ag823
aa(lp4047
F0.052572506720026
aI75
aI0
aI1
ag825
aa(lp4048
F0.22692218201428
aI75
aI103
aI1
ag827
aa(lp4049
F0.043998656070471
aI75
aI0
aI1
ag829
aa(lp4050
F0.16601942440502
aI75
aI97
aI1
ag831
aa(lp4051
F0.052100469978541
aI75
aI0
aI1
ag833
aa(lp4052
F0.23585016983452
aI75
aI95
aI1
ag835
aa(lp4053
F0.043908532979913
aI75
aI0
aI1
ag837
aa(lp4054
F0.15735569073331
aI75
aI98
aI1
ag839
aa(lp4055
F0.052223192629754
aI75
aI0
aI1
ag841
aa(lp4056
F0.24520561299141
aI75
aI97
aI1
ag843
aa(lp4057
F0.043564352059548
aI75
aI0
aI1
ag845
aa(lp4058
F0.1480765399474
aI75
aI94
aI1
ag847
aa(lp4059
F0.052691511614285
aI75
aI0
aI1
ag849
aa(lp4060
F0.21689950821383
aI75
aI97
aI1
ag851
aa(lp4061
F0.043886481513255
aI75
aI0
aI1
ag853
aa(lp4062
F0.17484129277727
aI75
aI97
aI1
ag855
aa(lp4063
F0.053072906777743
aI75
aI0
aI1
ag857
aa(lp4064
F0.23373586322214
aI75
aI102
aI1
ag859
aa(lp4065
F0.043990223598485
aI75
aI0
aI1
ag861
aa(lp4066
F0.1651586886901
aI75
aI103
aI1
ag863
aa(lp4067
F0.096239633915502
aI75
aI0
aI1
ag865
aa(lp4068
F0.20052883808694
aI82
aI78
aI1
ag867
aa(lp4069
F0.00020683731418103
aI77
aI89
aI1
ag869
aa(lp4070
F0.043197957961638
aI77
aI0
aI1
ag871
aa(lp4071
F0.026970161391546
aI82
aI0
aI1
ag873
aa(lp4072
F0.1646313323954
aI75
aI97
aI1
ag875
aa(lp4073
F0.053077037990079
aI75
aI0
aI1
ag877
aa(lp4074
F0.20884519490119
aI75
aI98
aI1
ag879
aa(lp4075
F0.078207524961726
aI75
aI0
aI1
ag881
aa(lp4076
F0.13058362409265
aI75
aI95
aI1
ag883
aa(lp4077
F0.052376921038558
aI75
aI0
aI1
ag885
aa(lp4078
F0.22642936751254
aI75
aI98
aI1
ag887
aa(lp4079
F0.069724632649013
aI75
aI0
aI1
ag889
aa(lp4080
F0.17427299281007
aI75
aI92
aI1
ag891
aa(lp4081
F0.051994513911268
aI75
aI0
aI1
ag893
aa(lp4082
F0.17398459324613
aI75
aI108
aI1
ag895
aa(lp4083
F0.08695091865593
aI75
aI0
aI1
ag897
aa(lp4084
F0.17498522831374
aI75
aI97
aI1
ag899
aa(lp4085
F0.052175657025145
aI75
aI0
aI1
ag901
aa(lp4086
F0.29957814491536
aI0
aI0
aI0
ag903
aaa(lp4087
(lp4088
F0.0
aI72
aI98
aI1
ag906
aa(lp4089
F0.047129908076386
aI72
aI0
aI1
ag908
aa(lp4090
F0.11334296720452
aI72
aI77
aI1
ag910
aa(lp4091
F0.1662133546015
aI72
aI0
aI1
ag912
aa(lp4092
F0.14741681984015
aI84
aI101
aI1
ag914
aa(lp4093
F0.043312089759638
aI84
aI0
aI1
ag916
aa(lp4094
F0.19252072665404
aI84
aI67
aI1
ag918
aa(lp4095
F0.043290601792251
aI84
aI0
aI1
ag920
aa(lp4096
F0.18314152319545
aI72
aI96
aI1
ag922
aa(lp4097
F0.12220794154928
aI72
aI0
aI1
ag924
aa(lp4098
F0.16488609376211
aI96
aI108
aI1
ag926
aa(lp4099
F0.078117190140802
aI96
aI0
aI1
ag928
aa(lp4100
F0.15693451390416
aI96
aI79
aI1
ag930
aa(lp4101
F0.087109228410554
aI96
aI0
aI1
ag932
aa(lp4102
F0.17494278420236
aI72
aI101
aI1
ag934
aa(lp4103
F0.11296431784467
aI72
aI0
aI1
ag936
aa(lp4104
F0.16556861388653
aI84
aI108
aI1
ag938
aa(lp4105
F0.043587533857135
aI84
aI0
aI1
ag940
aa(lp4106
F0.18267535984432
aI84
aI96
aI1
ag942
aa(lp4107
F0.087259937599811
aI84
aI0
aI1
ag944
aa(lp4108
F0.14786485620971
aI72
aI99
aI1
ag946
aa(lp4109
F0.13075696992018
aI72
aI0
aI1
ag948
aa(lp4110
F0.11364083621174
aI84
aI101
aI1
ag950
aa(lp4111
F0.078456021156853
aI84
aI0
aI1
ag952
aa(lp4112
F0.18398649262144
aI72
aI110
aI1
ag954
aa(lp4113
F0.096345798378024
aI72
aI0
aI1
ag956
aa(lp4114
F0.14834166268429
aI84
aI105
aI1
ag958
aa(lp4115
F0.043145262509825
aI84
aI0
aI1
ag960
aa(lp4116
F0.16626190883744
aI84
aI92
aI1
ag962
aa(lp4117
F0.096663038064435
aI84
aI0
aI1
ag964
aa(lp4118
F0.1734074223441
aI72
aI105
aI1
ag966
aa(lp4119
F0.12196824793409
aI72
aI0
aI1
ag968
aa(lp4120
F0.15804446602579
aI96
aI112
aI1
ag970
aa(lp4121
F0.095691696586073
aI96
aI0
aI1
ag972
aa(lp4122
F0.14820330378188
aI72
aI108
aI1
ag974
aa(lp4123
F0.1129788854505
aI72
aI0
aI1
ag976
aa(lp4124
F0.14003545551259
aI84
aI116
aI1
ag978
aa(lp4125
F0.078147947491743
aI84
aI0
aI1
ag980
aa(lp4126
F0.156675946424
aI72
aI103
aI1
ag982
aa(lp4127
F0.086207640715656
aI72
aI0
aI1
ag984
aa(lp4128
F0.16472025013354
aI96
aI105
aI1
ag986
aa(lp4129
F0.070016346518969
aI96
aI0
aI1
ag988
aa(lp4130
F0.20034971556379
aI96
aI67
aI1
ag990
aa(lp4131
F0.043835543245223
aI96
aI0
aI1
ag992
aa(lp4132
F0.20972401925246
aI72
aI104
aI1
ag994
aa(lp4133
F0.11316751075719
aI72
aI0
aI1
ag996
aa(lp4134
F0.11317528137079
aI84
aI115
aI1
ag998
aa(lp4135
F0.069711367093078
aI84
aI0
aI1
ag1000
aa(lp4136
F0.13039815637694
aI72
aI111
aI1
ag1002
aa(lp4137
F0.12182083637708
aI72
aI0
aI1
ag1004
aa(lp4138
F0.1398308888638
aI96
aI101
aI1
ag1006
aa(lp4139
F0.043477096474817
aI96
aI0
aI1
ag1008
aa(lp4140
F0.19233733621513
aI96
aI83
aI1
ag1010
aa(lp4141
F0.11291471996901
aI96
aI0
aI1
ag1012
aa(lp4142
F0.14807627987011
aI72
aI105
aI1
ag1014
aa(lp4143
F0.11395434480255
aI72
aI0
aI1
ag1016
aa(lp4144
F0.18297819030522
aI84
aI116
aI1
ag1018
aa(lp4145
F0.069840046489844
aI84
aI0
aI1
ag1020
aa(lp4146
F0.20858391329057
aI72
aI105
aI1
ag1022
aa(lp4147
F0.087579939761781
aI72
aI0
aI1
ag1024
aa(lp4148
F0.11489173632708
aI94
aI114
aI1
ag1026
aa(lp4149
F0.15638466434848
aI96
aI53
aI1
ag1028
aa(lp4150
F0.061686028942859
aI94
aI0
aI1
ag1030
aa(lp4151
F0.19117091086628
aI96
aI0
aI1
ag1032
aa(lp4152
F0.10429320701223
aI72
aI120
aI1
ag1034
aa(lp4153
F0.13121401893295
aI72
aI0
aI1
ag1036
aa(lp4154
F0.18276321893791
aI72
aI118
aI1
ag1038
aa(lp4155
F0.096012567337311
aI72
aI0
aI1
ag1040
aa(lp4156
F0.087364608290954
aI84
aI114
aI1
ag1042
aa(lp4157
F0.12123410933873
aI84
aI0
aI1
ag1044
aa(lp4158
F0.15703129228223
aI72
aI105
aI1
ag1046
aa(lp4159
F0.10423054363764
aI72
aI0
aI1
ag1048
aa(lp4160
F0.16562470366716
aI96
aI109
aI1
ag1050
aa(lp4161
F0.095467360806651
aI96
aI0
aI1
ag1052
aa(lp4162
F0.17396161317356
aI96
aI91
aI1
ag1054
aa(lp4163
F0.087350894269548
aI96
aI0
aI1
ag1056
aa(lp4164
F0.10508160818335
aI72
aI101
aI1
ag1058
aa(lp4165
F0.094899147530668
aI72
aI0
aI1
ag1060
aa(lp4166
F0.15644855141363
aI84
aI106
aI1
ag1062
aa(lp4167
F0.043701597302061
aI84
aI0
aI1
ag1064
aa(lp4168
F0.16523172343841
aI72
aI112
aI1
ag1066
aa(lp4169
F0.09597961934287
aI72
aI0
aI1
ag1068
aa(lp4170
F0.14818813600141
aI96
aI100
aI1
ag1070
aa(lp4171
F0.078181282266996
aI96
aI0
aI1
ag1072
aa(lp4172
F0.19177747538743
aI96
aI97
aI1
ag1074
aa(lp4173
F0.096480174445787
aI96
aI0
aI1
ag1076
aa(lp4174
F0.14844150862791
aI72
aI101
aI1
ag1078
aa(lp4175
F0.10414237778605
aI72
aI0
aI1
ag1080
aa(lp4176
F0.1910643346182
aI84
aI112
aI1
ag1082
aa(lp4177
F0.043136003127074
aI84
aI0
aI1
ag1084
aa(lp4178
F0.16637359491961
aI72
aI112
aI1
ag1086
aa(lp4179
F0.1048125009429
aI72
aI0
aI1
ag1088
aa(lp4180
F0.17431005534308
aI84
aI110
aI1
ag1090
aa(lp4181
F0.043702562585167
aI84
aI0
aI1
ag1092
aa(lp4182
F0.16594958726091
aI72
aI113
aI1
ag1094
aa(lp4183
F0.12218422626211
aI72
aI0
aI1
ag1096
aa(lp4184
F0.13878015243881
aI84
aI110
aI1
ag1098
aa(lp4185
F0.043788146012957
aI84
aI0
aI1
ag1100
aa(lp4186
F0.19243515489597
aI84
aI86
aI1
ag1102
aa(lp4187
F0.078260772241265
aI84
aI0
aI1
ag1104
aa(lp4188
F0.16617908288572
aI72
aI114
aI1
ag1106
aa(lp4189
F0.11288215375316
aI72
aI0
aI1
ag1108
aa(lp4190
F0.10449945582059
aI89
aI118
aI1
ag1110
aa(lp4191
F0.096738715254105
aI89
aI0
aI1
ag1112
aa(lp4192
F0.18313376425431
aI72
aI112
aI1
ag1114
aa(lp4193
F0.1053727485496
aI72
aI0
aI1
ag1116
aa(lp4194
F0.13907895671855
aI84
aI102
aI1
ag1118
aa(lp4195
F0.043626490280985
aI84
aI0
aI1
ag1120
aa(lp4196
F0.22603536698534
aI84
aI71
aI1
ag1122
aa(lp4197
F0.043391027905272
aI84
aI0
aI1
ag1124
aa(lp4198
F0.22669705767112
aI84
aI112
aI1
ag1126
aa(lp4199
F0.095698500246726
aI84
aI0
aI1
ag1128
aa(lp4200
F0.1304083860432
aI72
aI111
aI1
ag1130
aa(lp4201
F0.13020421617784
aI72
aI0
aI1
ag1132
aa(lp4202
F0.09668838716334
aI91
aI117
aI1
ag1134
aa(lp4203
F0.12221292634422
aI91
aI0
aI1
ag1136
aa(lp4204
F0.14058639538962
aI72
aI107
aI1
ag1138
aa(lp4205
F0.12065960588643
aI72
aI0
aI1
ag1140
aa(lp4206
F0.13053436965038
aI92
aI112
aI1
ag1142
aa(lp4207
F0.11282573387689
aI92
aI0
aI1
ag1144
aa(lp4208
F0.16588307109123
aI72
aI115
aI1
ag1146
aa(lp4209
F0.12286090800808
aI72
aI0
aI1
ag1148
aa(lp4210
F0.13868280556198
aI94
aI112
aI1
ag1150
aa(lp4211
F0.095839158156195
aI94
aI0
aI1
ag1152
aa(lp4212
F0.13981470078397
aI72
aI114
aI1
ag1154
aa(lp4213
F0.11277172137306
aI72
aI0
aI1
ag1156
aa(lp4214
F0.11297438413112
aI96
aI116
aI1
ag1158
aa(lp4215
F0.12158217639808
aI96
aI0
aI1
ag1160
aa(lp4216
F0.21216881537475
aI0
aI0
aI0
ag1162
aaaa(lp4217
(lp4218
(lp4219
F0.60348545708098
aI24
aI114
aI2
ag3319
aa(lp4220
F0.68506381473094
aI24
aI0
aI2
ag3321
aa(lp4221
F0.051426691885695
aI27
aI113
aI2
ag3323
aa(lp4222
F0.65451660775477
aI29
aI115
aI2
ag3325
aa(lp4223
F0.051333344324576
aI27
aI0
aI2
ag3327
aa(lp4224
F0.69552691688432
aI31
aI120
aI2
ag3329
aa(lp4225
F0.030584539257461
aI29
aI0
aI2
ag3331
aa(lp4226
F0.6235503661029
aI31
aI0
aI2
ag3333
aa(lp4227
F0.052318089100254
aI34
aI110
aI2
ag3335
aa(lp4228
F0.48716100326351
aI36
aI120
aI2
ag3337
aa(lp4229
F0.020752462333689
aI34
aI0
aI2
ag3339
aa(lp4230
F0.69622479432678
aI34
aI115
aI2
ag3341
aa(lp4231
F0.041402761189829
aI36
aI0
aI2
ag3343
aa(lp4232
F0.63242372553293
aI31
aI120
aI2
ag3345
aa(lp4233
F0.031813259801993
aI34
aI0
aI2
ag3347
aa(lp4234
F0.53792482353833
aI31
aI0
aI2
ag3349
aa(lp4235
F0.010287702113601
aI29
aI112
aI2
ag3351
aa(lp4236
F0.70533430527621
aI31
aI120
aI2
ag3353
aa(lp4237
F0.041337618610441
aI29
aI0
aI2
ag3355
aa(lp4238
F0.67357057525464
aI34
aI113
aI2
ag3357
aa(lp4239
F0.021023302351068
aI31
aI0
aI2
ag3359
aa(lp4240
F0.53960378452314
aI31
aI123
aI2
ag3361
aa(lp4241
F0.031005182416152
aI34
aI0
aI2
ag3363
aa(lp4242
F3.6336051521632
aI31
aI0
aI2
ag3365
aa(lp4243
F1.0163423538809
aI27
aI118
aI2
ag3367
aa(lp4244
F0.65453358707043
aI29
aI108
aI2
ag3369
aa(lp4245
F0.062612830063472
aI27
aI0
aI2
ag3371
aa(lp4246
F0.60085910233283
aI31
aI121
aI2
ag3373
aa(lp4247
F0.020599930125968
aI29
aI0
aI2
ag3375
aa(lp4248
F0.67410721960653
aI29
aI108
aI2
ag3377
aa(lp4249
F0.062577421615401
aI31
aI0
aI2
ag3379
aa(lp4250
F0.65342300376869
aI27
aI116
aI2
ag3381
aa(lp4251
F0.14403187955816
aI29
aI0
aI2
ag3383
aa(lp4252
F0.49876528956679
aI27
aI0
aI2
ag3385
aa(lp4253
F0.06087110259341
aI0
aI0
aI0
ag3387
aaa(lp4254
(lp4255
F0.017301133480032
aI43
aI117
aI2
ag1197
aa(lp4256
F0.11418611804038
aI44
aI84
aI2
ag1199
aa(lp4257
F0.16616025749499
aI43
aI0
aI2
ag1201
aa(lp4258
F0.33124642700204
aI44
aI0
aI2
ag1203
aa(lp4259
F0.1247194103571
aI43
aI118
aI2
ag1205
aa(lp4260
F0.46534784044161
aI43
aI0
aI2
ag1207
aa(lp4261
F0.19769004146292
aI41
aI98
aI2
ag1209
aa(lp4262
F0.23766260718639
aI41
aI0
aI2
ag1211
aa(lp4263
F0.31210769977406
aI43
aI120
aI2
ag1213
aa(lp4264
F0.71724958814411
aI43
aI0
aI2
ag1215
aa(lp4265
F0.2276218558427
aI41
aI112
aI2
ag1217
aa(lp4266
F0.2585374709297
aI41
aI0
aI2
ag1219
aa(lp4267
F0.30131171100675
aI39
aI118
aI2
ag1221
aa(lp4268
F0.86218141110021
aI39
aI0
aI2
ag1223
aa(lp4269
F1.6576371580095
aI39
aI108
aI2
ag1225
aa(lp4270
F0.20763112238183
aI39
aI0
aI2
ag1227
aa(lp4271
F0.00024268660126836
aI36
aI118
aI2
ag1229
aa(lp4272
F0.18643955998959
aI36
aI0
aI2
ag1231
aa(lp4273
F0.3743084883954
aI39
aI99
aI2
ag1233
aa(lp4274
F0.19646091631785
aI39
aI0
aI2
ag1235
aa(lp4275
F0.55881660114756
aI41
aI105
aI2
ag1237
aa(lp4276
F0.22725833664663
aI41
aI0
aI2
ag1239
aa(lp4277
F0.36269047742553
aI39
aI114
aI2
ag1241
aa(lp4278
F0.67520143842557
aI39
aI0
aI2
ag1243
aa(lp4279
F0.25921885695698
aI36
aI114
aI2
ag1245
aa(lp4280
F0.28997999220337
aI36
aI0
aI2
ag1247
aa(lp4281
F0.25009899697579
aI34
aI105
aI2
ag1249
aa(lp4282
F0.58025869223911
aI34
aI0
aI2
ag1251
aa(lp4283
F0.35223694882188
aI36
aI97
aI2
ag1253
aa(lp4284
F0.23957322347542
aI36
aI0
aI2
ag1255
aa(lp4285
F0.2904232751107
aI39
aI106
aI2
ag1257
aa(lp4286
F0.60298971985867
aI39
aI0
aI2
ag1259
aa(lp4287
F0.26933072864722
aI36
aI100
aI2
ag1261
aa(lp4288
F0.30022688525332
aI36
aI0
aI2
ag1263
aa(lp4289
F0.25953763612142
aI39
aI114
aI2
ag1265
aa(lp4290
F0.72423770010118
aI39
aI0
aI2
ag1267
aa(lp4291
F0.17648750727221
aI36
aI83
aI2
ag1269
aa(lp4292
F0.20647894461581
aI36
aI0
aI2
ag1271
aa(lp4293
F0.35200159460146
aI39
aI111
aI2
ag1273
aa(lp4294
F0.10413530127971
aI41
aI17
aI2
ag1275
aa(lp4295
F0.15559372848111
aI39
aI0
aI2
ag1277
aa(lp4296
F0.63301525268071
aI41
aI0
aI2
ag1279
aa(lp4297
F0.07315506721261
aI39
aI101
aI2
ag1281
aa(lp4298
F0.36338148460254
aI39
aI0
aI2
ag1283
aa(lp4299
F0.73762810588505
aI0
aI0
aI0
ag1285
aaa(lp4300
(lp4301
F0.0071493820878459
aI24
aI117
aI2
ag1288
aa(lp4302
F3.9762220717489
aI24
aI0
aI2
ag1290
aa(lp4303
F0.060771937583922
aI22
aI16
aI2
ag1292
aa(lp4304
F3.9572003609626
aI22
aI0
aI2
ag1294
aa(lp4305
F0.0084180599690171
aI15
aI114
aI2
ag1296
aa(lp4306
F4.0259370489316
aI17
aI111
aI2
ag1298
aa(lp4307
F0.088207320386118
aI15
aI0
aI2
ag1300
aa(lp4308
F3.86609381833
aI17
aI0
aI2
ag1302
aa(lp4309
F0.0099999999999909
aI0
aI0
aI0
ag1304
aaa(lp4310
(lp4311
F0.02009965245179
aI26
aI118
aI2
aS'on'
p4312
aa(lp4313
F0.095843272696584
aI26
aI0
aI2
aS'off'
p4314
aa(lp4315
F0.0964853059495
aI26
aI101
aI2
aS'on'
p4316
aa(lp4317
F0.13892570178177
aI26
aI0
aI2
aS'off'
p4318
aa(lp4319
F0.37371535899274
aI22
aI99
aI2
aS'on'
p4320
aa(lp4321
F0.11321582992605
aI22
aI0
aI2
aS'off'
p4322
aa(lp4323
F0.10510634877028
aI22
aI108
aI2
aS'on'
p4324
aa(lp4325
F0.13068284318524
aI22
aI0
aI2
aS'off'
p4326
aa(lp4327
F0.37544258710841
aI19
aI112
aI2
aS'on'
p4328
aa(lp4329
F0.077542386599816
aI19
aI0
aI2
aS'off'
p4330
aa(lp4331
F0.15793833490716
aI19
aI104
aI2
aS'on'
p4332
aa(lp4333
F0.10441246531263
aI19
aI0
aI2
aS'off'
p4334
aa(lp4335
F0.40949827941859
aI15
aI118
aI2
aS'on'
p4336
aa(lp4337
F0.095763569326664
aI15
aI0
aI2
aS'off'
p4338
aa(lp4339
F0.13082658533222
aI15
aI101
aI2
aS'on'
p4340
aa(lp4341
F0.10467500896084
aI15
aI0
aI2
aS'off'
p4342
aa(lp4343
F0.44416677808022
aI19
aI114
aI2
aS'on'
p4344
aa(lp4345
F0.087243916235821
aI19
aI0
aI2
aS'off'
p4346
aa(lp4347
F0.10489413654614
aI19
aI105
aI2
aS'on'
p4348
aa(lp4349
F0.13099928597148
aI19
aI0
aI2
aS'off'
p4350
aa(lp4351
F0.40941250426749
aI20
aI113
aI2
aS'on'
p4352
aa(lp4353
F0.086921388331575
aI20
aI0
aI2
aS'off'
p4354
aa(lp4355
F0.1205596365744
aI20
aI100
aI2
aS'on'
p4356
aa(lp4357
F0.1130445180288
aI20
aI0
aI2
aS'off'
p4358
aa(lp4359
F0.39207362691377
aI19
aI109
aI2
aS'on'
p4360
aa(lp4361
F0.051931510437498
aI19
aI0
aI2
aS'off'
p4362
aa(lp4363
F0.22706654100784
aI19
aI108
aI2
aS'on'
p4364
aa(lp4365
F0.10487825855762
aI19
aI0
aI2
aS'off'
p4366
aa(lp4367
F0.39137386506627
aI17
aI115
aI2
aS'on'
p4368
aa(lp4369
F0.043894410505345
aI17
aI0
aI2
aS'off'
p4370
aa(lp4371
F0.19113508536248
aI17
aI105
aI2
aS'on'
p4372
aa(lp4373
F0.10459774797437
aI17
aI0
aI2
aS'off'
p4374
aa(lp4375
F0.43742349251261
aI19
aI111
aI2
aS'on'
p4376
aa(lp4377
F0.078661719806405
aI19
aI0
aI2
aS'off'
p4378
aa(lp4379
F0.13921362453857
aI19
aI96
aI2
aS'on'
p4380
aa(lp4381
F0.11358248576835
aI19
aI0
aI2
aS'off'
p4382
aa(lp4383
F0.37503825021759
aI20
aI105
aI2
aS'on'
p4384
aa(lp4385
F0.06975526829865
aI20
aI0
aI2
aS'off'
p4386
aa(lp4387
F0.17440380449807
aI20
aI110
aI2
aS'on'
p4388
aa(lp4389
F0.1222489335687
aI20
aI0
aI2
aS'off'
p4390
aa(lp4391
F0.38305727318311
aI19
aI117
aI2
aS'on'
p4392
aa(lp4393
F0.096022953714964
aI19
aI0
aI2
aS'off'
p4394
aa(lp4395
F0.15654740873288
aI19
aI114
aI2
aS'on'
p4396
aa(lp4397
F0.12162592422646
aI19
aI0
aI2
aS'off'
p4398
aa(lp4399
F0.41892412655307
aI26
aI109
aI2
aS'on'
p4400
aa(lp4401
F0.078278310716996
aI26
aI0
aI2
aS'off'
p4402
aa(lp4403
F0.1128516981571
aI26
aI105
aI2
aS'on'
p4404
aa(lp4405
F0.12287522720726
aI26
aI0
aI2
aS'off'
p4406
aa(lp4407
F0.45223266478661
aI22
aI113
aI2
aS'on'
p4408
aa(lp4409
F0.096088783016967
aI22
aI0
aI2
aS'off'
p4410
aa(lp4411
F0.14806470480926
aI22
aI114
aI2
aS'on'
p4412
aa(lp4413
F0.12258365004618
aI22
aI0
aI2
aS'off'
p4414
aa(lp4415
F0.37540131333935
aI19
aI118
aI2
aS'on'
p4416
aa(lp4417
F0.1040074265502
aI19
aI0
aI2
aS'off'
p4418
aa(lp4419
F0.1563940771066
aI19
aI114
aI2
aS'on'
p4420
aa(lp4421
F0.12151344791346
aI19
aI0
aI2
aS'off'
p4422
aa(lp4423
F0.37551678219643
aI15
aI118
aI2
aS'on'
p4424
aa(lp4425
F0.095639527956337
aI15
aI0
aI2
aS'off'
p4426
aa(lp4427
F0.15684470757151
aI15
aI98
aI2
aS'on'
p4428
aa(lp4429
F0.10447497364203
aI15
aI0
aI2
aS'off'
p4430
aa(lp4431
F0.42666465285856
aI14
aI119
aI2
aS'on'
p4432
aa(lp4433
F0.087003534084943
aI14
aI0
aI2
aS'off'
p4434
aa(lp4435
F0.15718781984469
aI14
aI99
aI2
aS'on'
p4436
aa(lp4437
F0.10468237778878
aI14
aI0
aI2
aS'off'
p4438
aa(lp4439
F0.44480373984698
aI15
aI118
aI2
aS'on'
p4440
aa(lp4441
F0.078312624111277
aI15
aI0
aI2
aS'off'
p4442
aa(lp4443
F0.12220626272392
aI15
aI113
aI2
aS'on'
p4444
aa(lp4445
F0.12195549086027
aI15
aI0
aI2
aS'off'
p4446
aa(lp4447
F0.37528916378869
aI19
aI116
aI2
aS'on'
p4448
aa(lp4449
F0.078466062435837
aI19
aI0
aI2
aS'off'
p4450
aa(lp4451
F0.13958320623897
aI19
aI106
aI2
aS'on'
p4452
aa(lp4453
F0.11349381476884
aI19
aI0
aI2
aS'off'
p4454
aa(lp4455
F0.37569108663865
aI20
aI114
aI2
aS'on'
p4456
aa(lp4457
F0.087189388579645
aI20
aI0
aI2
aS'off'
p4458
aa(lp4459
F0.16566728615271
aI20
aI106
aI2
aS'on'
p4460
aa(lp4461
F0.13161280419718
aI20
aI0
aI2
aS'off'
p4462
aa(lp4463
F0.31376300338889
aI22
aI103
aI2
aS'on'
p4464
aa(lp4465
F0.070044301381131
aI22
aI0
aI2
aS'off'
p4466
aa(lp4467
F0.13924266972208
aI22
aI110
aI2
aS'on'
p4468
aa(lp4469
F0.11256002930259
aI22
aI0
aI2
aS'off'
p4470
aa(lp4471
F0.43640440370109
aI26
aI100
aI2
aS'on'
p4472
aa(lp4473
F0.078004335383412
aI26
aI0
aI2
aS'off'
p4474
aa(lp4475
F0.99653264098379
aI0
aI0
aI0
aS'timeAfterLastHit'
p4476
aaaa(lp4477
(lp4478
(lp4479
F0.75
aI36
aI114
aI3
ag3447
aa(lp4480
F0.67515266627856
aI36
aI0
aI3
ag3449
aa(lp4481
F0.074847333721436
aI39
aI118
aI3
ag3451
aa(lp4482
F0.5
aI41
aI115
aI3
ag3453
aa(lp4483
F0.08019361709421
aI39
aI0
aI3
ag3455
aa(lp4484
F0.75946310047561
aI41
aI0
aI3
ag3457
aa(lp4485
F0.16034328243018
aI43
aI122
aI3
ag3459
aa(lp4486
F0.71534317057285
aI43
aI0
aI3
ag3461
aa(lp4487
F0.28465682942715
aI0
aI0
aI0
ag3463
aaa(lp4488
(lp4489
F0.0
aI37
aI111
aI3
ag3466
aa(lp4490
F0.15672389905865
aI37
aI0
aI3
ag3468
aa(lp4491
F0.84327610094135
aI37
aI118
aI3
ag3470
aa(lp4492
F0.22857238216977
aI37
aI0
aI3
ag3472
aa(lp4493
F0.77142761783023
aI37
aI116
aI3
ag3474
aa(lp4494
F0.22887035021904
aI37
aI0
aI3
ag3476
aa(lp4495
F0.77112964978096
aI37
aI120
aI3
ag3478
aa(lp4496
F0.15533771586206
aI37
aI0
aI3
ag3480
aa(lp4497
F0.84466228413794
aI0
aI0
aI0
ag3482
aaa(lp4498
(lp4499
F2.0
aI51
aI117
aI3
ag3485
aa(lp4500
F0.53016892759297
aI51
aI0
aI3
ag3487
aa(lp4501
F0.96983107240703
aI51
aI119
aI3
ag3489
aa(lp4502
F0.30018977113878
aI51
aI0
aI3
ag3491
aa(lp4503
F0.19981022886122
aI0
aI0
aI0
ag3493
aaa(lp4504
(lp4505
F0.0
aI41
aI116
aI3
ag1469
aa(lp4506
F0.12755477481915
aI41
aI0
aI3
ag1471
aa(lp4507
F0.1211643788929
aI43
aI119
aI3
ag1473
aa(lp4508
F0.087408547841278
aI43
aI0
aI3
ag1475
aa(lp4509
F0.16565895370968
aI43
aI72
aI3
ag1477
aa(lp4510
F0.043689670471394
aI43
aI0
aI3
ag1479
aa(lp4511
F0.16577260536678
aI41
aI95
aI3
ag1481
aa(lp4512
F0.12217321803473
aI41
aI0
aI3
ag1483
aa(lp4513
F0.16545386524058
aI43
aI118
aI3
ag1485
aa(lp4514
F0.23405898796636
aI43
aI0
aI3
ag1487
aa(lp4515
F0.27026381210226
aI41
aI89
aI3
ag1489
aa(lp4516
F0.095998404849979
aI41
aI0
aI3
ag1491
aa(lp4517
F0.13976709349163
aI43
aI107
aI3
ag1493
aa(lp4518
F0.087389395557693
aI43
aI0
aI3
ag1495
aa(lp4519
F0.1753407525598
aI41
aI110
aI3
ag1497
aa(lp4520
F0.11368060120412
aI41
aI0
aI3
ag1499
aa(lp4521
F0.41102830471164
aI41
aI105
aI3
ag1501
aa(lp4522
F0.14707844895793
aI41
aI0
aI3
ag1503
aa(lp4523
F0.32190844842307
aI47
aI116
aI3
ag1505
aa(lp4524
F0.18350354601353
aI47
aI0
aI3
ag1507
aa(lp4525
F0.32211405370936
aI41
aI101
aI3
ag1509
aa(lp4526
F0.12186928391611
aI41
aI0
aI3
ag1511
aa(lp4527
F0.095829053526813
aI47
aI107
aI3
ag1513
aa(lp4528
F0.0874062871776
aI47
aI0
aI3
ag1515
aa(lp4529
F0.19226860772869
aI41
aI112
aI3
ag1517
aa(lp4530
F0.12199081788594
aI41
aI0
aI3
ag1519
aa(lp4531
F0.11317305071589
aI43
aI114
aI3
ag1521
aa(lp4532
F0.069968139048797
aI43
aI0
aI3
ag1523
aa(lp4533
F0.41139830820293
aI41
aI97
aI3
ag1525
aa(lp4534
F0.077629388777041
aI41
aI0
aI3
ag1527
aa(lp4535
F0.18335670795796
aI43
aI117
aI3
ag1529
aa(lp4536
F0.23519468430322
aI43
aI0
aI3
ag1531
aa(lp4537
F0.27901333259342
aI41
aI98
aI3
ag1533
aa(lp4538
F0.10484268646042
aI41
aI0
aI3
ag1535
aa(lp4539
F0.12136663819956
aI43
aI116
aI3
ag1537
aa(lp4540
F0.096394529333338
aI43
aI0
aI3
ag1539
aa(lp4541
F0.17426965182949
aI41
aI104
aI3
ag1541
aa(lp4542
F0.10464434496998
aI41
aI0
aI3
ag1543
aa(lp4543
F0.42710783614075
aI41
aI115
aI3
ag1545
aa(lp4544
F0.15765111402288
aI41
aI0
aI3
ag1547
aa(lp4545
F0.29572442087056
aI47
aI113
aI3
ag1549
aa(lp4546
F0.07803175008803
aI47
aI0
aI3
ag1551
aa(lp4547
F0.13963082353484
aI45
aI111
aI3
ag1553
aa(lp4548
F0.096443246951367
aI45
aI0
aI3
ag1555
aa(lp4549
F0.17406848451083
aI47
aI99
aI3
ag1557
aa(lp4550
F0.11289961887496
aI47
aI0
aI3
ag1559
aa(lp4551
F0.42681932845471
aI0
aI0
aI0
ag1561
aaaaa(lp4552
(lp4553
(dp4554
g1565
g3545
sg1567
I0
sa(dp4555
g1565
g3547
sg1567
I0
sa(dp4556
g1565
S'70'
p4557
sg1567
I1
sa(dp4558
aa(lp4559
(dp4560
g1565
g3552
sg1567
I0
sa(dp4561
g1565
g1576
sg1567
I0
sa(dp4562
g1565
g1578
sg1567
I1
sa(dp4563
g1565
g1580
sg1567
I1
saa(lp4564
(dp4565
g1565
g3558
sg1567
I0
sa(dp4566
g1565
g1585
sg1567
I0
sa(dp4567
g1565
g1587
sg1567
I0
sa(dp4568
g1565
S'40'
p4569
sg1567
I01
saa(lp4570
(dp4571
g1565
g3564
sg1567
I0
sa(dp4572
g1565
g3566
sg1567
I0
sa(dp4573
g1565
g3568
sg1567
I0
sa(dp4574
g1565
g1597
sg1567
I1
saaa(lp4575
I60
aI60
aI36
aI36
aa(lp4576
(lp4577
I0
aI2
aI3
aI5
aI7
aI8
aI10
aa(lp4578
I0
aI2
aI3
aI5
aI7
aI8
aI10
aa(lp4579
I0
aI2
aI3
aI5
aI7
aI8
aI10
aa(lp4580
I0
aI1
aI2
aI3
aI4
aI5
aI6
aI7
aI8
aI9
aI10
aI11
aaa(lp4581
(lp4582
(lp4583
I0
aI0
aI0
aI0
aI0
aI0
aI0
aI0
aI0
aI0
aI0
aI0
aa(lp4584
I0
aI0
aI0
aI0
aI0
aI0
aI0
aI0
aI0
aI0
aI0
aI0
aa(lp4585
I0
aI0
aI0
aI0
aI0
aI0
aI0
aI0
aI0
aI0
aI0
aI0
aa(lp4586
I0
aI0
aI0
aI0
aI0
aI0
aI0
aI0
aI0
aI0
aI0
aI0
aaa(lp4587
(lp4588
I0
aI0
aI0
aI0
aI0
aI0
aI0
aI0
aI0
aI0
aI0
aI0
aa(lp4589
I0
aI0
aI0
aI0
aI0
aI0
aI0
aI0
aI0
aI0
aI0
aI0
aa(lp4590
I0
aI0
aI0
aI0
aI0
aI0
aI0
aI0
aI0
aI0
aI0
aI0
aa(lp4591
I0
aI0
aI0
aI0
aI0
aI0
aI0
aI0
aI0
aI0
aI0
aI0
aaa(lp4592
(lp4593
I0
aI0
aI0
aI0
aI0
aI0
aI0
aI0
aI0
aI0
aI0
aI0
aa(lp4594
I0
aI0
aI0
aI0
aI0
aI0
aI0
aI0
aI0
aI0
aI0
aI0
aa(lp4595
I0
aI0
aI0
aI0
aI0
aI0
aI0
aI0
aI0
aI0
aI0
aI0
aa(lp4596
I0
aI0
aI0
aI0
aI0
aI0
aI0
aI0
aI0
aI0
aI0
aI0
aaa(lp4597
(lp4598
I0
aI0
aI0
aI0
aI0
aI0
aI0
aI0
aI0
aI0
aI0
aI0
aa(lp4599
I0
aI0
aI0
aI0
aI0
aI0
aI0
aI0
aI0
aI0
aI0
aI0
aa(lp4600
I0
aI0
aI0
aI0
aI0
aI0
aI0
aI0
aI0
aI0
aI0
aI0
aa(lp4601
I0
aI0
aI0
aI0
aI0
aI0
aI0
aI0
aI0
aI0
aI0
aI0
aaaa(lp4602
(lp4603
I0
aI0
aI0
aI0
aI0
aI0
aI0
aI0
aI0
aI0
aI0
aI0
aa(lp4604
I0
aI0
aI0
aI0
aI0
aI0
aI0
aI0
aI0
aI0
aI0
aI0
aa(lp4605
I0
aI0
aI0
aI0
aI0
aI0
aI0
aI0
aI0
aI0
aI0
aI0
aa(lp4606
I0
aI0
aI0
aI0
aI0
aI0
aI0
aI0
aI0
aI0
aI0
aI0
aaaaI0
aI0
aI0
aI0
aI0
aI0
aI0
aI0
a(lp4607
(lp4608
(lp4609
(lp4610
(lp4611
F0.0
aI74
aI35
aI0
ag2478
aa(lp4612
F0.0
aI70
aI54
aI0
ag2480
aa(lp4613
F0.30888276759379
aI70
aI0
aI0
ag2482
aa(lp4614
F0.093266563851103
aI74
aI0
aI0
ag2484
aa(lp4615
F1.1501558706377
aI68
aI39
aI0
ag2486
aa(lp4616
F0.020414490453732
aI72
aI72
aI0
ag2488
aa(lp4617
F0.4566918741657
aI72
aI0
aI0
ag2490
aa(lp4618
F0.062262406817354
aI68
aI0
aI0
ag2492
aa(lp4619
F3.7548168155927
aI74
aI14
aI0
ag2494
aa(lp4620
F0.00021569938689936
aI70
aI20
aI0
ag2496
aa(lp4621
F0.3315253173696
aI70
aI0
aI0
ag2498
aa(lp4622
F0.020856311643911
aI74
aI0
aI0
ag2500
aa(lp4623
F0.44521259735484
aI68
aI17
aI0
ag2502
aa(lp4624
F0.042490895143601
aI72
aI52
aI0
ag2504
aa(lp4625
F0.26775972247287
aI68
aI0
aI0
ag2506
aa(lp4626
F0.10384032607999
aI72
aI0
aI0
ag2508
aa(lp4627
F0.29068243726306
aI74
aI14
aI0
ag2510
aa(lp4628
F0.093410014374967
aI77
aI66
aI0
ag2512
aa(lp4629
F7.9749332409292
aI77
aI0
aI0
ag2514
aa(lp4630
F0.04150935146663
aI74
aI0
aI0
ag2516
aa(lp4631
F0.54107329740236
aI0
aI0
aI0
ag2518
aaaI0
aI0
aI0
aa(lp4632
(lp4633
(lp4634
F0.0
aI70
aI92
aI1
ag2937
aa(lp4635
F0.0058041877587129
aI74
aI111
aI1
ag2939
aa(lp4636
F0.03130323574851
aI67
aI95
aI1
ag2941
aa(lp4637
F0.12500882032327
aI74
aI0
aI1
ag2943
aa(lp4638
F0.030915561537768
aI70
aI0
aI1
ag2945
aa(lp4639
F0.010381194458205
aI67
aI0
aI1
ag2947
aa(lp4640
F0.48658195921416
aI68
aI99
aI1
ag2949
aa(lp4641
F0.010734108770976
aI72
aI110
aI1
ag2951
aa(lp4642
F0.00017740717294146
aI65
aI106
aI1
ag2953
aa(lp4643
F4.9059162312246
aI68
aI0
aI1
ag2955
aa(lp4644
F0.031037631731124
aI72
aI0
aI1
ag2957
aa(lp4645
F0.072789368333815
aI65
aI0
aI1
ag2959
aa(lp4646
F0.28913843813643
aI74
aI114
aI1
ag2961
aa(lp4647
F0.00036546286219163
aI67
aI97
aI1
ag2963
aa(lp4648
F0.00033581203024369
aI70
aI92
aI1
ag2965
aa(lp4649
F0.10205433650162
aI70
aI0
aI1
ag2967
aa(lp4650
F0.041747220553134
aI74
aI0
aI1
ag2969
aa(lp4651
F0.041542508831753
aI67
aI0
aI1
ag2971
aa(lp4652
F0.49861645627561
aI68
aI94
aI1
ag2973
aa(lp4653
F0.010339286627186
aI72
aI96
aI1
ag2975
aa(lp4654
F0.010534093582464
aI65
aI109
aI1
ag2977
aa(lp4655
F0.11387629164255
aI72
aI0
aI1
ag2979
aa(lp4656
F0.072589220261762
aI68
aI0
aI1
ag2981
aa(lp4657
F0.010690885990243
aI65
aI0
aI1
ag2983
aa(lp4658
F0.49505045885098
aI70
aI112
aI1
ag2985
aa(lp4659
F0.00018097717293131
aI74
aI105
aI1
ag2987
aa(lp4660
F0.009993282247251
aI77
aI116
aI1
ag2989
aa(lp4661
F8.5822955621593
aI70
aI0
aI1
ag2991
aa(lp4662
F0.0
aI74
aI0
aI1
ag2993
aa(lp4663
F0.0
aI77
aI0
aI1
ag2995
aa(lp4664
F0.010000000000218
aI0
aI0
aI0
ag2997
aaa(lp4665
(lp4666
F0.13416338839374
aI81
aI105
aI1
ag532
aa(lp4667
F0.12294940555626
aI82
aI85
aI1
ag534
aa(lp4668
F0.091220176731213
aI81
aI0
aI1
ag536
aa(lp4669
F0.04056521322741
aI83
aI89
aI1
ag538
aa(lp4670
F0.071935440735842
aI82
aI0
aI1
ag540
aa(lp4671
F0.081415117590495
aI83
aI0
aI1
ag542
aa(lp4672
F0.041436324375923
aI81
aI99
aI1
ag544
aa(lp4673
F0.1430972382791
aI82
aI67
aI1
ag546
aa(lp4674
F0.092766064367765
aI81
aI0
aI1
ag548
aa(lp4675
F0.00049717217689249
aI83
aI73
aI1
ag550
aa(lp4676
F0.029762118907684
aI82
aI0
aI1
ag552
aa(lp4677
F0.11271444756119
aI83
aI0
aI1
ag554
aa(lp4678
F0.071794817162527
aI81
aI82
aI1
ag556
aa(lp4679
F0.1333068366514
aI82
aI93
aI1
ag558
aa(lp4680
F0.040587883201169
aI81
aI0
aI1
ag560
aa(lp4681
F0.07132435449148
aI83
aI80
aI1
ag562
aa(lp4682
F0.041408118165805
aI82
aI0
aI1
ag564
aa(lp4683
F0.1020210906421
aI83
aI0
aI1
ag566
aa(lp4684
F0.071356024279225
aI81
aI96
aI1
ag568
aa(lp4685
F0.15328287165062
aI82
aI88
aI1
ag570
aa(lp4686
F0.06212651641647
aI81
aI0
aI1
ag572
aa(lp4687
F0.00019492023636758
aI82
aI0
aI1
ag574
aa(lp4688
F0.031525494882089
aI83
aI88
aI1
ag576
aa(lp4689
F0.13243140191094
aI83
aI0
aI1
ag578
aa(lp4690
F0.061928638033805
aI81
aI99
aI1
ag580
aa(lp4691
F0.15289380107913
aI82
aI68
aI1
ag582
aa(lp4692
F0.051453874351864
aI81
aI0
aI1
ag584
aa(lp4693
F0.00021471434433806
aI82
aI0
aI1
ag586
aa(lp4694
F0.081635808954388
aI83
aI93
aI1
ag588
aa(lp4695
F0.11224166343197
aI83
aI0
aI1
ag590
aa(lp4696
F0.072498640288472
aI81
aI94
aI1
ag592
aa(lp4697
F0.12184328248384
aI81
aI0
aI1
ag594
aa(lp4698
F0.030748631033589
aI81
aI18
aI1
ag596
aa(lp4699
F0.051574887969878
aI82
aI98
aI1
ag598
aa(lp4700
F0.061136540714642
aI81
aI0
aI1
ag600
aa(lp4701
F0.094040625416596
aI83
aI86
aI1
ag602
aa(lp4702
F0.039063862333023
aI82
aI0
aI1
ag604
aa(lp4703
F0.020832369130403
aI83
aI0
aI1
ag606
aa(lp4704
F0.14290477075747
aI81
aI104
aI1
ag608
aa(lp4705
F0.13372547692416
aI82
aI89
aI1
ag610
aa(lp4706
F0.07198269662058
aI81
aI0
aI1
ag612
aa(lp4707
F0.051122757964777
aI83
aI91
aI1
ag614
aa(lp4708
F0.071517041428137
aI82
aI0
aI1
ag616
aa(lp4709
F0.09194406039137
aI83
aI0
aI1
ag618
aa(lp4710
F0.071218364728452
aI81
aI95
aI1
ag620
aa(lp4711
F0.1644650082311
aI82
aI98
aI1
ag622
aa(lp4712
F0.010198829440469
aI81
aI0
aI1
ag624
aa(lp4713
F0.041122141901383
aI82
aI0
aI1
ag626
aa(lp4714
F0.082333801986124
aI83
aI92
aI1
ag628
aa(lp4715
F0.14381533690528
aI81
aI93
aI1
ag630
aa(lp4716
F0.010505614592148
aI83
aI0
aI1
ag632
aa(lp4717
F0.07715432096893
aI81
aI0
aI1
ag634
aa(lp4718
F0.0099999999999909
aI0
aI0
aI0
ag636
aaaI0
aI0
aa(lp4719
(lp4720
(lp4721
F0.60348545708098
aI24
aI114
aI2
ag3319
aa(lp4722
F0.68506381473094
aI24
aI0
aI2
ag3321
aa(lp4723
F0.051426691885695
aI27
aI113
aI2
ag3323
aa(lp4724
F0.65451660775477
aI29
aI115
aI2
ag3325
aa(lp4725
F0.051333344324576
aI27
aI0
aI2
ag3327
aa(lp4726
F0.69552691688432
aI31
aI120
aI2
ag3329
aa(lp4727
F0.030584539257461
aI29
aI0
aI2
ag3331
aa(lp4728
F0.6235503661029
aI31
aI0
aI2
ag3333
aa(lp4729
F0.052318089100254
aI34
aI110
aI2
ag3335
aa(lp4730
F0.48716100326351
aI36
aI120
aI2
ag3337
aa(lp4731
F0.020752462333689
aI34
aI0
aI2
ag3339
aa(lp4732
F0.69622479432678
aI34
aI115
aI2
ag3341
aa(lp4733
F0.041402761189829
aI36
aI0
aI2
ag3343
aa(lp4734
F0.63242372553293
aI31
aI120
aI2
ag3345
aa(lp4735
F0.031813259801993
aI34
aI0
aI2
ag3347
aa(lp4736
F0.53792482353833
aI31
aI0
aI2
ag3349
aa(lp4737
F0.010287702113601
aI29
aI112
aI2
ag3351
aa(lp4738
F0.70533430527621
aI31
aI120
aI2
ag3353
aa(lp4739
F0.041337618610441
aI29
aI0
aI2
ag3355
aa(lp4740
F0.67357057525464
aI34
aI113
aI2
ag3357
aa(lp4741
F0.021023302351068
aI31
aI0
aI2
ag3359
aa(lp4742
F0.53960378452314
aI31
aI123
aI2
ag3361
aa(lp4743
F0.031005182416152
aI34
aI0
aI2
ag3363
aa(lp4744
F3.6336051521632
aI31
aI0
aI2
ag3365
aa(lp4745
F1.0163423538809
aI27
aI118
aI2
ag3367
aa(lp4746
F0.65453358707043
aI29
aI108
aI2
ag3369
aa(lp4747
F0.062612830063472
aI27
aI0
aI2
ag3371
aa(lp4748
F0.60085910233283
aI31
aI121
aI2
ag3373
aa(lp4749
F0.020599930125968
aI29
aI0
aI2
ag3375
aa(lp4750
F0.67410721960653
aI29
aI108
aI2
ag3377
aa(lp4751
F0.062577421615401
aI31
aI0
aI2
ag3379
aa(lp4752
F0.65342300376869
aI27
aI116
aI2
ag3381
aa(lp4753
F0.14403187955816
aI29
aI0
aI2
ag3383
aa(lp4754
F0.49876528956679
aI27
aI0
aI2
ag3385
aa(lp4755
F0.06087110259341
aI0
aI0
aI0
ag3387
aaa(lp4756
(lp4757
F0.017301133480032
aI43
aI117
aI2
ag1197
aa(lp4758
F0.11418611804038
aI44
aI84
aI2
ag1199
aa(lp4759
F0.16616025749499
aI43
aI0
aI2
ag1201
aa(lp4760
F0.33124642700204
aI44
aI0
aI2
ag1203
aa(lp4761
F0.1247194103571
aI43
aI118
aI2
ag1205
aa(lp4762
F0.46534784044161
aI43
aI0
aI2
ag1207
aa(lp4763
F0.19769004146292
aI41
aI98
aI2
ag1209
aa(lp4764
F0.23766260718639
aI41
aI0
aI2
ag1211
aa(lp4765
F0.31210769977406
aI43
aI120
aI2
ag1213
aa(lp4766
F0.71724958814411
aI43
aI0
aI2
ag1215
aa(lp4767
F0.2276218558427
aI41
aI112
aI2
ag1217
aa(lp4768
F0.2585374709297
aI41
aI0
aI2
ag1219
aa(lp4769
F0.30131171100675
aI39
aI118
aI2
ag1221
aa(lp4770
F0.86218141110021
aI39
aI0
aI2
ag1223
aa(lp4771
F1.6576371580095
aI39
aI108
aI2
ag1225
aa(lp4772
F0.20763112238183
aI39
aI0
aI2
ag1227
aa(lp4773
F0.00024268660126836
aI36
aI118
aI2
ag1229
aa(lp4774
F0.18643955998959
aI36
aI0
aI2
ag1231
aa(lp4775
F0.3743084883954
aI39
aI99
aI2
ag1233
aa(lp4776
F0.19646091631785
aI39
aI0
aI2
ag1235
aa(lp4777
F0.55881660114756
aI41
aI105
aI2
ag1237
aa(lp4778
F0.22725833664663
aI41
aI0
aI2
ag1239
aa(lp4779
F0.36269047742553
aI39
aI114
aI2
ag1241
aa(lp4780
F0.67520143842557
aI39
aI0
aI2
ag1243
aa(lp4781
F0.25921885695698
aI36
aI114
aI2
ag1245
aa(lp4782
F0.28997999220337
aI36
aI0
aI2
ag1247
aa(lp4783
F0.25009899697579
aI34
aI105
aI2
ag1249
aa(lp4784
F0.58025869223911
aI34
aI0
aI2
ag1251
aa(lp4785
F0.35223694882188
aI36
aI97
aI2
ag1253
aa(lp4786
F0.23957322347542
aI36
aI0
aI2
ag1255
aa(lp4787
F0.2904232751107
aI39
aI106
aI2
ag1257
aa(lp4788
F0.60298971985867
aI39
aI0
aI2
ag1259
aa(lp4789
F0.26933072864722
aI36
aI100
aI2
ag1261
aa(lp4790
F0.30022688525332
aI36
aI0
aI2
ag1263
aa(lp4791
F0.25953763612142
aI39
aI114
aI2
ag1265
aa(lp4792
F0.72423770010118
aI39
aI0
aI2
ag1267
aa(lp4793
F0.17648750727221
aI36
aI83
aI2
ag1269
aa(lp4794
F0.20647894461581
aI36
aI0
aI2
ag1271
aa(lp4795
F0.35200159460146
aI39
aI111
aI2
ag1273
aa(lp4796
F0.10413530127971
aI41
aI17
aI2
ag1275
aa(lp4797
F0.15559372848111
aI39
aI0
aI2
ag1277
aa(lp4798
F0.63301525268071
aI41
aI0
aI2
ag1279
aa(lp4799
F0.07315506721261
aI39
aI101
aI2
ag1281
aa(lp4800
F0.36338148460254
aI39
aI0
aI2
ag1283
aa(lp4801
F0.73762810588505
aI0
aI0
aI0
ag1285
aaaI0
aI0
aa(lp4802
(lp4803
(lp4804
F0.75
aI36
aI114
aI3
ag3447
aa(lp4805
F0.67515266627856
aI36
aI0
aI3
ag3449
aa(lp4806
F0.074847333721436
aI39
aI118
aI3
ag3451
aa(lp4807
F0.5
aI41
aI115
aI3
ag3453
aa(lp4808
F0.08019361709421
aI39
aI0
aI3
ag3455
aa(lp4809
F0.75946310047561
aI41
aI0
aI3
ag3457
aa(lp4810
F0.16034328243018
aI43
aI122
aI3
ag3459
aa(lp4811
F0.71534317057285
aI43
aI0
aI3
ag3461
aa(lp4812
F0.28465682942715
aI0
aI0
aI0
ag3463
aaa(lp4813
(lp4814
F0.0
aI37
aI111
aI3
ag3466
aa(lp4815
F0.15672389905865
aI37
aI0
aI3
ag3468
aa(lp4816
F0.84327610094135
aI37
aI118
aI3
ag3470
aa(lp4817
F0.22857238216977
aI37
aI0
aI3
ag3472
aa(lp4818
F0.77142761783023
aI37
aI116
aI3
ag3474
aa(lp4819
F0.22887035021904
aI37
aI0
aI3
ag3476
aa(lp4820
F0.77112964978096
aI37
aI120
aI3
ag3478
aa(lp4821
F0.15533771586206
aI37
aI0
aI3
ag3480
aa(lp4822
F0.84466228413794
aI0
aI0
aI0
ag3482
aaa(lp4823
(lp4824
F2.0
aI51
aI117
aI3
ag3485
aa(lp4825
F0.53016892759297
aI51
aI0
aI3
ag3487
aa(lp4826
F0.96983107240703
aI51
aI119
aI3
ag3489
aa(lp4827
F0.30018977113878
aI51
aI0
aI3
ag3491
aa(lp4828
F0.19981022886122
aI0
aI0
aI0
ag3493
aaa(lp4829
(lp4830
F0.75
aI36
aI106
aI3
aS'on'
p4831
aa(lp4832
F0.75
aI39
aI116
aI3
aS'on'
p4833
aa(lp4834
F0.017926151674374
aI36
aI0
aI3
aS'off'
p4835
aa(lp4836
F0.98207384832563
aI41
aI109
aI3
aS'on'
p4837
aa(lp4838
F0.016387976494798
aI39
aI0
aI3
aS'off'
p4839
aa(lp4840
F0.9836120235052
aI43
aI120
aI3
aS'on'
p4841
aa(lp4842
F0.048235377394803
aI41
aI0
aI3
aS'off'
p4843
aa(lp4844
F0.408847427615
aI43
aI0
aI3
aS'off'
p4845
aa(lp4846
F0.042917194990196
aI0
aI0
aI0
aS'timeAfterLastHit'
p4847
aaaaa(lp4848
(lp4849
(dp4850
g1565
g3545
sg1567
I0
sa(dp4851
a(dp4852
a(dp4853
aa(lp4854
(dp4855
g1565
g3552
sg1567
I0
sa(dp4856
g1565
g1576
sg1567
I0
sa(dp4857
a(dp4858
aa(lp4859
(dp4860
g1565
g3558
sg1567
I0
sa(dp4861
g1565
g1585
sg1567
I1
sa(dp4862
a(dp4863
aa(lp4864
(dp4865
g1565
g3564
sg1567
I0
sa(dp4866
g1565
g3566
sg1567
I0
sa(dp4867
g1565
g3568
sg1567
I1
sa(dp4868
g1565
S'49'
p4869
sg1567
I1
saaa(lp4870
I60
aI60
aI36
aI36
aa(lp4871
(lp4872
I0
aI2
aI3
aI5
aI7
aI8
aI10
aa(lp4873
I0
aI2
aI3
aI5
aI7
aI8
aI10
aa(lp4874
I0
aI2
aI3
aI5
aI7
aI8
aI10
aa(lp4875
I0
aI1
aI2
aI3
aI4
aI5
aI6
aI7
aI8
aI9
aI10
aI11
aaa(lp4876
(lp4877
(lp4878
I0
aI0
aI0
aI0
aI0
aI0
aI0
aI0
aI0
aI0
aI0
aI0
aa(lp4879
I0
aI0
aI0
aI0
aI0
aI0
aI0
aI0
aI0
aI0
aI0
aI0
aa(lp4880
I0
aI0
aI0
aI0
aI0
aI0
aI0
aI0
aI0
aI0
aI0
aI0
aa(lp4881
I0
aI0
aI0
aI0
aI0
aI0
aI0
aI0
aI0
aI0
aI0
aI0
aaa(lp4882
(lp4883
I0
aI0
aI0
aI0
aI0
aI0
aI0
aI0
aI0
aI0
aI0
aI0
aa(lp4884
I0
aI0
aI0
aI0
aI0
aI0
aI0
aI0
aI0
aI0
aI0
aI0
aa(lp4885
I0
aI0
aI0
aI0
aI0
aI0
aI0
aI0
aI0
aI0
aI0
aI0
aa(lp4886
I0
aI0
aI0
aI0
aI0
aI0
aI0
aI0
aI0
aI0
aI0
aI0
aaa(lp4887
(lp4888
I0
aI0
aI0
aI0
aI0
aI0
aI0
aI0
aI0
aI0
aI0
aI0
aa(lp4889
I0
aI0
aI0
aI0
aI0
aI0
aI0
aI0
aI0
aI0
aI0
aI0
aa(lp4890
I0
aI0
aI0
aI0
aI0
aI0
aI0
aI0
aI0
aI0
aI0
aI0
aa(lp4891
I0
aI0
aI0
aI0
aI0
aI0
aI0
aI0
aI0
aI0
aI0
aI0
aaa(lp4892
(lp4893
I0
aI0
aI0
aI0
aI0
aI0
aI0
aI0
aI0
aI0
aI0
aI0
aa(lp4894
I0
aI0
aI0
aI0
aI0
aI0
aI0
aI0
aI0
aI0
aI0
aI0
aa(lp4895
I0
aI0
aI0
aI0
aI0
aI0
aI0
aI0
aI0
aI0
aI0
aI0
aa(lp4896
I0
aI0
aI0
aI0
aI0
aI0
aI0
aI0
aI0
aI0
aI0
aI0
aaaa(lp4897
(lp4898
I0
aI0
aI0
aI0
aI0
aI0
aI0
aI0
aI0
aI0
aI0
aI0
aa(lp4899
I0
aI0
aI0
aI0
aI0
aI0
aI0
aI0
aI0
aI0
aI0
aI0
aa(lp4900
I0
aI0
aI0
aI0
aI0
aI0
aI0
aI0
aI0
aI0
aI0
aI0
aa(lp4901
I0
aI0
aI0
aI0
aI0
aI0
aI0
aI0
aI0
aI0
aI0
aI0
aaaa(lp4902
(lp4903
(lp4904
(lp4905
(lp4906
F0.0
aI74
aI35
aI0
ag2478
aa(lp4907
F0.0
aI70
aI54
aI0
ag2480
aa(lp4908
F0.30888276759379
aI70
aI0
aI0
ag2482
aa(lp4909
F0.093266563851103
aI74
aI0
aI0
ag2484
aa(lp4910
F1.1501558706377
aI68
aI39
aI0
ag2486
aa(lp4911
F0.020414490453732
aI72
aI72
aI0
ag2488
aa(lp4912
F0.4566918741657
aI72
aI0
aI0
ag2490
aa(lp4913
F0.062262406817354
aI68
aI0
aI0
ag2492
aa(lp4914
F3.7548168155927
aI74
aI14
aI0
ag2494
aa(lp4915
F0.00021569938689936
aI70
aI20
aI0
ag2496
aa(lp4916
F0.3315253173696
aI70
aI0
aI0
ag2498
aa(lp4917
F0.020856311643911
aI74
aI0
aI0
ag2500
aa(lp4918
F0.44521259735484
aI68
aI17
aI0
ag2502
aa(lp4919
F0.042490895143601
aI72
aI52
aI0
ag2504
aa(lp4920
F0.26775972247287
aI68
aI0
aI0
ag2506
aa(lp4921
F0.10384032607999
aI72
aI0
aI0
ag2508
aa(lp4922
F0.29068243726306
aI74
aI14
aI0
ag2510
aa(lp4923
F0.093410014374967
aI77
aI66
aI0
ag2512
aa(lp4924
F7.9749332409292
aI77
aI0
aI0
ag2514
aa(lp4925
F0.04150935146663
aI74
aI0
aI0
ag2516
aa(lp4926
F0.54107329740236
aI0
aI0
aI0
ag2518
aaaI0
aI0
aI0
aa(lp4927
(lp4928
(lp4929
F0.0
aI70
aI92
aI1
ag2937
aa(lp4930
F0.0058041877587129
aI74
aI111
aI1
ag2939
aa(lp4931
F0.03130323574851
aI67
aI95
aI1
ag2941
aa(lp4932
F0.12500882032327
aI74
aI0
aI1
ag2943
aa(lp4933
F0.030915561537768
aI70
aI0
aI1
ag2945
aa(lp4934
F0.010381194458205
aI67
aI0
aI1
ag2947
aa(lp4935
F0.48658195921416
aI68
aI99
aI1
ag2949
aa(lp4936
F0.010734108770976
aI72
aI110
aI1
ag2951
aa(lp4937
F0.00017740717294146
aI65
aI106
aI1
ag2953
aa(lp4938
F4.9059162312246
aI68
aI0
aI1
ag2955
aa(lp4939
F0.031037631731124
aI72
aI0
aI1
ag2957
aa(lp4940
F0.072789368333815
aI65
aI0
aI1
ag2959
aa(lp4941
F0.28913843813643
aI74
aI114
aI1
ag2961
aa(lp4942
F0.00036546286219163
aI67
aI97
aI1
ag2963
aa(lp4943
F0.00033581203024369
aI70
aI92
aI1
ag2965
aa(lp4944
F0.10205433650162
aI70
aI0
aI1
ag2967
aa(lp4945
F0.041747220553134
aI74
aI0
aI1
ag2969
aa(lp4946
F0.041542508831753
aI67
aI0
aI1
ag2971
aa(lp4947
F0.49861645627561
aI68
aI94
aI1
ag2973
aa(lp4948
F0.010339286627186
aI72
aI96
aI1
ag2975
aa(lp4949
F0.010534093582464
aI65
aI109
aI1
ag2977
aa(lp4950
F0.11387629164255
aI72
aI0
aI1
ag2979
aa(lp4951
F0.072589220261762
aI68
aI0
aI1
ag2981
aa(lp4952
F0.010690885990243
aI65
aI0
aI1
ag2983
aa(lp4953
F0.49505045885098
aI70
aI112
aI1
ag2985
aa(lp4954
F0.00018097717293131
aI74
aI105
aI1
ag2987
aa(lp4955
F0.009993282247251
aI77
aI116
aI1
ag2989
aa(lp4956
F8.5822955621593
aI70
aI0
aI1
ag2991
aa(lp4957
F0.0
aI74
aI0
aI1
ag2993
aa(lp4958
F0.0
aI77
aI0
aI1
ag2995
aa(lp4959
F0.010000000000218
aI0
aI0
aI0
ag2997
aaa(lp4960
(lp4961
F0.13416338839374
aI81
aI105
aI1
ag532
aa(lp4962
F0.12294940555626
aI82
aI85
aI1
ag534
aa(lp4963
F0.091220176731213
aI81
aI0
aI1
ag536
aa(lp4964
F0.04056521322741
aI83
aI89
aI1
ag538
aa(lp4965
F0.071935440735842
aI82
aI0
aI1
ag540
aa(lp4966
F0.081415117590495
aI83
aI0
aI1
ag542
aa(lp4967
F0.041436324375923
aI81
aI99
aI1
ag544
aa(lp4968
F0.1430972382791
aI82
aI67
aI1
ag546
aa(lp4969
F0.092766064367765
aI81
aI0
aI1
ag548
aa(lp4970
F0.00049717217689249
aI83
aI73
aI1
ag550
aa(lp4971
F0.029762118907684
aI82
aI0
aI1
ag552
aa(lp4972
F0.11271444756119
aI83
aI0
aI1
ag554
aa(lp4973
F0.071794817162527
aI81
aI82
aI1
ag556
aa(lp4974
F0.1333068366514
aI82
aI93
aI1
ag558
aa(lp4975
F0.040587883201169
aI81
aI0
aI1
ag560
aa(lp4976
F0.07132435449148
aI83
aI80
aI1
ag562
aa(lp4977
F0.041408118165805
aI82
aI0
aI1
ag564
aa(lp4978
F0.1020210906421
aI83
aI0
aI1
ag566
aa(lp4979
F0.071356024279225
aI81
aI96
aI1
ag568
aa(lp4980
F0.15328287165062
aI82
aI88
aI1
ag570
aa(lp4981
F0.06212651641647
aI81
aI0
aI1
ag572
aa(lp4982
F0.00019492023636758
aI82
aI0
aI1
ag574
aa(lp4983
F0.031525494882089
aI83
aI88
aI1
ag576
aa(lp4984
F0.13243140191094
aI83
aI0
aI1
ag578
aa(lp4985
F0.061928638033805
aI81
aI99
aI1
ag580
aa(lp4986
F0.15289380107913
aI82
aI68
aI1
ag582
aa(lp4987
F0.051453874351864
aI81
aI0
aI1
ag584
aa(lp4988
F0.00021471434433806
aI82
aI0
aI1
ag586
aa(lp4989
F0.081635808954388
aI83
aI93
aI1
ag588
aa(lp4990
F0.11224166343197
aI83
aI0
aI1
ag590
aa(lp4991
F0.072498640288472
aI81
aI94
aI1
ag592
aa(lp4992
F0.12184328248384
aI81
aI0
aI1
ag594
aa(lp4993
F0.030748631033589
aI81
aI18
aI1
ag596
aa(lp4994
F0.051574887969878
aI82
aI98
aI1
ag598
aa(lp4995
F0.061136540714642
aI81
aI0
aI1
ag600
aa(lp4996
F0.094040625416596
aI83
aI86
aI1
ag602
aa(lp4997
F0.039063862333023
aI82
aI0
aI1
ag604
aa(lp4998
F0.020832369130403
aI83
aI0
aI1
ag606
aa(lp4999
F0.14290477075747
aI81
aI104
aI1
ag608
aa(lp5000
F0.13372547692416
aI82
aI89
aI1
ag610
aa(lp5001
F0.07198269662058
aI81
aI0
aI1
ag612
aa(lp5002
F0.051122757964777
aI83
aI91
aI1
ag614
aa(lp5003
F0.071517041428137
aI82
aI0
aI1
ag616
aa(lp5004
F0.09194406039137
aI83
aI0
aI1
ag618
aa(lp5005
F0.071218364728452
aI81
aI95
aI1
ag620
aa(lp5006
F0.1644650082311
aI82
aI98
aI1
ag622
aa(lp5007
F0.010198829440469
aI81
aI0
aI1
ag624
aa(lp5008
F0.041122141901383
aI82
aI0
aI1
ag626
aa(lp5009
F0.082333801986124
aI83
aI92
aI1
ag628
aa(lp5010
F0.14381533690528
aI81
aI93
aI1
ag630
aa(lp5011
F0.010505614592148
aI83
aI0
aI1
ag632
aa(lp5012
F0.07715432096893
aI81
aI0
aI1
ag634
aa(lp5013
F0.0099999999999909
aI0
aI0
aI0
ag636
aaaI0
aI0
aa(lp5014
(lp5015
(lp5016
F0.60348545708098
aI24
aI114
aI2
ag3319
aa(lp5017
F0.68506381473094
aI24
aI0
aI2
ag3321
aa(lp5018
F0.051426691885695
aI27
aI113
aI2
ag3323
aa(lp5019
F0.65451660775477
aI29
aI115
aI2
ag3325
aa(lp5020
F0.051333344324576
aI27
aI0
aI2
ag3327
aa(lp5021
F0.69552691688432
aI31
aI120
aI2
ag3329
aa(lp5022
F0.030584539257461
aI29
aI0
aI2
ag3331
aa(lp5023
F0.6235503661029
aI31
aI0
aI2
ag3333
aa(lp5024
F0.052318089100254
aI34
aI110
aI2
ag3335
aa(lp5025
F0.48716100326351
aI36
aI120
aI2
ag3337
aa(lp5026
F0.020752462333689
aI34
aI0
aI2
ag3339
aa(lp5027
F0.69622479432678
aI34
aI115
aI2
ag3341
aa(lp5028
F0.041402761189829
aI36
aI0
aI2
ag3343
aa(lp5029
F0.63242372553293
aI31
aI120
aI2
ag3345
aa(lp5030
F0.031813259801993
aI34
aI0
aI2
ag3347
aa(lp5031
F0.53792482353833
aI31
aI0
aI2
ag3349
aa(lp5032
F0.010287702113601
aI29
aI112
aI2
ag3351
aa(lp5033
F0.70533430527621
aI31
aI120
aI2
ag3353
aa(lp5034
F0.041337618610441
aI29
aI0
aI2
ag3355
aa(lp5035
F0.67357057525464
aI34
aI113
aI2
ag3357
aa(lp5036
F0.021023302351068
aI31
aI0
aI2
ag3359
aa(lp5037
F0.53960378452314
aI31
aI123
aI2
ag3361
aa(lp5038
F0.031005182416152
aI34
aI0
aI2
ag3363
aa(lp5039
F3.6336051521632
aI31
aI0
aI2
ag3365
aa(lp5040
F1.0163423538809
aI27
aI118
aI2
ag3367
aa(lp5041
F0.65453358707043
aI29
aI108
aI2
ag3369
aa(lp5042
F0.062612830063472
aI27
aI0
aI2
ag3371
aa(lp5043
F0.60085910233283
aI31
aI121
aI2
ag3373
aa(lp5044
F0.020599930125968
aI29
aI0
aI2
ag3375
aa(lp5045
F0.67410721960653
aI29
aI108
aI2
ag3377
aa(lp5046
F0.062577421615401
aI31
aI0
aI2
ag3379
aa(lp5047
F0.65342300376869
aI27
aI116
aI2
ag3381
aa(lp5048
F0.14403187955816
aI29
aI0
aI2
ag3383
aa(lp5049
F0.49876528956679
aI27
aI0
aI2
ag3385
aa(lp5050
F0.06087110259341
aI0
aI0
aI0
ag3387
aaa(lp5051
(lp5052
F0.017301133480032
aI43
aI117
aI2
ag1197
aa(lp5053
F0.11418611804038
aI44
aI84
aI2
ag1199
aa(lp5054
F0.16616025749499
aI43
aI0
aI2
ag1201
aa(lp5055
F0.33124642700204
aI44
aI0
aI2
ag1203
aa(lp5056
F0.1247194103571
aI43
aI118
aI2
ag1205
aa(lp5057
F0.46534784044161
aI43
aI0
aI2
ag1207
aa(lp5058
F0.19769004146292
aI41
aI98
aI2
ag1209
aa(lp5059
F0.23766260718639
aI41
aI0
aI2
ag1211
aa(lp5060
F0.31210769977406
aI43
aI120
aI2
ag1213
aa(lp5061
F0.71724958814411
aI43
aI0
aI2
ag1215
aa(lp5062
F0.2276218558427
aI41
aI112
aI2
ag1217
aa(lp5063
F0.2585374709297
aI41
aI0
aI2
ag1219
aa(lp5064
F0.30131171100675
aI39
aI118
aI2
ag1221
aa(lp5065
F0.86218141110021
aI39
aI0
aI2
ag1223
aa(lp5066
F1.6576371580095
aI39
aI108
aI2
ag1225
aa(lp5067
F0.20763112238183
aI39
aI0
aI2
ag1227
aa(lp5068
F0.00024268660126836
aI36
aI118
aI2
ag1229
aa(lp5069
F0.18643955998959
aI36
aI0
aI2
ag1231
aa(lp5070
F0.3743084883954
aI39
aI99
aI2
ag1233
aa(lp5071
F0.19646091631785
aI39
aI0
aI2
ag1235
aa(lp5072
F0.55881660114756
aI41
aI105
aI2
ag1237
aa(lp5073
F0.22725833664663
aI41
aI0
aI2
ag1239
aa(lp5074
F0.36269047742553
aI39
aI114
aI2
ag1241
aa(lp5075
F0.67520143842557
aI39
aI0
aI2
ag1243
aa(lp5076
F0.25921885695698
aI36
aI114
aI2
ag1245
aa(lp5077
F0.28997999220337
aI36
aI0
aI2
ag1247
aa(lp5078
F0.25009899697579
aI34
aI105
aI2
ag1249
aa(lp5079
F0.58025869223911
aI34
aI0
aI2
ag1251
aa(lp5080
F0.35223694882188
aI36
aI97
aI2
ag1253
aa(lp5081
F0.23957322347542
aI36
aI0
aI2
ag1255
aa(lp5082
F0.2904232751107
aI39
aI106
aI2
ag1257
aa(lp5083
F0.60298971985867
aI39
aI0
aI2
ag1259
aa(lp5084
F0.26933072864722
aI36
aI100
aI2
ag1261
aa(lp5085
F0.30022688525332
aI36
aI0
aI2
ag1263
aa(lp5086
F0.25953763612142
aI39
aI114
aI2
ag1265
aa(lp5087
F0.72423770010118
aI39
aI0
aI2
ag1267
aa(lp5088
F0.17648750727221
aI36
aI83
aI2
ag1269
aa(lp5089
F0.20647894461581
aI36
aI0
aI2
ag1271
aa(lp5090
F0.35200159460146
aI39
aI111
aI2
ag1273
aa(lp5091
F0.10413530127971
aI41
aI17
aI2
ag1275
aa(lp5092
F0.15559372848111
aI39
aI0
aI2
ag1277
aa(lp5093
F0.63301525268071
aI41
aI0
aI2
ag1279
aa(lp5094
F0.07315506721261
aI39
aI101
aI2
ag1281
aa(lp5095
F0.36338148460254
aI39
aI0
aI2
ag1283
aa(lp5096
F0.73762810588505
aI0
aI0
aI0
ag1285
aaaI0
aI0
aa(lp5097
(lp5098
(lp5099
F0.75
aI36
aI114
aI3
ag3447
aa(lp5100
F0.67515266627856
aI36
aI0
aI3
ag3449
aa(lp5101
F0.074847333721436
aI39
aI118
aI3
ag3451
aa(lp5102
F0.5
aI41
aI115
aI3
ag3453
aa(lp5103
F0.08019361709421
aI39
aI0
aI3
ag3455
aa(lp5104
F0.75946310047561
aI41
aI0
aI3
ag3457
aa(lp5105
F0.16034328243018
aI43
aI122
aI3
ag3459
aa(lp5106
F0.71534317057285
aI43
aI0
aI3
ag3461
aa(lp5107
F0.28465682942715
aI0
aI0
aI0
ag3463
aaa(lp5108
(lp5109
F0.0
aI37
aI111
aI3
ag3466
aa(lp5110
F0.15672389905865
aI37
aI0
aI3
ag3468
aa(lp5111
F0.84327610094135
aI37
aI118
aI3
ag3470
aa(lp5112
F0.22857238216977
aI37
aI0
aI3
ag3472
aa(lp5113
F0.77142761783023
aI37
aI116
aI3
ag3474
aa(lp5114
F0.22887035021904
aI37
aI0
aI3
ag3476
aa(lp5115
F0.77112964978096
aI37
aI120
aI3
ag3478
aa(lp5116
F0.15533771586206
aI37
aI0
aI3
ag3480
aa(lp5117
F0.84466228413794
aI0
aI0
aI0
ag3482
aaa(lp5118
(lp5119
F2.0
aI51
aI117
aI3
ag3485
aa(lp5120
F0.53016892759297
aI51
aI0
aI3
ag3487
aa(lp5121
F0.96983107240703
aI51
aI119
aI3
ag3489
aa(lp5122
F0.30018977113878
aI51
aI0
aI3
ag3491
aa(lp5123
F0.19981022886122
aI0
aI0
aI0
ag3493
aaa(lp5124
(lp5125
F0.75
aI36
aI106
aI3
ag4831
aa(lp5126
F0.75
aI39
aI116
aI3
ag4833
aa(lp5127
F0.017926151674374
aI36
aI0
aI3
ag4835
aa(lp5128
F0.98207384832563
aI41
aI109
aI3
ag4837
aa(lp5129
F0.016387976494798
aI39
aI0
aI3
ag4839
aa(lp5130
F0.9836120235052
aI43
aI120
aI3
ag4841
aa(lp5131
F0.048235377394803
aI41
aI0
aI3
ag4843
aa(lp5132
F0.408847427615
aI43
aI0
aI3
ag4845
aa(lp5133
F0.042917194990196
aI0
aI0
aI0
ag4847
aaaaa(lp5134
(lp5135
(dp5136
g1565
g3545
sg1567
I0
sa(dp5137
a(dp5138
a(dp5139
aa(lp5140
(dp5141
g1565
g3552
sg1567
I0
sa(dp5142
g1565
g1576
sg1567
I0
sa(dp5143
g1567
I1
sa(dp5144
aa(lp5145
(dp5146
g1565
g3558
sg1567
I0
sa(dp5147
g1565
g1585
sg1567
I0
sa(dp5148
a(dp5149
aa(lp5150
(dp5151
g1565
g3564
sg1567
I0
sa(dp5152
g1565
g3566
sg1567
I0
sa(dp5153
g1565
g3568
sg1567
I0
sa(dp5154
g1565
g4869
sg1567
I0
saaa(lp5155
I60
aI60
aI36
aI36
aa(lp5156
(lp5157
I0
aI2
aI3
aI5
aI7
aI8
aI10
aa(lp5158
I0
aI2
aI3
aI5
aI7
aI8
aI10
aa(lp5159
I0
aI2
aI3
aI5
aI7
aI8
aI10
aa(lp5160
I0
aI1
aI2
aI3
aI4
aI5
aI6
aI7
aI8
aI9
aI10
aI11
aaa(lp5161
(lp5162
(lp5163
I0
aI0
aI0
aI0
aI0
aI0
aI0
aI0
aI0
aI0
aI0
aI0
aa(lp5164
I0
aI0
aI0
aI0
aI0
aI0
aI0
aI0
aI0
aI0
aI0
aI0
aa(lp5165
I0
aI0
aI0
aI0
aI0
aI0
aI0
aI0
aI0
aI0
aI0
aI0
aa(lp5166
I0
aI0
aI0
aI0
aI0
aI0
aI0
aI0
aI0
aI0
aI0
aI0
aaa(lp5167
(lp5168
I0
aI0
aI0
aI0
aI0
aI0
aI0
aI0
aI0
aI0
aI0
aI0
aa(lp5169
I0
aI0
aI0
aI0
aI0
aI0
aI0
aI0
aI0
aI0
aI0
aI0
aa(lp5170
I0
aI0
aI0
aI0
aI0
aI0
aI0
aI0
aI0
aI0
aI0
aI0
aa(lp5171
I0
aI0
aI0
aI0
aI0
aI0
aI0
aI0
aI0
aI0
aI0
aI0
aaa(lp5172
(lp5173
I0
aI0
aI0
aI0
aI0
aI0
aI0
aI0
aI0
aI0
aI0
aI0
aa(lp5174
I0
aI0
aI0
aI0
aI0
aI0
aI0
aI0
aI0
aI0
aI0
aI0
aa(lp5175
I0
aI0
aI0
aI0
aI0
aI0
aI0
aI0
aI0
aI0
aI0
aI0
aa(lp5176
I0
aI0
aI0
aI0
aI0
aI0
aI0
aI0
aI0
aI0
aI0
aI0
aaa(lp5177
(lp5178
I0
aI0
aI0
aI0
aI0
aI0
aI0
aI0
aI0
aI0
aI0
aI0
aa(lp5179
I0
aI0
aI0
aI0
aI0
aI0
aI0
aI0
aI0
aI0
aI0
aI0
aa(lp5180
I0
aI0
aI0
aI0
aI0
aI0
aI0
aI0
aI0
aI0
aI0
aI0
aa(lp5181
I0
aI0
aI0
aI0
aI0
aI0
aI0
aI0
aI0
aI0
aI0
aI0
aaaa(lp5182
(lp5183
I0
aI0
aI0
aI0
aI0
aI0
aI0
aI0
aI0
aI0
aI0
aI0
aa(lp5184
I0
aI0
aI0
aI0
aI0
aI0
aI0
aI0
aI0
aI0
aI0
aI0
aa(lp5185
I0
aI0
aI0
aI0
aI0
aI0
aI0
aI0
aI0
aI0
aI0
aI0
aa(lp5186
I0
aI0
aI0
aI0
aI0
aI0
aI0
aI0
aI0
aI0
aI0
aI0
aaaaI0
aI0
aI0
aI0
aI0
aI0
aI0
aI0
aI0
aI0
aI0
aI0
aI0
aI0
aI0
aI0
aI0
aI0
aI0
aI0
aI0
aI0
aI0
aI0
aI0
aI0
aI0
aI0
a.