(lp0
I0
aI0
aI0
aI0
aI0
aI0
aI0
aI0
aI0
aI0
aI0
aI0
aI0
aI0
aI0
aI0
aI0
aI0
aI0
aI0
aI0
aI0
aI0
aI0
aI0
aI0
aI0
aI0
aI0
aI0
aI0
aI0
aI0
aI0
aI0
aI0
aI0
aI0
aI0
aI0
aI0
aI0
aI0
aI0
aI0
aI0
aI0
aI0
aI0
aI0
aI0
aI0
aI0
aI0
aI0
aI0
aI0
aI0
aI0
aI0
aI0
aI0
aI0
aI0
aI0
aI0
aI0
aI0
aI0
aI0
a(lp1
(lp2
(lp3
(lp4
(lp5
F0.0
aI74
aI35
aI0
aS'on'
p6
aa(lp7
F0.0
aI70
aI54
aI0
aS'on'
p8
aa(lp9
F0.30888276759379
aI70
aI0
aI0
aS'off'
p10
aa(lp11
F0.093266563851103
aI74
aI0
aI0
aS'off'
p12
aa(lp13
F1.1501558706377
aI68
aI39
aI0
aS'on'
p14
aa(lp15
F0.020414490453732
aI72
aI72
aI0
aS'on'
p16
aa(lp17
F0.4566918741657
aI72
aI0
aI0
aS'off'
p18
aa(lp19
F0.062262406817354
aI68
aI0
aI0
aS'off'
p20
aa(lp21
F3.7548168155927
aI74
aI14
aI0
aS'on'
p22
aa(lp23
F0.00021569938689936
aI70
aI20
aI0
aS'on'
p24
aa(lp25
F0.3315253173696
aI70
aI0
aI0
aS'off'
p26
aa(lp27
F0.020856311643911
aI74
aI0
aI0
aS'off'
p28
aa(lp29
F0.44521259735484
aI68
aI17
aI0
aS'on'
p30
aa(lp31
F0.042490895143601
aI72
aI52
aI0
aS'on'
p32
aa(lp33
F0.26775972247287
aI68
aI0
aI0
aS'off'
p34
aa(lp35
F0.10384032607999
aI72
aI0
aI0
aS'off'
p36
aa(lp37
F0.29068243726306
aI74
aI14
aI0
aS'on'
p38
aa(lp39
F0.093410014374967
aI77
aI66
aI0
aS'on'
p40
aa(lp41
F7.9749332409292
aI77
aI0
aI0
aS'off'
p42
aa(lp43
F0.04150935146663
aI74
aI0
aI0
aS'off'
p44
aa(lp45
F0.54107329740236
aI0
aI0
aI0
aS'timeAfterLastHit'
p46
aaaI0
aI0
aI0
aa(lp47
(lp48
(lp49
F0.0
aI70
aI92
aI1
aS'on'
p50
aa(lp51
F0.0058041877587129
aI74
aI111
aI1
aS'on'
p52
aa(lp53
F0.03130323574851
aI67
aI95
aI1
aS'on'
p54
aa(lp55
F0.12500882032327
aI74
aI0
aI1
aS'off'
p56
aa(lp57
F0.030915561537768
aI70
aI0
aI1
aS'off'
p58
aa(lp59
F0.010381194458205
aI67
aI0
aI1
aS'off'
p60
aa(lp61
F0.48658195921416
aI68
aI99
aI1
aS'on'
p62
aa(lp63
F0.010734108770976
aI72
aI110
aI1
aS'on'
p64
aa(lp65
F0.00017740717294146
aI65
aI106
aI1
aS'on'
p66
aa(lp67
F4.9059162312246
aI68
aI0
aI1
aS'off'
p68
aa(lp69
F0.031037631731124
aI72
aI0
aI1
aS'off'
p70
aa(lp71
F0.072789368333815
aI65
aI0
aI1
aS'off'
p72
aa(lp73
F0.28913843813643
aI74
aI114
aI1
aS'on'
p74
aa(lp75
F0.00036546286219163
aI67
aI97
aI1
aS'on'
p76
aa(lp77
F0.00033581203024369
aI70
aI92
aI1
aS'on'
p78
aa(lp79
F0.10205433650162
aI70
aI0
aI1
aS'off'
p80
aa(lp81
F0.041747220553134
aI74
aI0
aI1
aS'off'
p82
aa(lp83
F0.041542508831753
aI67
aI0
aI1
aS'off'
p84
aa(lp85
F0.49861645627561
aI68
aI94
aI1
aS'on'
p86
aa(lp87
F0.010339286627186
aI72
aI96
aI1
aS'on'
p88
aa(lp89
F0.010534093582464
aI65
aI109
aI1
aS'on'
p90
aa(lp91
F0.11387629164255
aI72
aI0
aI1
aS'off'
p92
aa(lp93
F0.072589220261762
aI68
aI0
aI1
aS'off'
p94
aa(lp95
F0.010690885990243
aI65
aI0
aI1
aS'off'
p96
aa(lp97
F0.49505045885098
aI70
aI112
aI1
aS'on'
p98
aa(lp99
F0.00018097717293131
aI74
aI105
aI1
aS'on'
p100
aa(lp101
F0.009993282247251
aI77
aI116
aI1
aS'on'
p102
aa(lp103
F8.5822955621593
aI70
aI0
aI1
aS'off'
p104
aa(lp105
F0.0
aI74
aI0
aI1
aS'off'
p106
aa(lp107
F0.0
aI77
aI0
aI1
aS'off'
p108
aa(lp109
F0.010000000000218
aI0
aI0
aI0
aS'timeAfterLastHit'
p110
aaa(lp111
(lp112
F0.13416338839374
aI81
aI105
aI1
aS'on'
p113
aa(lp114
F0.12294940555626
aI82
aI85
aI1
aS'on'
p115
aa(lp116
F0.091220176731213
aI81
aI0
aI1
aS'off'
p117
aa(lp118
F0.04056521322741
aI83
aI89
aI1
aS'on'
p119
aa(lp120
F0.071935440735842
aI82
aI0
aI1
aS'off'
p121
aa(lp122
F0.081415117590495
aI83
aI0
aI1
aS'off'
p123
aa(lp124
F0.041436324375923
aI81
aI99
aI1
aS'on'
p125
aa(lp126
F0.1430972382791
aI82
aI67
aI1
aS'on'
p127
aa(lp128
F0.092766064367765
aI81
aI0
aI1
aS'off'
p129
aa(lp130
F0.00049717217689249
aI83
aI73
aI1
aS'on'
p131
aa(lp132
F0.029762118907684
aI82
aI0
aI1
aS'off'
p133
aa(lp134
F0.11271444756119
aI83
aI0
aI1
aS'off'
p135
aa(lp136
F0.071794817162527
aI81
aI82
aI1
aS'on'
p137
aa(lp138
F0.1333068366514
aI82
aI93
aI1
aS'on'
p139
aa(lp140
F0.040587883201169
aI81
aI0
aI1
aS'off'
p141
aa(lp142
F0.07132435449148
aI83
aI80
aI1
aS'on'
p143
aa(lp144
F0.041408118165805
aI82
aI0
aI1
aS'off'
p145
aa(lp146
F0.1020210906421
aI83
aI0
aI1
aS'off'
p147
aa(lp148
F0.071356024279225
aI81
aI96
aI1
aS'on'
p149
aa(lp150
F0.15328287165062
aI82
aI88
aI1
aS'on'
p151
aa(lp152
F0.06212651641647
aI81
aI0
aI1
aS'off'
p153
aa(lp154
F0.00019492023636758
aI82
aI0
aI1
aS'off'
p155
aa(lp156
F0.031525494882089
aI83
aI88
aI1
aS'on'
p157
aa(lp158
F0.13243140191094
aI83
aI0
aI1
aS'off'
p159
aa(lp160
F0.061928638033805
aI81
aI99
aI1
aS'on'
p161
aa(lp162
F0.15289380107913
aI82
aI68
aI1
aS'on'
p163
aa(lp164
F0.051453874351864
aI81
aI0
aI1
aS'off'
p165
aa(lp166
F0.00021471434433806
aI82
aI0
aI1
aS'off'
p167
aa(lp168
F0.081635808954388
aI83
aI93
aI1
aS'on'
p169
aa(lp170
F0.11224166343197
aI83
aI0
aI1
aS'off'
p171
aa(lp172
F0.072498640288472
aI81
aI94
aI1
aS'on'
p173
aa(lp174
F0.12184328248384
aI81
aI0
aI1
aS'off'
p175
aa(lp176
F0.030748631033589
aI81
aI18
aI1
aS'on'
p177
aa(lp178
F0.051574887969878
aI82
aI98
aI1
aS'on'
p179
aa(lp180
F0.061136540714642
aI81
aI0
aI1
aS'off'
p181
aa(lp182
F0.094040625416596
aI83
aI86
aI1
aS'on'
p183
aa(lp184
F0.039063862333023
aI82
aI0
aI1
aS'off'
p185
aa(lp186
F0.020832369130403
aI83
aI0
aI1
aS'off'
p187
aa(lp188
F0.14290477075747
aI81
aI104
aI1
aS'on'
p189
aa(lp190
F0.13372547692416
aI82
aI89
aI1
aS'on'
p191
aa(lp192
F0.07198269662058
aI81
aI0
aI1
aS'off'
p193
aa(lp194
F0.051122757964777
aI83
aI91
aI1
aS'on'
p195
aa(lp196
F0.071517041428137
aI82
aI0
aI1
aS'off'
p197
aa(lp198
F0.09194406039137
aI83
aI0
aI1
aS'off'
p199
aa(lp200
F0.071218364728452
aI81
aI95
aI1
aS'on'
p201
aa(lp202
F0.1644650082311
aI82
aI98
aI1
aS'on'
p203
aa(lp204
F0.010198829440469
aI81
aI0
aI1
aS'off'
p205
aa(lp206
F0.041122141901383
aI82
aI0
aI1
aS'off'
p207
aa(lp208
F0.082333801986124
aI83
aI92
aI1
aS'on'
p209
aa(lp210
F0.14381533690528
aI81
aI93
aI1
aS'on'
p211
aa(lp212
F0.010505614592148
aI83
aI0
aI1
aS'off'
p213
aa(lp214
F0.07715432096893
aI81
aI0
aI1
aS'off'
p215
aa(lp216
F0.0099999999999909
aI0
aI0
aI0
aS'timeAfterLastHit'
p217
aaaI0
aI0
aa(lp218
(lp219
(lp220
F0.60348545708098
aI24
aI114
aI2
aS'on'
p221
aa(lp222
F0.68506381473094
aI24
aI0
aI2
aS'off'
p223
aa(lp224
F0.051426691885695
aI27
aI113
aI2
aS'on'
p225
aa(lp226
F0.65451660775477
aI29
aI115
aI2
aS'on'
p227
aa(lp228
F0.051333344324576
aI27
aI0
aI2
aS'off'
p229
aa(lp230
F0.69552691688432
aI31
aI120
aI2
aS'on'
p231
aa(lp232
F0.030584539257461
aI29
aI0
aI2
aS'off'
p233
aa(lp234
F0.6235503661029
aI31
aI0
aI2
aS'off'
p235
aa(lp236
F0.052318089100254
aI34
aI110
aI2
aS'on'
p237
aa(lp238
F0.48716100326351
aI36
aI120
aI2
aS'on'
p239
aa(lp240
F0.020752462333689
aI34
aI0
aI2
aS'off'
p241
aa(lp242
F0.69622479432678
aI34
aI115
aI2
aS'on'
p243
aa(lp244
F0.041402761189829
aI36
aI0
aI2
aS'off'
p245
aa(lp246
F0.63242372553293
aI31
aI120
aI2
aS'on'
p247
aa(lp248
F0.031813259801993
aI34
aI0
aI2
aS'off'
p249
aa(lp250
F0.53792482353833
aI31
aI0
aI2
aS'off'
p251
aa(lp252
F0.010287702113601
aI29
aI112
aI2
aS'on'
p253
aa(lp254
F0.70533430527621
aI31
aI120
aI2
aS'on'
p255
aa(lp256
F0.041337618610441
aI29
aI0
aI2
aS'off'
p257
aa(lp258
F0.67357057525464
aI34
aI113
aI2
aS'on'
p259
aa(lp260
F0.021023302351068
aI31
aI0
aI2
aS'off'
p261
aa(lp262
F0.53960378452314
aI31
aI123
aI2
aS'on'
p263
aa(lp264
F0.031005182416152
aI34
aI0
aI2
aS'off'
p265
aa(lp266
F3.6336051521632
aI31
aI0
aI2
aS'off'
p267
aa(lp268
F1.0163423538809
aI27
aI118
aI2
aS'on'
p269
aa(lp270
F0.65453358707043
aI29
aI108
aI2
aS'on'
p271
aa(lp272
F0.062612830063472
aI27
aI0
aI2
aS'off'
p273
aa(lp274
F0.60085910233283
aI31
aI121
aI2
aS'on'
p275
aa(lp276
F0.020599930125968
aI29
aI0
aI2
aS'off'
p277
aa(lp278
F0.67410721960653
aI29
aI108
aI2
aS'on'
p279
aa(lp280
F0.062577421615401
aI31
aI0
aI2
aS'off'
p281
aa(lp282
F0.65342300376869
aI27
aI116
aI2
aS'on'
p283
aa(lp284
F0.14403187955816
aI29
aI0
aI2
aS'off'
p285
aa(lp286
F0.49876528956679
aI27
aI0
aI2
aS'off'
p287
aa(lp288
F0.06087110259341
aI0
aI0
aI0
aS'timeAfterLastHit'
p289
aaa(lp290
(lp291
F0.017301133480032
aI43
aI117
aI2
aS'on'
p292
aa(lp293
F0.11418611804038
aI44
aI84
aI2
aS'on'
p294
aa(lp295
F0.16616025749499
aI43
aI0
aI2
aS'off'
p296
aa(lp297
F0.33124642700204
aI44
aI0
aI2
aS'off'
p298
aa(lp299
F0.1247194103571
aI43
aI118
aI2
aS'on'
p300
aa(lp301
F0.46534784044161
aI43
aI0
aI2
aS'off'
p302
aa(lp303
F0.19769004146292
aI41
aI98
aI2
aS'on'
p304
aa(lp305
F0.23766260718639
aI41
aI0
aI2
aS'off'
p306
aa(lp307
F0.31210769977406
aI43
aI120
aI2
aS'on'
p308
aa(lp309
F0.71724958814411
aI43
aI0
aI2
aS'off'
p310
aa(lp311
F0.2276218558427
aI41
aI112
aI2
aS'on'
p312
aa(lp313
F0.2585374709297
aI41
aI0
aI2
aS'off'
p314
aa(lp315
F0.30131171100675
aI39
aI118
aI2
aS'on'
p316
aa(lp317
F0.86218141110021
aI39
aI0
aI2
aS'off'
p318
aa(lp319
F1.6576371580095
aI39
aI108
aI2
aS'on'
p320
aa(lp321
F0.20763112238183
aI39
aI0
aI2
aS'off'
p322
aa(lp323
F0.00024268660126836
aI36
aI118
aI2
aS'on'
p324
aa(lp325
F0.18643955998959
aI36
aI0
aI2
aS'off'
p326
aa(lp327
F0.3743084883954
aI39
aI99
aI2
aS'on'
p328
aa(lp329
F0.19646091631785
aI39
aI0
aI2
aS'off'
p330
aa(lp331
F0.55881660114756
aI41
aI105
aI2
aS'on'
p332
aa(lp333
F0.22725833664663
aI41
aI0
aI2
aS'off'
p334
aa(lp335
F0.36269047742553
aI39
aI114
aI2
aS'on'
p336
aa(lp337
F0.67520143842557
aI39
aI0
aI2
aS'off'
p338
aa(lp339
F0.25921885695698
aI36
aI114
aI2
aS'on'
p340
aa(lp341
F0.28997999220337
aI36
aI0
aI2
aS'off'
p342
aa(lp343
F0.25009899697579
aI34
aI105
aI2
aS'on'
p344
aa(lp345
F0.58025869223911
aI34
aI0
aI2
aS'off'
p346
aa(lp347
F0.35223694882188
aI36
aI97
aI2
aS'on'
p348
aa(lp349
F0.23957322347542
aI36
aI0
aI2
aS'off'
p350
aa(lp351
F0.2904232751107
aI39
aI106
aI2
aS'on'
p352
aa(lp353
F0.60298971985867
aI39
aI0
aI2
aS'off'
p354
aa(lp355
F0.26933072864722
aI36
aI100
aI2
aS'on'
p356
aa(lp357
F0.30022688525332
aI36
aI0
aI2
aS'off'
p358
aa(lp359
F0.25953763612142
aI39
aI114
aI2
aS'on'
p360
aa(lp361
F0.72423770010118
aI39
aI0
aI2
aS'off'
p362
aa(lp363
F0.17648750727221
aI36
aI83
aI2
aS'on'
p364
aa(lp365
F0.20647894461581
aI36
aI0
aI2
aS'off'
p366
aa(lp367
F0.35200159460146
aI39
aI111
aI2
aS'on'
p368
aa(lp369
F0.10413530127971
aI41
aI17
aI2
aS'on'
p370
aa(lp371
F0.15559372848111
aI39
aI0
aI2
aS'off'
p372
aa(lp373
F0.63301525268071
aI41
aI0
aI2
aS'off'
p374
aa(lp375
F0.07315506721261
aI39
aI101
aI2
aS'on'
p376
aa(lp377
F0.36338148460254
aI39
aI0
aI2
aS'off'
p378
aa(lp379
F0.73762810588505
aI0
aI0
aI0
aS'timeAfterLastHit'
p380
aaaI0
aI0
aa(lp381
(lp382
(lp383
F0.75
aI36
aI114
aI3
aS'on'
p384
aa(lp385
F0.67515266627856
aI36
aI0
aI3
aS'off'
p386
aa(lp387
F0.074847333721436
aI39
aI118
aI3
aS'on'
p388
aa(lp389
F0.5
aI41
aI115
aI3
aS'on'
p390
aa(lp391
F0.08019361709421
aI39
aI0
aI3
aS'off'
p392
aa(lp393
F0.75946310047561
aI41
aI0
aI3
aS'off'
p394
aa(lp395
F0.16034328243018
aI43
aI122
aI3
aS'on'
p396
aa(lp397
F0.71534317057285
aI43
aI0
aI3
aS'off'
p398
aa(lp399
F0.28465682942715
aI0
aI0
aI0
aS'timeAfterLastHit'
p400
aaa(lp401
(lp402
F0.0
aI37
aI111
aI3
aS'on'
p403
aa(lp404
F0.15672389905865
aI37
aI0
aI3
aS'off'
p405
aa(lp406
F0.84327610094135
aI37
aI118
aI3
aS'on'
p407
aa(lp408
F0.22857238216977
aI37
aI0
aI3
aS'off'
p409
aa(lp410
F0.77142761783023
aI37
aI116
aI3
aS'on'
p411
aa(lp412
F0.22887035021904
aI37
aI0
aI3
aS'off'
p413
aa(lp414
F0.77112964978096
aI37
aI120
aI3
aS'on'
p415
aa(lp416
F0.15533771586206
aI37
aI0
aI3
aS'off'
p417
aa(lp418
F0.84466228413794
aI0
aI0
aI0
aS'timeAfterLastHit'
p419
aaa(lp420
(lp421
F2.0
aI51
aI117
aI3
aS'on'
p422
aa(lp423
F0.53016892759297
aI51
aI0
aI3
aS'off'
p424
aa(lp425
F0.96983107240703
aI51
aI119
aI3
aS'on'
p426
aa(lp427
F0.30018977113878
aI51
aI0
aI3
aS'off'
p428
aa(lp429
F0.19981022886122
aI0
aI0
aI0
aS'timeAfterLastHit'
p430
aaa(lp431
(lp432
F0.75
aI36
aI106
aI3
aS'on'
p433
aa(lp434
F0.75
aI39
aI116
aI3
aS'on'
p435
aa(lp436
F0.017926151674374
aI36
aI0
aI3
aS'off'
p437
aa(lp438
F0.98207384832563
aI41
aI109
aI3
aS'on'
p439
aa(lp440
F0.016387976494798
aI39
aI0
aI3
aS'off'
p441
aa(lp442
F0.9836120235052
aI43
aI120
aI3
aS'on'
p443
aa(lp444
F0.048235377394803
aI41
aI0
aI3
aS'off'
p445
aa(lp446
F0.408847427615
aI43
aI0
aI3
aS'off'
p447
aa(lp448
F0.042917194990196
aI0
aI0
aI0
aS'timeAfterLastHit'
p449
aaaaa(lp450
(lp451
(dp452
S'button'
p453
S'50'
p454
sS'playing'
p455
I0
sa(dp456
a(dp457
a(dp458
aa(lp459
(dp460
g453
S'59'
p461
sg455
I0
sa(dp462
g453
S'69'
p463
sg455
I0
sa(dp464
a(dp465
aa(lp466
(dp467
g453
S'10'
p468
sg455
I0
sa(dp469
g453
S'20'
p470
sg455
I1
sa(dp471
a(dp472
aa(lp473
(dp474
g453
S'19'
p475
sg455
I0
sa(dp476
g453
S'29'
p477
sg455
I0
sa(dp478
g453
S'39'
p479
sg455
I1
sa(dp480
g453
S'49'
p481
sg455
I1
saaa(lp482
I60
aI60
aI36
aI36
aa(lp483
(lp484
I0
aI2
aI3
aI5
aI7
aI8
aI10
aa(lp485
I0
aI2
aI3
aI5
aI7
aI8
aI10
aa(lp486
I0
aI2
aI3
aI5
aI7
aI8
aI10
aa(lp487
I0
aI1
aI2
aI3
aI4
aI5
aI6
aI7
aI8
aI9
aI10
aI11
aaa(lp488
(lp489
(lp490
I0
aI0
aI0
aI0
aI0
aI0
aI0
aI0
aI0
aI0
aI0
aI0
aa(lp491
I0
aI0
aI0
aI0
aI0
aI0
aI0
aI0
aI0
aI0
aI0
aI0
aa(lp492
I0
aI0
aI0
aI0
aI0
aI0
aI0
aI0
aI0
aI0
aI0
aI0
aa(lp493
I0
aI0
aI0
aI0
aI0
aI0
aI0
aI0
aI0
aI0
aI0
aI0
aaa(lp494
(lp495
I0
aI0
aI0
aI0
aI0
aI0
aI0
aI0
aI0
aI0
aI0
aI0
aa(lp496
I0
aI0
aI0
aI0
aI0
aI0
aI0
aI0
aI0
aI0
aI0
aI0
aa(lp497
I0
aI0
aI0
aI0
aI0
aI0
aI0
aI0
aI0
aI0
aI0
aI0
aa(lp498
I0
aI0
aI0
aI0
aI0
aI0
aI0
aI0
aI0
aI0
aI0
aI0
aaa(lp499
(lp500
I0
aI0
aI0
aI0
aI0
aI0
aI0
aI0
aI0
aI0
aI0
aI0
aa(lp501
I0
aI0
aI0
aI0
aI0
aI0
aI0
aI0
aI0
aI0
aI0
aI0
aa(lp502
I0
aI0
aI0
aI0
aI0
aI0
aI0
aI0
aI0
aI0
aI0
aI0
aa(lp503
I0
aI0
aI0
aI0
aI0
aI0
aI0
aI0
aI0
aI0
aI0
aI0
aaa(lp504
(lp505
I0
aI0
aI0
aI0
aI0
aI0
aI0
aI0
aI0
aI0
aI0
aI0
aa(lp506
I0
aI0
aI0
aI0
aI0
aI0
aI0
aI0
aI0
aI0
aI0
aI0
aa(lp507
I0
aI0
aI0
aI0
aI0
aI0
aI0
aI0
aI0
aI0
aI0
aI0
aa(lp508
I0
aI0
aI0
aI0
aI0
aI0
aI0
aI0
aI0
aI0
aI0
aI0
aaaa(lp509
(lp510
I0
aI0
aI0
aI0
aI0
aI0
aI0
aI0
aI0
aI0
aI0
aI0
aa(lp511
I0
aI0
aI0
aI0
aI0
aI0
aI0
aI0
aI0
aI0
aI0
aI0
aa(lp512
I0
aI0
aI0
aI0
aI0
aI0
aI0
aI0
aI0
aI0
aI0
aI0
aa(lp513
I0
aI0
aI0
aI0
aI0
aI0
aI0
aI0
aI0
aI0
aI0
aI0
aaaa(lp514
(lp515
(lp516
(lp517
(lp518
F0.0
aI74
aI35
aI0
ag6
aa(lp519
F0.0
aI70
aI54
aI0
ag8
aa(lp520
F0.30888276759379
aI70
aI0
aI0
ag10
aa(lp521
F0.093266563851103
aI74
aI0
aI0
ag12
aa(lp522
F1.1501558706377
aI68
aI39
aI0
ag14
aa(lp523
F0.020414490453732
aI72
aI72
aI0
ag16
aa(lp524
F0.4566918741657
aI72
aI0
aI0
ag18
aa(lp525
F0.062262406817354
aI68
aI0
aI0
ag20
aa(lp526
F3.7548168155927
aI74
aI14
aI0
ag22
aa(lp527
F0.00021569938689936
aI70
aI20
aI0
ag24
aa(lp528
F0.3315253173696
aI70
aI0
aI0
ag26
aa(lp529
F0.020856311643911
aI74
aI0
aI0
ag28
aa(lp530
F0.44521259735484
aI68
aI17
aI0
ag30
aa(lp531
F0.042490895143601
aI72
aI52
aI0
ag32
aa(lp532
F0.26775972247287
aI68
aI0
aI0
ag34
aa(lp533
F0.10384032607999
aI72
aI0
aI0
ag36
aa(lp534
F0.29068243726306
aI74
aI14
aI0
ag38
aa(lp535
F0.093410014374967
aI77
aI66
aI0
ag40
aa(lp536
F7.9749332409292
aI77
aI0
aI0
ag42
aa(lp537
F0.04150935146663
aI74
aI0
aI0
ag44
aa(lp538
F0.54107329740236
aI0
aI0
aI0
ag46
aaaI0
aI0
aI0
aa(lp539
(lp540
(lp541
F0.010216919872164
aI70
aI98
aI1
aS'on'
p542
aa(lp543
F0.0096366868684754
aI74
aI98
aI1
aS'on'
p544
aa(lp545
F0.020600644125921
aI67
aI89
aI1
aS'on'
p546
aa(lp547
F0.14488159504162
aI70
aI0
aI1
aS'off'
p548
aa(lp549
F0.041492278934697
aI67
aI0
aI1
aS'off'
p550
aa(lp551
F0.020746060134115
aI74
aI0
aI1
aS'off'
p552
aa(lp553
F0.46690830718399
aI65
aI98
aI1
aS'on'
p554
aa(lp555
F0.00023419793615176
aI68
aI105
aI1
aS'on'
p556
aa(lp557
F0.0096981206149849
aI72
aI107
aI1
aS'on'
p558
aa(lp559
F4.7392885972911
aI72
aI0
aI1
aS'off'
p560
aa(lp561
F0.010042790211287
aI68
aI0
aI1
aS'off'
p562
aa(lp563
F0.093212999969978
aI65
aI0
aI1
aS'off'
p564
aa(lp565
F0.36284591719993
aI70
aI45
aI1
aS'on'
p566
aa(lp567
F0.01015338285481
aI67
aI97
aI1
aS'on'
p568
aa(lp569
F0.010613498311272
aI74
aI85
aI1
aS'on'
p570
aa(lp571
F0.2283198284847
aI70
aI0
aI1
aS'off'
p572
aa(lp573
F0.010805157716618
aI67
aI0
aI1
aS'off'
p574
aa(lp575
F0.041324677361217
aI74
aI0
aI1
aS'off'
p576
aa(lp577
F0.43524885487295
aI68
aI98
aI1
aS'on'
p578
aa(lp579
F0.010656064608725
aI72
aI98
aI1
aS'on'
p580
aa(lp581
F0.00019167130540154
aI65
aI14
aI1
aS'on'
p582
aa(lp583
F0.24965650938407
aI68
aI0
aI1
aS'off'
p584
aa(lp585
F0.052090844730174
aI72
aI0
aI1
aS'off'
p586
aa(lp587
F0.06223862466868
aI65
aI0
aI1
aS'off'
p588
aa(lp589
F0.32150583330622
aI74
aI89
aI1
aS'on'
p590
aa(lp591
F0.041786536167479
aI77
aI54
aI1
aS'on'
p592
aa(lp593
F0.02023605194745
aI70
aI114
aI1
aS'on'
p594
aa(lp595
F7.9454273969419
aI77
aI0
aI1
aS'off'
p596
aa(lp597
F0.031521658252473
aI74
aI0
aI1
aS'off'
p598
aa(lp599
F0.15489159678827
aI70
aI0
aI1
aS'off'
p600
aa(lp601
F0.44352669691318
aI0
aI0
aI0
aS'timeAfterLastHit'
p602
aaa(lp603
(lp604
F0.13416338839374
aI81
aI105
aI1
ag113
aa(lp605
F0.12294940555626
aI82
aI85
aI1
ag115
aa(lp606
F0.091220176731213
aI81
aI0
aI1
ag117
aa(lp607
F0.04056521322741
aI83
aI89
aI1
ag119
aa(lp608
F0.071935440735842
aI82
aI0
aI1
ag121
aa(lp609
F0.081415117590495
aI83
aI0
aI1
ag123
aa(lp610
F0.041436324375923
aI81
aI99
aI1
ag125
aa(lp611
F0.1430972382791
aI82
aI67
aI1
ag127
aa(lp612
F0.092766064367765
aI81
aI0
aI1
ag129
aa(lp613
F0.00049717217689249
aI83
aI73
aI1
ag131
aa(lp614
F0.029762118907684
aI82
aI0
aI1
ag133
aa(lp615
F0.11271444756119
aI83
aI0
aI1
ag135
aa(lp616
F0.071794817162527
aI81
aI82
aI1
ag137
aa(lp617
F0.1333068366514
aI82
aI93
aI1
ag139
aa(lp618
F0.040587883201169
aI81
aI0
aI1
ag141
aa(lp619
F0.07132435449148
aI83
aI80
aI1
ag143
aa(lp620
F0.041408118165805
aI82
aI0
aI1
ag145
aa(lp621
F0.1020210906421
aI83
aI0
aI1
ag147
aa(lp622
F0.071356024279225
aI81
aI96
aI1
ag149
aa(lp623
F0.15328287165062
aI82
aI88
aI1
ag151
aa(lp624
F0.06212651641647
aI81
aI0
aI1
ag153
aa(lp625
F0.00019492023636758
aI82
aI0
aI1
ag155
aa(lp626
F0.031525494882089
aI83
aI88
aI1
ag157
aa(lp627
F0.13243140191094
aI83
aI0
aI1
ag159
aa(lp628
F0.061928638033805
aI81
aI99
aI1
ag161
aa(lp629
F0.15289380107913
aI82
aI68
aI1
ag163
aa(lp630
F0.051453874351864
aI81
aI0
aI1
ag165
aa(lp631
F0.00021471434433806
aI82
aI0
aI1
ag167
aa(lp632
F0.081635808954388
aI83
aI93
aI1
ag169
aa(lp633
F0.11224166343197
aI83
aI0
aI1
ag171
aa(lp634
F0.072498640288472
aI81
aI94
aI1
ag173
aa(lp635
F0.12184328248384
aI81
aI0
aI1
ag175
aa(lp636
F0.030748631033589
aI81
aI18
aI1
ag177
aa(lp637
F0.051574887969878
aI82
aI98
aI1
ag179
aa(lp638
F0.061136540714642
aI81
aI0
aI1
ag181
aa(lp639
F0.094040625416596
aI83
aI86
aI1
ag183
aa(lp640
F0.039063862333023
aI82
aI0
aI1
ag185
aa(lp641
F0.020832369130403
aI83
aI0
aI1
ag187
aa(lp642
F0.14290477075747
aI81
aI104
aI1
ag189
aa(lp643
F0.13372547692416
aI82
aI89
aI1
ag191
aa(lp644
F0.07198269662058
aI81
aI0
aI1
ag193
aa(lp645
F0.051122757964777
aI83
aI91
aI1
ag195
aa(lp646
F0.071517041428137
aI82
aI0
aI1
ag197
aa(lp647
F0.09194406039137
aI83
aI0
aI1
ag199
aa(lp648
F0.071218364728452
aI81
aI95
aI1
ag201
aa(lp649
F0.1644650082311
aI82
aI98
aI1
ag203
aa(lp650
F0.010198829440469
aI81
aI0
aI1
ag205
aa(lp651
F0.041122141901383
aI82
aI0
aI1
ag207
aa(lp652
F0.082333801986124
aI83
aI92
aI1
ag209
aa(lp653
F0.14381533690528
aI81
aI93
aI1
ag211
aa(lp654
F0.010505614592148
aI83
aI0
aI1
ag213
aa(lp655
F0.07715432096893
aI81
aI0
aI1
ag215
aa(lp656
F0.0099999999999909
aI0
aI0
aI0
ag217
aaaI0
aI0
aa(lp657
(lp658
(lp659
F0.60348545708098
aI24
aI114
aI2
ag221
aa(lp660
F0.68506381473094
aI24
aI0
aI2
ag223
aa(lp661
F0.051426691885695
aI27
aI113
aI2
ag225
aa(lp662
F0.65451660775477
aI29
aI115
aI2
ag227
aa(lp663
F0.051333344324576
aI27
aI0
aI2
ag229
aa(lp664
F0.69552691688432
aI31
aI120
aI2
ag231
aa(lp665
F0.030584539257461
aI29
aI0
aI2
ag233
aa(lp666
F0.6235503661029
aI31
aI0
aI2
ag235
aa(lp667
F0.052318089100254
aI34
aI110
aI2
ag237
aa(lp668
F0.48716100326351
aI36
aI120
aI2
ag239
aa(lp669
F0.020752462333689
aI34
aI0
aI2
ag241
aa(lp670
F0.69622479432678
aI34
aI115
aI2
ag243
aa(lp671
F0.041402761189829
aI36
aI0
aI2
ag245
aa(lp672
F0.63242372553293
aI31
aI120
aI2
ag247
aa(lp673
F0.031813259801993
aI34
aI0
aI2
ag249
aa(lp674
F0.53792482353833
aI31
aI0
aI2
ag251
aa(lp675
F0.010287702113601
aI29
aI112
aI2
ag253
aa(lp676
F0.70533430527621
aI31
aI120
aI2
ag255
aa(lp677
F0.041337618610441
aI29
aI0
aI2
ag257
aa(lp678
F0.67357057525464
aI34
aI113
aI2
ag259
aa(lp679
F0.021023302351068
aI31
aI0
aI2
ag261
aa(lp680
F0.53960378452314
aI31
aI123
aI2
ag263
aa(lp681
F0.031005182416152
aI34
aI0
aI2
ag265
aa(lp682
F3.6336051521632
aI31
aI0
aI2
ag267
aa(lp683
F1.0163423538809
aI27
aI118
aI2
ag269
aa(lp684
F0.65453358707043
aI29
aI108
aI2
ag271
aa(lp685
F0.062612830063472
aI27
aI0
aI2
ag273
aa(lp686
F0.60085910233283
aI31
aI121
aI2
ag275
aa(lp687
F0.020599930125968
aI29
aI0
aI2
ag277
aa(lp688
F0.67410721960653
aI29
aI108
aI2
ag279
aa(lp689
F0.062577421615401
aI31
aI0
aI2
ag281
aa(lp690
F0.65342300376869
aI27
aI116
aI2
ag283
aa(lp691
F0.14403187955816
aI29
aI0
aI2
ag285
aa(lp692
F0.49876528956679
aI27
aI0
aI2
ag287
aa(lp693
F0.06087110259341
aI0
aI0
aI0
ag289
aaa(lp694
(lp695
F0.017301133480032
aI43
aI117
aI2
ag292
aa(lp696
F0.11418611804038
aI44
aI84
aI2
ag294
aa(lp697
F0.16616025749499
aI43
aI0
aI2
ag296
aa(lp698
F0.33124642700204
aI44
aI0
aI2
ag298
aa(lp699
F0.1247194103571
aI43
aI118
aI2
ag300
aa(lp700
F0.46534784044161
aI43
aI0
aI2
ag302
aa(lp701
F0.19769004146292
aI41
aI98
aI2
ag304
aa(lp702
F0.23766260718639
aI41
aI0
aI2
ag306
aa(lp703
F0.31210769977406
aI43
aI120
aI2
ag308
aa(lp704
F0.71724958814411
aI43
aI0
aI2
ag310
aa(lp705
F0.2276218558427
aI41
aI112
aI2
ag312
aa(lp706
F0.2585374709297
aI41
aI0
aI2
ag314
aa(lp707
F0.30131171100675
aI39
aI118
aI2
ag316
aa(lp708
F0.86218141110021
aI39
aI0
aI2
ag318
aa(lp709
F1.6576371580095
aI39
aI108
aI2
ag320
aa(lp710
F0.20763112238183
aI39
aI0
aI2
ag322
aa(lp711
F0.00024268660126836
aI36
aI118
aI2
ag324
aa(lp712
F0.18643955998959
aI36
aI0
aI2
ag326
aa(lp713
F0.3743084883954
aI39
aI99
aI2
ag328
aa(lp714
F0.19646091631785
aI39
aI0
aI2
ag330
aa(lp715
F0.55881660114756
aI41
aI105
aI2
ag332
aa(lp716
F0.22725833664663
aI41
aI0
aI2
ag334
aa(lp717
F0.36269047742553
aI39
aI114
aI2
ag336
aa(lp718
F0.67520143842557
aI39
aI0
aI2
ag338
aa(lp719
F0.25921885695698
aI36
aI114
aI2
ag340
aa(lp720
F0.28997999220337
aI36
aI0
aI2
ag342
aa(lp721
F0.25009899697579
aI34
aI105
aI2
ag344
aa(lp722
F0.58025869223911
aI34
aI0
aI2
ag346
aa(lp723
F0.35223694882188
aI36
aI97
aI2
ag348
aa(lp724
F0.23957322347542
aI36
aI0
aI2
ag350
aa(lp725
F0.2904232751107
aI39
aI106
aI2
ag352
aa(lp726
F0.60298971985867
aI39
aI0
aI2
ag354
aa(lp727
F0.26933072864722
aI36
aI100
aI2
ag356
aa(lp728
F0.30022688525332
aI36
aI0
aI2
ag358
aa(lp729
F0.25953763612142
aI39
aI114
aI2
ag360
aa(lp730
F0.72423770010118
aI39
aI0
aI2
ag362
aa(lp731
F0.17648750727221
aI36
aI83
aI2
ag364
aa(lp732
F0.20647894461581
aI36
aI0
aI2
ag366
aa(lp733
F0.35200159460146
aI39
aI111
aI2
ag368
aa(lp734
F0.10413530127971
aI41
aI17
aI2
ag370
aa(lp735
F0.15559372848111
aI39
aI0
aI2
ag372
aa(lp736
F0.63301525268071
aI41
aI0
aI2
ag374
aa(lp737
F0.07315506721261
aI39
aI101
aI2
ag376
aa(lp738
F0.36338148460254
aI39
aI0
aI2
ag378
aa(lp739
F0.73762810588505
aI0
aI0
aI0
ag380
aaaI0
aI0
aa(lp740
(lp741
(lp742
F0.66666666666667
aI36
aI118
aI3
aS'on'
p743
aa(lp744
F0.78660962261256
aI36
aI0
aI3
aS'off'
p745
aa(lp746
F0.046723710720774
aI39
aI123
aI3
aS'on'
p747
aa(lp748
F0.43605099217575
aI39
aI0
aI3
aS'off'
p749
aa(lp750
F0.063949007824249
aI41
aI117
aI3
aS'on'
p751
aa(lp752
F0.95458448918384
aI41
aI0
aI3
aS'off'
p753
aa(lp754
F0.045415510816156
aI43
aI124
aI3
aS'on'
p755
aa(lp756
F0.56978974322033
aI43
aI0
aI3
aS'off'
p757
aa(lp758
F0.43021025677967
aI0
aI0
aI0
aS'timeAfterLastHit'
p759
aaaI0
aI0
aI0
aaa(lp760
(lp761
(dp762
g453
g454
sg455
I0
sa(dp763
a(dp764
a(dp765
aa(lp766
(dp767
g453
S'59'
p768
sg455
I0
sa(dp769
g453
g463
sg455
I0
sa(dp770
a(dp771
aa(lp772
(dp773
g453
g468
sg455
I0
sa(dp774
g453
g470
sg455
I0
sa(dp775
a(dp776
aa(lp777
(dp778
g453
S'19'
p779
sg455
I0
sa(dp780
a(dp781
a(dp782
aaa(lp783
I60
aI60
aI36
aI36
aa(lp784
(lp785
I0
aI2
aI3
aI5
aI7
aI8
aI10
aa(lp786
I0
aI2
aI3
aI5
aI7
aI8
aI10
aa(lp787
I0
aI2
aI3
aI5
aI7
aI8
aI10
aa(lp788
I0
aI1
aI2
aI3
aI4
aI5
aI6
aI7
aI8
aI9
aI10
aI11
aaa(lp789
(lp790
(lp791
I0
aI0
aI0
aI0
aI0
aI0
aI0
aI0
aI0
aI0
aI0
aI0
aa(lp792
I0
aI0
aI0
aI0
aI0
aI0
aI0
aI0
aI0
aI0
aI0
aI0
aa(lp793
I0
aI0
aI0
aI0
aI0
aI0
aI0
aI0
aI0
aI0
aI0
aI0
aa(lp794
I0
aI0
aI0
aI0
aI0
aI0
aI0
aI0
aI0
aI0
aI0
aI0
aaa(lp795
(lp796
I0
aI0
aI0
aI0
aI0
aI0
aI0
aI0
aI0
aI0
aI0
aI0
aa(lp797
I0
aI0
aI0
aI0
aI0
aI0
aI0
aI0
aI0
aI0
aI0
aI0
aa(lp798
I0
aI0
aI0
aI0
aI0
aI0
aI0
aI0
aI0
aI0
aI0
aI0
aa(lp799
I0
aI0
aI0
aI0
aI0
aI0
aI0
aI0
aI0
aI0
aI0
aI0
aaa(lp800
(lp801
I0
aI0
aI0
aI0
aI0
aI0
aI0
aI0
aI0
aI0
aI0
aI0
aa(lp802
I0
aI0
aI0
aI0
aI0
aI0
aI0
aI0
aI0
aI0
aI0
aI0
aa(lp803
I0
aI0
aI0
aI0
aI0
aI0
aI0
aI0
aI0
aI0
aI0
aI0
aa(lp804
I0
aI0
aI0
aI0
aI0
aI0
aI0
aI0
aI0
aI0
aI0
aI0
aaa(lp805
(lp806
I0
aI0
aI0
aI0
aI0
aI0
aI0
aI0
aI0
aI0
aI0
aI0
aa(lp807
I0
aI0
aI0
aI0
aI0
aI0
aI0
aI0
aI0
aI0
aI0
aI0
aa(lp808
I0
aI0
aI0
aI0
aI0
aI0
aI0
aI0
aI0
aI0
aI0
aI0
aa(lp809
I0
aI0
aI0
aI0
aI0
aI0
aI0
aI0
aI0
aI0
aI0
aI0
aaaa(lp810
(lp811
I0
aI0
aI0
aI0
aI0
aI0
aI0
aI0
aI0
aI0
aI0
aI0
aa(lp812
I0
aI0
aI0
aI0
aI0
aI0
aI0
aI0
aI0
aI0
aI0
aI0
aa(lp813
I0
aI0
aI0
aI0
aI0
aI0
aI0
aI0
aI0
aI0
aI0
aI0
aa(lp814
I0
aI0
aI0
aI0
aI0
aI0
aI0
aI0
aI0
aI0
aI0
aI0
aaaaI0
aI0
aI0
aI0
aI0
aI0
aI0
aI0
aI0
aI0
aI0
aI0
aI0
aI0
aI0
aI0
aI0
aI0
aI0
aI0
aI0
aI0
aI0
aI0
aI0
aI0
aI0
aI0
a.