(lp0
(dp1
a(dp2
a(dp3
a(dp4
a(dp5
a(dp6
a(dp7
a(dp8
a(dp9
a(dp10
a(dp11
a(dp12
a(dp13
a(dp14
a(dp15
a(dp16
a(dp17
a(dp18
a(dp19
a(dp20
a(dp21
a(dp22
a(dp23
a(dp24
a(dp25
a(dp26
a(dp27
a(dp28
a(dp29
a(dp30
a(dp31
a(dp32
a(dp33
a(dp34
a(dp35
F72.0
I55
sF75.0
I63
sF68.0
I51
sa(dp36
a(dp37
a(dp38
a(dp39
a(dp40
a(dp41
F83.0
I76
sF78.0
I66
sF71.0
I54
sa(dp42
F82.0
I75
sF77.0
I65
sF70.0
I53
sa(dp43
F81.0
I74
sF76.0
I64
sF69.0
I52
sa(dp44
F75.0
I63
sF69.0
I52
sF63.0
I41
sa(dp45
F80.0
I73
sF75.0
I63
sF68.0
I51
sa(dp46
a(dp47
a(dp48
a(dp49
a(dp50
a(dp51
a(dp52
a(dp53
a(dp54
a(dp55
a(dp56
F82.0
I75
sF77.0
I65
sF70.0
I53
sa(dp57
a(dp58
a(dp59
a(dp60
a(dp61
a(dp62
a(dp63
a(dp64
a(dp65
a(dp66
F84.0
I77
sF77.0
I65
sF70.0
I53
sa(dp67
a(dp68
a(dp69
a(dp70
a(dp71
F80.0
I68
sF84.0
I77
sF79.0
I67
sa(dp72
F72.0
I55
sF84.0
I77
sF79.0
I67
sa(dp73
F82.0
I75
sF77.0
I65
sF70.0
I53
sa(dp74
F72.0
I55
sF74.0
I57
sF75.0
I58
sa(dp75
F72.0
I55
sF74.0
I57
sF77.0
I65
sa(dp76
F72.0
I55
sF82.0
I75
sF77.0
I65
sa(dp77
F72.0
I55
sF67.0
I45
sF63.0
I36
sa(dp78
a(dp79
a(dp80
a(dp81
a(dp82
a(dp83
a(dp84
a(dp85
a(dp86
a(dp87
a(dp88
a(dp89
a(dp90
a(dp91
a(dp92
a(dp93
a(dp94
a(dp95
a(dp96
a(dp97
a(dp98
a(dp99
a(dp100
a.