(lp0
(lp1
(lp2
F0.0
aI60
aI118
aI0
aS'on'
p3
aa(lp4
F0.34290423697837
aI60
aI0
aI0
aS'off'
p5
aa(lp6
F0.40709576302163
aI60
aI111
aI0
aS'on'
p7
aa(lp8
F0.12719235505767
aI60
aI0
aI0
aS'off'
p9
aa(lp10
F0.12280764494233
aI60
aI117
aI0
aS'on'
p11
aa(lp12
F0.13570014796153
aI60
aI0
aI0
aS'off'
p13
aa(lp14
F0.36429985203847
aI60
aI118
aI0
aS'on'
p15
aa(lp16
F0.18374744353127
aI60
aI0
aI0
aS'off'
p17
aa(lp18
F0.31625255646873
aI60
aI118
aI0
aS'on'
p19
aa(lp20
F0.29488303968071
aI60
aI0
aI0
aS'off'
p21
aa(lp22
F0.45511696031929
aI60
aI112
aI0
aS'on'
p23
aa(lp24
F0.12819953957899
aI60
aI0
aI0
aS'off'
p25
aa(lp26
F0.12180046042101
aI60
aI116
aI0
aS'on'
p27
aa(lp28
F0.14298654782158
aI60
aI0
aI0
aS'off'
p29
aa(lp30
F0.35701345217842
aI60
aI120
aI0
aS'on'
p31
aa(lp32
F0.17626263431896
aI60
aI0
aI0
aS'off'
p33
aa(lp34
F0.32373736568104
aI60
aI117
aI0
aS'on'
p35
aa(lp36
F0.38978591284592
aI60
aI0
aI0
aS'off'
p37
aa(lp38
F0.36021408715408
aI60
aI116
aI0
aS'on'
p39
aa(lp40
F0.12790377795636
aI60
aI0
aI0
aS'off'
p41
aa(lp42
F0.12209622204364
aI60
aI113
aI0
aS'on'
p43
aa(lp44
F0.13492484563631
aI60
aI0
aI0
aS'off'
p45
aa(lp46
F0.36507515436369
aI60
aI116
aI0
aS'on'
p47
aa(lp48
F0.15137957233492
aI60
aI0
aI0
aS'off'
p49
aa(lp50
F0.34862042766508
aI60
aI116
aI0
aS'on'
p51
aa(lp52
F0.31109198085255
aI60
aI0
aI0
aS'off'
p53
aa(lp54
F0.43890801914745
aI60
aI114
aI0
aS'on'
p55
aa(lp56
F0.11870066459744
aI60
aI0
aI0
aS'off'
p57
aa(lp58
F0.13129933540256
aI60
aI108
aI0
aS'on'
p59
aa(lp60
F0.14402084559003
aI60
aI0
aI0
aS'off'
p61
aa(lp62
F0.35597915440997
aI60
aI121
aI0
aS'on'
p63
aa(lp64
F0.19933805910409
aI60
aI0
aI0
aS'off'
p65
aa(lp66
F0.30066194089591
aI0
aI0
aI0
aS'timeAfterLastHit'
p67
aaa(lp68
(lp69
F0.0
aI60
aI115
aI0
aS'on'
p70
aa(lp71
F0.37595206053868
aI60
aI0
aI0
aS'off'
p72
aa(lp73
F0.37404793946132
aI60
aI114
aI0
aS'on'
p74
aa(lp75
F0.3578268937531
aI60
aI0
aI0
aS'off'
p76
aa(lp77
F0.3921731062469
aI60
aI114
aI0
aS'on'
p78
aa(lp79
F0.37532673090607
aI60
aI0
aI0
aS'off'
p80
aa(lp81
F0.37467326909393
aI60
aI115
aI0
aS'on'
p82
aa(lp83
F0.33536820200118
aI60
aI0
aI0
aS'off'
p84
aa(lp85
F0.41463179799882
aI60
aI115
aI0
aS'on'
p86
aa(lp87
F0.1434040165459
aI60
aI0
aI0
aS'off'
p88
aa(lp89
F0.3565959834541
aI60
aI105
aI0
aS'on'
p90
aa(lp91
F0.10324605721769
aI60
aI0
aI0
aS'off'
p92
aa(lp93
F0.39675394278231
aI60
aI118
aI0
aS'on'
p94
aa(lp95
F0.25536414436272
aI60
aI0
aI0
aS'off'
p96
aa(lp97
F0.49463585563728
aI60
aI113
aI0
aS'on'
p98
aa(lp99
F0.34296277483156
aI60
aI0
aI0
aS'off'
p100
aa(lp101
F0.40703722516844
aI60
aI111
aI0
aS'on'
p102
aa(lp103
F0.31843917863807
aI60
aI0
aI0
aS'off'
p104
aa(lp105
F0.43156082136193
aI60
aI112
aI0
aS'on'
p106
aa(lp107
F0.34321039828637
aI60
aI0
aI0
aS'off'
p108
aa(lp109
F0.40678960171363
aI60
aI113
aI0
aS'on'
p110
aa(lp111
F0.14286539240277
aI60
aI0
aI0
aS'off'
p112
aa(lp113
F0.35713460759723
aI60
aI119
aI0
aS'on'
p114
aa(lp115
F0.15931393171559
aI60
aI0
aI0
aS'off'
p116
aa(lp117
F0.34068606828441
aI0
aI0
aI0
aS'timeAfterLastHit'
p118
aaa(lp119
(lp120
F0.0
aI60
aI120
aI0
aS'on'
p121
aa(lp122
F0.111802805146
aI60
aI0
aI0
aS'off'
p123
aa(lp124
F2.388197194854
aI60
aI118
aI0
aS'on'
p125
aa(lp126
F0.1353702642773
aI60
aI0
aI0
aS'off'
p127
aa(lp128
F0.3646297357227
aI60
aI119
aI0
aS'on'
p129
aa(lp130
F0.19918611458252
aI60
aI0
aI0
aS'off'
p131
aa(lp132
F0.80081388541748
aI60
aI120
aI0
aS'on'
p133
aa(lp134
F0.16718583354941
aI60
aI0
aI0
aS'off'
p135
aa(lp136
F0.83281416645059
aI60
aI121
aI0
aS'on'
p137
aa(lp138
F0.15968210251776
aI60
aI0
aI0
aS'off'
p139
aa(lp140
F1.3403178974822
aI60
aI117
aI0
aS'on'
p141
aa(lp142
F0.1438541915486
aI60
aI0
aI0
aS'off'
p143
aa(lp144
F0.3561458084514
aI60
aI121
aI0
aS'on'
p145
aa(lp146
F0.15841817957789
aI60
aI0
aI0
aS'off'
p147
aa(lp148
F0.84158182042211
aI0
aI0
aI0
aS'timeAfterLastHit'
p149
aaa(lp150
(lp151
F0.0
aI60
aI115
aI0
aS'on'
p152
aa(lp153
F0.11316609107234
aI60
aI0
aI0
aS'off'
p154
aa(lp155
F1.8868339089277
aI60
aI104
aI0
aS'on'
p156
aa(lp157
F0.35826752707635
aI60
aI0
aI0
aS'off'
p158
aa(lp159
F1.6417324729236
aI60
aI98
aI0
aS'on'
p160
aa(lp161
F0.096140763364019
aI60
aI0
aI0
aS'off'
p162
aa(lp163
F0.57052590330265
aI60
aI115
aI0
aS'on'
p164
aa(lp165
F0.11186471862948
aI60
aI0
aI0
aS'off'
p166
aa(lp167
F0.72146861470386
aI60
aI96
aI0
aS'on'
p168
aa(lp169
F0.039906960242661
aI60
aI0
aI0
aS'off'
p170
aa(lp171
F0.46009303975734
aI60
aI112
aI0
aS'on'
p172
aa(lp173
F0.09600797535586
aI60
aI0
aI0
aS'off'
p174
aa(lp175
F0.90399202464414
aI60
aI116
aI0
aS'on'
p176
aa(lp177
F0.096038641016094
aI60
aI0
aI0
aS'off'
p178
aa(lp179
F0.90396135898391
aI0
aI0
aI0
aS'timeAfterLastHit'
p180
aaa.