(lp0
I0
aI0
aI0
aI0
aI0
aI0
aI0
aI0
aI0
aI0
aI0
aI0
aI0
aI0
aI0
aI0
aI0
aI0
aI0
aI0
aI0
aI0
aI0
aI0
aI0
aI0
aI0
aI0
aI0
aI0
aI0
aI0
aI0
aI0
aI0
aI0
aI0
aI0
aI0
aI0
aI0
aI0
aI0
aI0
aI0
aI0
aI0
aI0
aI0
aI0
aI0
aI0
aI0
aI0
aI0
aI0
aI0
aI0
aI0
aI0
a(lp1
(lp2
(lp3
(lp4
(lp5
F0.0
aI60
aI103
aI0
aS'on'
p6
aa(lp7
F0.33841775934707
aI60
aI0
aI0
aS'off'
p8
aa(lp9
F0.41158224065293
aI75
aI101
aI0
aS'on'
p10
aa(lp11
F0.24231219552848
aI75
aI0
aI0
aS'off'
p12
aa(lp13
F0.25768780447152
aI60
aI98
aI0
aS'on'
p14
aa(lp15
F0.16119843601814
aI60
aI0
aI0
aS'off'
p16
aa(lp17
F0.08880156398186
aI75
aI115
aI0
aS'on'
p18
aa(lp19
F0.26654188684302
aI75
aI0
aI0
aS'off'
p20
aa(lp21
F0.23345811315698
aI60
aI112
aI0
aS'on'
p22
aa(lp23
F0.35858466563764
aI60
aI0
aI0
aS'off'
p24
aa(lp25
F0.39141533436236
aI75
aI118
aI0
aS'on'
p26
aa(lp27
F0.23110779041986
aI75
aI0
aI0
aS'off'
p28
aa(lp29
F0.26889220958014
aI75
aI116
aI0
aS'on'
p30
aa(lp31
F0.18472542744757
aI75
aI0
aI0
aS'off'
p32
aa(lp33
F0.56527457255243
aI75
aI119
aI0
aS'on'
p34
aa(lp35
F0.21938824675613
aI75
aI0
aI0
aS'off'
p36
aa(lp37
F0.53061175324387
aI75
aI119
aI0
aS'on'
p38
aa(lp39
F0.21999133142822
aI75
aI0
aI0
aS'off'
p40
aa(lp41
F0.53000866857178
aI75
aI119
aI0
aS'on'
p42
aa(lp43
F0.19587320526057
aI75
aI0
aI0
aS'off'
p44
aa(lp45
F0.30412679473943
aI75
aI119
aI0
aS'on'
p46
aa(lp47
F0.20744331062519
aI75
aI0
aI0
aS'off'
p48
aa(lp49
F0.54255668937481
aI75
aI119
aI0
aS'on'
p50
aa(lp51
F0.22036238085002
aI75
aI0
aI0
aS'off'
p52
aa(lp53
F0.52963761914998
aI75
aI123
aI0
aS'on'
p54
aa(lp55
F0.19622545852462
aI75
aI0
aI0
aS'off'
p56
aa(lp57
F0.30377454147538
aI0
aI0
aI0
aS'timeAfterLastHit'
p58
aaa(lp59
(lp60
F0.0
aI77
aI122
aI0
aS'on'
p61
aa(lp62
F0.48095641978671
aI77
aI0
aI0
aS'off'
p63
aa(lp64
F0.21807053216708
aI77
aI112
aI0
aS'on'
p65
aa(lp66
F0.35891732667096
aI77
aI0
aI0
aS'off'
p67
aa(lp68
F0.13912521240172
aI75
aI111
aI0
aS'on'
p69
aa(lp70
F0.27815991798752
aI77
aI100
aI0
aS'on'
p71
aa(lp72
F0.045852424101213
aI75
aI0
aI0
aS'off'
p73
aa(lp74
F0.32332493343029
aI77
aI0
aI0
aS'off'
p75
aa(lp76
F0.21972556481433
aI77
aI121
aI0
aS'on'
p77
aa(lp78
F0.42826682314126
aI77
aI0
aI0
aS'off'
p79
aa(lp80
F0.32348534426319
aI77
aI121
aI0
aS'on'
p81
aa(lp82
F0.40623135768874
aI77
aI0
aI0
aS'off'
p83
aa(lp84
F0.31310990057136
aI77
aI120
aI0
aS'on'
p85
aa(lp86
F0.24170501550498
aI77
aI0
aI0
aS'off'
p87
aa(lp88
F0.23092528857387
aI77
aI120
aI0
aS'on'
p89
aa(lp90
F0.45154493796281
aI77
aI0
aI0
aS'off'
p91
aa(lp92
F0.32388265302234
aI77
aI122
aI0
aS'on'
p93
aa(lp94
F0.39308472348876
aI77
aI0
aI0
aS'off'
p95
aa(lp96
F0.33503762865848
aI77
aI120
aI0
aS'on'
p97
aa(lp98
F0.32331475696947
aI77
aI0
aI0
aS'off'
p99
aa(lp100
F0.16223093107556
aI75
aI119
aI0
aS'on'
p101
aa(lp102
F0.023462978350381
aI76
aI61
aI0
aS'on'
p103
aa(lp104
F0.057487789725201
aI76
aI0
aI0
aS'off'
p105
aa(lp106
F0.32490161263604
aI75
aI0
aI0
aS'off'
p107
aa(lp108
F0.34655101827593
aI75
aI122
aI0
aS'on'
p109
aa(lp110
F0.42909027396627
aI75
aI0
aI0
aS'off'
p111
aa(lp112
F0.26525156157277
aI75
aI123
aI0
aS'on'
p113
aa(lp114
F0.54630307319258
aI75
aI0
aI0
aS'off'
p115
aa(lp116
F0.010000000000218
aI0
aI0
aI0
aS'timeAfterLastHit'
p117
aaaI0
aI0
aa(lp118
(lp119
(lp120
F0.0
aI65
aI96
aI1
aS'on'
p121
aa(lp122
F0.53243221040566
aI65
aI0
aI1
aS'off'
p123
aa(lp124
F0.46756778959434
aI68
aI44
aI1
aS'on'
p125
aa(lp126
F0.47377996111618
aI68
aI0
aI1
aS'off'
p127
aa(lp128
F0.27622003888382
aI70
aI101
aI1
aS'on'
p129
aa(lp130
F0.46281539719166
aI70
aI0
aI1
aS'off'
p131
aa(lp132
F0.28718460280834
aI72
aI49
aI1
aS'on'
p133
aa(lp134
F0.49852953204072
aI72
aI0
aI1
aS'off'
p135
aa(lp136
F0.25147046795928
aI75
aI80
aI1
aS'on'
p137
aa(lp138
F0.43888649083874
aI75
aI0
aI1
aS'off'
p139
aa(lp140
F0.31111350916126
aI77
aI73
aI1
aS'on'
p141
aa(lp142
F0.5672327104644
aI77
aI0
aI1
aS'off'
p143
aa(lp144
F0.1827672895356
aI75
aI44
aI1
aS'on'
p145
aa(lp146
F0.51990647963476
aI75
aI0
aI1
aS'off'
p147
aa(lp148
F0.23009352036524
aI72
aI43
aI1
aS'on'
p149
aa(lp150
F0.55468739409753
aI72
aI0
aI1
aS'off'
p151
aa(lp152
F0.19531260590247
aI70
aI64
aI1
aS'on'
p153
aa(lp154
F0.56585789757082
aI70
aI0
aI1
aS'off'
p155
aa(lp156
F0.43414210242918
aI68
aI87
aI1
aS'on'
p157
aa(lp158
F0.44036509832722
aI68
aI0
aI1
aS'off'
p159
aa(lp160
F0.30963490167278
aI0
aI0
aI0
aS'timeAfterLastHit'
p161
aaa(lp162
(lp163
F0.14879124294384
aI70
aI83
aI1
aS'on'
p164
aa(lp165
F0.52055605936721
aI70
aI0
aI1
aS'off'
p166
aa(lp167
F0.25483319630166
aI72
aI84
aI1
aS'on'
p168
aa(lp169
F0.47476195200397
aI72
aI0
aI1
aS'off'
p170
aa(lp171
F0.28825174534904
aI75
aI71
aI1
aS'on'
p172
aa(lp173
F0.484444098312
aI75
aI0
aI1
aS'off'
p174
aa(lp175
F0.26539891902621
aI77
aI18
aI1
aS'on'
p176
aa(lp177
F0.55717864790086
aI77
aI0
aI1
aS'off'
p178
aa(lp179
F0.27654690028021
aI80
aI70
aI1
aS'on'
p180
aa(lp181
F0.53293372285316
aI80
aI0
aI1
aS'off'
p182
aa(lp183
F0.25545071863417
aI82
aI45
aI1
aS'on'
p184
aa(lp185
F0.58994128843869
aI82
aI0
aI1
aS'off'
p186
aa(lp187
F0.19638516173745
aI80
aI74
aI1
aS'on'
p188
aa(lp189
F0.5681461197014
aI80
aI0
aI1
aS'off'
p190
aa(lp191
F0.22918518672714
aI77
aI29
aI1
aS'on'
p192
aa(lp193
F0.49720897591533
aI77
aI0
aI1
aS'off'
p194
aa(lp195
F0.15113372156065
aI75
aI67
aI1
aS'on'
p196
aa(lp197
F0.61147737314923
aI75
aI0
aI1
aS'off'
p198
aa(lp199
F0.26424219684577
aI72
aI47
aI1
aS'on'
p200
aa(lp201
F0.65929630434493
aI72
aI0
aI1
aS'off'
p202
aa(lp203
F0.17383646860708
aI0
aI0
aI0
aS'timeAfterLastHit'
p204
aaaI0
aI0
aa(lp205
(lp206
(lp207
F0.0
aI41
aI9
aI2
aS'on'
p208
aa(lp209
F0.078317564050849
aI31
aI10
aI2
aS'on'
p210
aa(lp211
F7.1416538750236
aI41
aI0
aI2
aS'off'
p212
aa(lp213
F0.046898447969852
aI31
aI0
aI2
aS'off'
p214
aa(lp215
F0.72838229416357
aI39
aI7
aI2
aS'on'
p216
aa(lp217
F0.10430063778222
aI29
aI26
aI2
aS'on'
p218
aa(lp219
F7.7979187792748
aI39
aI0
aI2
aS'off'
p220
aa(lp221
F0.023129541145863
aI29
aI0
aI2
aS'off'
p222
aa(lp223
F0.079398860589208
aI0
aI0
aI0
aS'timeAfterLastHit'
p224
aaa(lp225
(lp226
F0.0
aI24
aI86
aI2
aS'on'
p227
aa(lp228
F0.44795046054469
aI24
aI0
aI2
aS'off'
p229
aa(lp230
F0.035087234339699
aI27
aI94
aI2
aS'on'
p231
aa(lp232
F0.41689155653603
aI27
aI0
aI2
aS'off'
p233
aa(lp234
F0.081100347899337
aI29
aI72
aI2
aS'on'
p235
aa(lp236
F0.36792911132989
aI29
aI0
aI2
aS'off'
p237
aa(lp238
F0.10504497005104
aI31
aI95
aI2
aS'on'
p239
aa(lp240
F0.30017004621914
aI34
aI104
aI2
aS'on'
p241
aa(lp242
F0.00019672500911838
aI31
aI0
aI2
aS'off'
p243
aa(lp244
F0.3236034880656
aI34
aI0
aI2
aS'off'
p245
aa(lp246
F0.15069417451787
aI36
aI101
aI2
aS'on'
p247
aa(lp248
F0.41801737562264
aI36
aI0
aI2
aS'off'
p249
aa(lp250
F0.12877390739959
aI34
aI111
aI2
aS'on'
p251
aa(lp252
F0.36799194799096
aI34
aI0
aI2
aS'off'
p253
aa(lp254
F0.12664910127569
aI31
aI114
aI2
aS'on'
p255
aa(lp256
F0.16189798920595
aI31
aI0
aI2
aS'off'
p257
aa(lp258
F0.02333782026335
aI29
aI114
aI2
aS'on'
p259
aa(lp260
F0.25402735415992
aI29
aI0
aI2
aS'off'
p261
aa(lp262
F0.2906363895695
aI0
aI0
aI0
aS'timeAfterLastHit'
p263
aaaI0
aI0
aa(lp264
(lp265
(lp266
F0.0
aI36
aI110
aI3
aS'on'
p267
aa(lp268
F0.11084379336376
aI36
aI0
aI3
aS'off'
p269
aa(lp270
F0.88915620663624
aI38
aI112
aI3
aS'on'
p271
aa(lp272
F0.18630394204251
aI38
aI0
aI3
aS'off'
p273
aa(lp274
F0.81369605795749
aI36
aI107
aI3
aS'on'
p275
aa(lp276
F0.13812222510046
aI36
aI0
aI3
aS'off'
p277
aa(lp278
F0.86187777489954
aI38
aI103
aI3
aS'on'
p279
aa(lp280
F0.11504280335657
aI38
aI0
aI3
aS'off'
p281
aa(lp282
F0.88495719664343
aI36
aI98
aI3
aS'on'
p283
aa(lp284
F0.13863779486201
aI36
aI0
aI3
aS'off'
p285
aa(lp286
F0.86136220513799
aI38
aI99
aI3
aS'on'
p287
aa(lp288
F0.1503529092663
aI38
aI0
aI3
aS'off'
p289
aa(lp290
F0.8496470907337
aI36
aI99
aI3
aS'on'
p291
aa(lp292
F0.15073370615437
aI36
aI0
aI3
aS'off'
p293
aa(lp294
F0.84926629384563
aI38
aI103
aI3
aS'on'
p295
aa(lp296
F0.11584862780842
aI38
aI0
aI3
aS'off'
p297
aa(lp298
F0.88415137219158
aI0
aI0
aI0
aS'timeAfterLastHit'
p299
aaa(lp300
(lp301
F0.5
aI42
aI98
aI3
aS'on'
p302
aa(lp303
F0.15080598954319
aI42
aI0
aI3
aS'off'
p304
aa(lp305
F0.59919401045681
aI44
aI97
aI3
aS'on'
p306
aa(lp307
F0.092536301768632
aI44
aI0
aI3
aS'off'
p308
aa(lp309
F0.40746369823137
aI44
aI95
aI3
aS'on'
p310
aa(lp311
F0.12682515272331
aI44
aI0
aI3
aS'off'
p312
aa(lp313
F0.62317484727669
aI42
aI108
aI3
aS'on'
p314
aa(lp315
F0.16232490744187
aI42
aI0
aI3
aS'off'
p316
aa(lp317
F0.83767509255813
aI44
aI108
aI3
aS'on'
p318
aa(lp319
F0.12723103474195
aI44
aI0
aI3
aS'off'
p320
aa(lp321
F0.37276896525805
aI0
aI0
aI0
aS'timeAfterLastHit'
p322
aaa(lp323
(lp324
F0.5
aI43
aI101
aI3
aS'on'
p325
aa(lp326
F0.13960013381347
aI43
aI0
aI3
aS'off'
p327
aa(lp328
F1.8603998661865
aI41
aI110
aI3
aS'on'
p329
aa(lp330
F0.41520583529177
aI41
aI0
aI3
aS'off'
p331
aa(lp332
F1.0847941647082
aI0
aI0
aI0
aS'timeAfterLastHit'
p333
aaa(lp334
(lp335
F0.75
aI48
aI105
aI3
aS'on'
p336
aa(lp337
F0.15085986596523
aI48
aI0
aI3
aS'off'
p338
aa(lp339
F0.34914013403477
aI48
aI108
aI3
aS'on'
p340
aa(lp341
F0.13838531381452
aI48
aI0
aI3
aS'off'
p342
aa(lp343
F0.61161468618548
aI48
aI105
aI3
aS'on'
p344
aa(lp345
F0.12700164422176
aI48
aI0
aI3
aS'off'
p346
aa(lp347
F0.62299835577824
aI48
aI98
aI3
aS'on'
p348
aa(lp349
F0.12655287821599
aI48
aI0
aI3
aS'off'
p350
aa(lp351
F0.62344712178401
aI48
aI109
aI3
aS'on'
p352
aa(lp353
F0.11580968438102
aI48
aI0
aI3
aS'off'
p354
aa(lp355
F0.63419031561898
aI48
aI108
aI3
aS'on'
p356
aa(lp357
F0.12676373130216
aI48
aI0
aI3
aS'off'
p358
aa(lp359
F0.62323626869784
aI48
aI109
aI3
aS'on'
p360
aa(lp361
F0.1389230453517
aI48
aI0
aI3
aS'off'
p362
aa(lp363
F0.6110769546483
aI48
aI105
aI3
aS'on'
p364
aa(lp365
F0.12850425329771
aI48
aI0
aI3
aS'off'
p366
aa(lp367
F0.62149574670229
aI48
aI108
aI3
aS'on'
p368
aa(lp369
F0.11480366758133
aI48
aI0
aI3
aS'off'
p370
aa(lp371
F0.88519633241867
aI48
aI110
aI3
aS'on'
p372
aa(lp373
F0.15085531287241
aI48
aI0
aI3
aS'off'
p374
aa(lp375
F0.59914468712759
aI48
aI101
aI3
aS'on'
p376
aa(lp377
F0.15053405778963
aI48
aI0
aI3
aS'off'
p378
aa(lp379
F0.34946594221037
aI47
aI111
aI3
aS'on'
p380
aa(lp381
F0.13893616064706
aI47
aI0
aI3
aS'off'
p382
aa(lp383
F0.61106383935294
aI47
aI105
aI3
aS'on'
p384
aa(lp385
F0.10390487915265
aI47
aI0
aI3
aS'off'
p386
aa(lp387
F0.64609512084735
aI47
aI105
aI3
aS'on'
p388
aa(lp389
F0.10457980052843
aI47
aI0
aI3
aS'off'
p390
aa(lp391
F0.64542019947157
aI47
aI111
aI3
aS'on'
p392
aa(lp393
F0.11545970655789
aI47
aI0
aI3
aS'off'
p394
aa(lp395
F0.63454029344211
aI47
aI110
aI3
aS'on'
p396
aa(lp397
F0.11598282131808
aI47
aI0
aI3
aS'off'
p398
aa(lp399
F0.63401717868192
aI47
aI107
aI3
aS'on'
p400
aa(lp401
F0.10448925833066
aI47
aI0
aI3
aS'off'
p402
aa(lp403
F0.64551074166934
aI47
aI109
aI3
aS'on'
p404
aa(lp405
F0.10392974536376
aI47
aI0
aI3
aS'off'
p406
aa(lp407
F0.64607025463624
aI47
aI112
aI3
aS'on'
p408
aa(lp409
F0.11598487341644
aI47
aI0
aI3
aS'off'
p410
aa(lp411
F0.63401512658356
aI47
aI109
aI3
aS'on'
p412
aa(lp413
F0.12727870400954
aI47
aI0
aI3
aS'off'
p414
aa(lp415
F0.62272129599046
aI47
aI114
aI3
aS'on'
p416
aa(lp417
F0.16164825018586
aI47
aI0
aI3
aS'off'
p418
aa(lp419
F0.33835174981414
aI0
aI0
aI0
aS'timeAfterLastHit'
p420
aaaaa(lp421
(lp422
(dp423
S'button'
p424
S'50'
p425
sS'playing'
p426
I0
sa(dp427
g424
S'60'
p428
sg426
I0
sa(dp429
a(dp430
aa(lp431
(dp432
g424
S'59'
p433
sg426
I0
sa(dp434
g424
S'69'
p435
sg426
I0
sa(dp436
a(dp437
aa(lp438
(dp439
g424
S'10'
p440
sg426
I0
sa(dp441
g424
S'20'
p442
sg426
I0
sa(dp443
a(dp444
aa(lp445
(dp446
g424
S'19'
p447
sg426
I0
sa(dp448
g424
S'29'
p449
sg426
I0
sa(dp450
g424
S'39'
p451
sg426
I0
sa(dp452
g424
S'49'
p453
sg426
I0
saaa(lp454
I60
aI60
aI36
aI36
aa(lp455
(lp456
I0
aI2
aI3
aI5
aI7
aI8
aI10
aa(lp457
I0
aI2
aI3
aI5
aI7
aI8
aI10
aa(lp458
I0
aI2
aI3
aI5
aI7
aI8
aI10
aa(lp459
I0
aI1
aI2
aI3
aI4
aI5
aI6
aI7
aI8
aI9
aI10
aI11
aaa(lp460
(lp461
(lp462
I1
aI14
aI22
aI34
aI46
aI56
aI66
aI75
aI85
aI96
aI113
aI127
aa(lp463
I0
aI0
aI0
aI0
aI0
aI0
aI0
aI0
aI0
aI0
aI0
aI0
aa(lp464
I0
aI0
aI0
aI0
aI0
aI0
aI0
aI0
aI0
aI0
aI0
aI0
aa(lp465
I0
aI0
aI0
aI0
aI0
aI0
aI0
aI0
aI0
aI0
aI0
aI0
aaa(lp466
(lp467
I0
aI0
aI3
aI10
aI19
aI30
aI44
aI56
aI71
aI96
aI115
aI127
aa(lp468
I0
aI0
aI0
aI0
aI0
aI0
aI0
aI0
aI0
aI0
aI0
aI0
aa(lp469
I0
aI0
aI0
aI0
aI0
aI0
aI0
aI0
aI0
aI0
aI0
aI0
aa(lp470
I0
aI0
aI0
aI0
aI0
aI0
aI0
aI0
aI0
aI0
aI0
aI0
aaa(lp471
(lp472
I1
aI9
aI13
aI25
aI37
aI50
aI63
aI78
aI94
aI108
aI127
aI127
aa(lp473
I0
aI0
aI0
aI0
aI0
aI0
aI0
aI0
aI0
aI0
aI0
aI0
aa(lp474
I0
aI0
aI0
aI0
aI0
aI0
aI0
aI0
aI0
aI0
aI0
aI0
aa(lp475
I0
aI0
aI0
aI0
aI0
aI0
aI0
aI0
aI0
aI0
aI0
aI0
aaa(lp476
(lp477
I0
aI0
aI6
aI20
aI33
aI54
aI72
aI89
aI104
aI126
aI127
aI127
aa(lp478
I0
aI0
aI0
aI0
aI0
aI0
aI0
aI0
aI0
aI0
aI0
aI0
aa(lp479
I0
aI0
aI0
aI0
aI0
aI0
aI0
aI0
aI0
aI0
aI0
aI0
aa(lp480
I0
aI0
aI0
aI0
aI0
aI0
aI0
aI0
aI0
aI0
aI0
aI0
aaaa(lp481
(lp482
I0
aI64
aI75
aI96
aI54
aI0
aI0
aI0
aI0
aI0
aI18
aI4
aa(lp483
I127
aI120
aI104
aI88
aI76
aI70
aI64
aI60
aI52
aI43
aI33
aI17
aa(lp484
I127
aI106
aI93
aI83
aI71
aI58
aI51
aI42
aI36
aI30
aI23
aI12
aa(lp485
I124
aI102
aI85
aI70
aI61
aI54
aI45
aI39
aI34
aI28
aI24
aI16
aaaaI0
aI0
aI0
aI0
aI0
aI0
aI0
aI0
aI0
a(lp486
(lp487
(lp488
(lp489
(lp490
F0.0
aI60
aI103
aI0
ag6
aa(lp491
F0.33841775934707
aI60
aI0
aI0
ag8
aa(lp492
F0.41158224065293
aI75
aI101
aI0
ag10
aa(lp493
F0.24231219552848
aI75
aI0
aI0
ag12
aa(lp494
F0.25768780447152
aI60
aI98
aI0
ag14
aa(lp495
F0.16119843601814
aI60
aI0
aI0
ag16
aa(lp496
F0.08880156398186
aI75
aI115
aI0
ag18
aa(lp497
F0.26654188684302
aI75
aI0
aI0
ag20
aa(lp498
F0.23345811315698
aI60
aI112
aI0
ag22
aa(lp499
F0.35858466563764
aI60
aI0
aI0
ag24
aa(lp500
F0.39141533436236
aI75
aI118
aI0
ag26
aa(lp501
F0.23110779041986
aI75
aI0
aI0
ag28
aa(lp502
F0.26889220958014
aI75
aI116
aI0
ag30
aa(lp503
F0.18472542744757
aI75
aI0
aI0
ag32
aa(lp504
F0.56527457255243
aI75
aI119
aI0
ag34
aa(lp505
F0.21938824675613
aI75
aI0
aI0
ag36
aa(lp506
F0.53061175324387
aI75
aI119
aI0
ag38
aa(lp507
F0.21999133142822
aI75
aI0
aI0
ag40
aa(lp508
F0.53000866857178
aI75
aI119
aI0
ag42
aa(lp509
F0.19587320526057
aI75
aI0
aI0
ag44
aa(lp510
F0.30412679473943
aI75
aI119
aI0
ag46
aa(lp511
F0.20744331062519
aI75
aI0
aI0
ag48
aa(lp512
F0.54255668937481
aI75
aI119
aI0
ag50
aa(lp513
F0.22036238085002
aI75
aI0
aI0
ag52
aa(lp514
F0.52963761914998
aI75
aI123
aI0
ag54
aa(lp515
F0.19622545852462
aI75
aI0
aI0
ag56
aa(lp516
F0.30377454147538
aI0
aI0
aI0
ag58
aaaI0
aI0
aI0
aa(lp517
(lp518
(lp519
F0.0
aI65
aI96
aI1
ag121
aa(lp520
F0.53243221040566
aI65
aI0
aI1
ag123
aa(lp521
F0.46756778959434
aI68
aI44
aI1
ag125
aa(lp522
F0.47377996111618
aI68
aI0
aI1
ag127
aa(lp523
F0.27622003888382
aI70
aI101
aI1
ag129
aa(lp524
F0.46281539719166
aI70
aI0
aI1
ag131
aa(lp525
F0.28718460280834
aI72
aI49
aI1
ag133
aa(lp526
F0.49852953204072
aI72
aI0
aI1
ag135
aa(lp527
F0.25147046795928
aI75
aI80
aI1
ag137
aa(lp528
F0.43888649083874
aI75
aI0
aI1
ag139
aa(lp529
F0.31111350916126
aI77
aI73
aI1
ag141
aa(lp530
F0.5672327104644
aI77
aI0
aI1
ag143
aa(lp531
F0.1827672895356
aI75
aI44
aI1
ag145
aa(lp532
F0.51990647963476
aI75
aI0
aI1
ag147
aa(lp533
F0.23009352036524
aI72
aI43
aI1
ag149
aa(lp534
F0.55468739409753
aI72
aI0
aI1
ag151
aa(lp535
F0.19531260590247
aI70
aI64
aI1
ag153
aa(lp536
F0.56585789757082
aI70
aI0
aI1
ag155
aa(lp537
F0.43414210242918
aI68
aI87
aI1
ag157
aa(lp538
F0.44036509832722
aI68
aI0
aI1
ag159
aa(lp539
F0.30963490167278
aI0
aI0
aI0
ag161
aaaI0
aI0
aI0
aa(lp540
(lp541
(lp542
F0.0
aI41
aI9
aI2
ag208
aa(lp543
F0.078317564050849
aI31
aI10
aI2
ag210
aa(lp544
F7.1416538750236
aI41
aI0
aI2
ag212
aa(lp545
F0.046898447969852
aI31
aI0
aI2
ag214
aa(lp546
F0.72838229416357
aI39
aI7
aI2
ag216
aa(lp547
F0.10430063778222
aI29
aI26
aI2
ag218
aa(lp548
F7.7979187792748
aI39
aI0
aI2
ag220
aa(lp549
F0.023129541145863
aI29
aI0
aI2
ag222
aa(lp550
F0.079398860589208
aI0
aI0
aI0
ag224
aaaI0
aI0
aI0
aa(lp551
(lp552
(lp553
F0.0
aI36
aI110
aI3
ag267
aa(lp554
F0.11084379336376
aI36
aI0
aI3
ag269
aa(lp555
F0.88915620663624
aI38
aI112
aI3
ag271
aa(lp556
F0.18630394204251
aI38
aI0
aI3
ag273
aa(lp557
F0.81369605795749
aI36
aI107
aI3
ag275
aa(lp558
F0.13812222510046
aI36
aI0
aI3
ag277
aa(lp559
F0.86187777489954
aI38
aI103
aI3
ag279
aa(lp560
F0.11504280335657
aI38
aI0
aI3
ag281
aa(lp561
F0.88495719664343
aI36
aI98
aI3
ag283
aa(lp562
F0.13863779486201
aI36
aI0
aI3
ag285
aa(lp563
F0.86136220513799
aI38
aI99
aI3
ag287
aa(lp564
F0.1503529092663
aI38
aI0
aI3
ag289
aa(lp565
F0.8496470907337
aI36
aI99
aI3
ag291
aa(lp566
F0.15073370615437
aI36
aI0
aI3
ag293
aa(lp567
F0.84926629384563
aI38
aI103
aI3
ag295
aa(lp568
F0.11584862780842
aI38
aI0
aI3
ag297
aa(lp569
F0.88415137219158
aI0
aI0
aI0
ag299
aaa(lp570
(lp571
F0.5
aI42
aI98
aI3
ag302
aa(lp572
F0.15080598954319
aI42
aI0
aI3
ag304
aa(lp573
F0.59919401045681
aI44
aI97
aI3
ag306
aa(lp574
F0.092536301768632
aI44
aI0
aI3
ag308
aa(lp575
F0.40746369823137
aI44
aI95
aI3
ag310
aa(lp576
F0.12682515272331
aI44
aI0
aI3
ag312
aa(lp577
F0.62317484727669
aI42
aI108
aI3
ag314
aa(lp578
F0.16232490744187
aI42
aI0
aI3
ag316
aa(lp579
F0.83767509255813
aI44
aI108
aI3
ag318
aa(lp580
F0.12723103474195
aI44
aI0
aI3
ag320
aa(lp581
F0.37276896525805
aI0
aI0
aI0
ag322
aaa(lp582
(lp583
F0.5
aI43
aI101
aI3
ag325
aa(lp584
F0.13960013381347
aI43
aI0
aI3
ag327
aa(lp585
F1.8603998661865
aI41
aI110
aI3
ag329
aa(lp586
F0.41520583529177
aI41
aI0
aI3
ag331
aa(lp587
F1.0847941647082
aI0
aI0
aI0
ag333
aaa(lp588
(lp589
F0.75
aI48
aI105
aI3
ag336
aa(lp590
F0.15085986596523
aI48
aI0
aI3
ag338
aa(lp591
F0.34914013403477
aI48
aI108
aI3
ag340
aa(lp592
F0.13838531381452
aI48
aI0
aI3
ag342
aa(lp593
F0.61161468618548
aI48
aI105
aI3
ag344
aa(lp594
F0.12700164422176
aI48
aI0
aI3
ag346
aa(lp595
F0.62299835577824
aI48
aI98
aI3
ag348
aa(lp596
F0.12655287821599
aI48
aI0
aI3
ag350
aa(lp597
F0.62344712178401
aI48
aI109
aI3
ag352
aa(lp598
F0.11580968438102
aI48
aI0
aI3
ag354
aa(lp599
F0.63419031561898
aI48
aI108
aI3
ag356
aa(lp600
F0.12676373130216
aI48
aI0
aI3
ag358
aa(lp601
F0.62323626869784
aI48
aI109
aI3
ag360
aa(lp602
F0.1389230453517
aI48
aI0
aI3
ag362
aa(lp603
F0.6110769546483
aI48
aI105
aI3
ag364
aa(lp604
F0.12850425329771
aI48
aI0
aI3
ag366
aa(lp605
F0.62149574670229
aI48
aI108
aI3
ag368
aa(lp606
F0.11480366758133
aI48
aI0
aI3
ag370
aa(lp607
F0.88519633241867
aI48
aI110
aI3
ag372
aa(lp608
F0.15085531287241
aI48
aI0
aI3
ag374
aa(lp609
F0.59914468712759
aI48
aI101
aI3
ag376
aa(lp610
F0.15053405778963
aI48
aI0
aI3
ag378
aa(lp611
F0.34946594221037
aI47
aI111
aI3
ag380
aa(lp612
F0.13893616064706
aI47
aI0
aI3
ag382
aa(lp613
F0.61106383935294
aI47
aI105
aI3
ag384
aa(lp614
F0.10390487915265
aI47
aI0
aI3
ag386
aa(lp615
F0.64609512084735
aI47
aI105
aI3
ag388
aa(lp616
F0.10457980052843
aI47
aI0
aI3
ag390
aa(lp617
F0.64542019947157
aI47
aI111
aI3
ag392
aa(lp618
F0.11545970655789
aI47
aI0
aI3
ag394
aa(lp619
F0.63454029344211
aI47
aI110
aI3
ag396
aa(lp620
F0.11598282131808
aI47
aI0
aI3
ag398
aa(lp621
F0.63401717868192
aI47
aI107
aI3
ag400
aa(lp622
F0.10448925833066
aI47
aI0
aI3
ag402
aa(lp623
F0.64551074166934
aI47
aI109
aI3
ag404
aa(lp624
F0.10392974536376
aI47
aI0
aI3
ag406
aa(lp625
F0.64607025463624
aI47
aI112
aI3
ag408
aa(lp626
F0.11598487341644
aI47
aI0
aI3
ag410
aa(lp627
F0.63401512658356
aI47
aI109
aI3
ag412
aa(lp628
F0.12727870400954
aI47
aI0
aI3
ag414
aa(lp629
F0.62272129599046
aI47
aI114
aI3
ag416
aa(lp630
F0.16164825018586
aI47
aI0
aI3
ag418
aa(lp631
F0.33835174981414
aI0
aI0
aI0
ag420
aaaaa(lp632
(lp633
(dp634
g424
g425
sg426
I1
sa(dp635
a(dp636
a(dp637
aa(lp638
(dp639
g424
g433
sg426
I1
sa(dp640
a(dp641
a(dp642
aa(lp643
(dp644
g424
g440
sg426
I1
sa(dp645
a(dp646
a(dp647
aa(lp648
(dp649
g424
g447
sg426
I1
sa(dp650
g424
g449
sg426
I1
sa(dp651
g424
g451
sg426
I1
sa(dp652
g424
g453
sg426
I1
saaa(lp653
I60
aI60
aI36
aI36
aa(lp654
(lp655
I0
aI2
aI3
aI5
aI7
aI8
aI10
aa(lp656
I0
aI2
aI3
aI5
aI7
aI8
aI10
aa(lp657
I0
aI2
aI3
aI5
aI7
aI8
aI10
aa(lp658
I0
aI1
aI2
aI3
aI4
aI5
aI6
aI7
aI8
aI9
aI10
aI11
aaa(lp659
(lp660
(lp661
I1
aI14
aI22
aI34
aI46
aI56
aI66
aI75
aI85
aI96
aI113
aI127
aa(lp662
I0
aI0
aI0
aI0
aI0
aI0
aI0
aI0
aI0
aI0
aI0
aI0
aa(lp663
I0
aI0
aI0
aI0
aI0
aI0
aI0
aI0
aI0
aI0
aI0
aI0
aa(lp664
I0
aI0
aI0
aI0
aI0
aI0
aI0
aI0
aI0
aI0
aI0
aI0
aaa(lp665
(lp666
I0
aI0
aI3
aI10
aI19
aI30
aI44
aI56
aI71
aI96
aI115
aI127
aa(lp667
I0
aI0
aI0
aI0
aI0
aI0
aI0
aI0
aI0
aI0
aI0
aI0
aa(lp668
I0
aI0
aI0
aI0
aI0
aI0
aI0
aI0
aI0
aI0
aI0
aI0
aa(lp669
I0
aI0
aI0
aI0
aI0
aI0
aI0
aI0
aI0
aI0
aI0
aI0
aaa(lp670
(lp671
I1
aI9
aI13
aI25
aI37
aI50
aI63
aI78
aI94
aI108
aI127
aI127
aa(lp672
I0
aI0
aI0
aI0
aI0
aI0
aI0
aI0
aI0
aI0
aI0
aI0
aa(lp673
I0
aI0
aI0
aI0
aI0
aI0
aI0
aI0
aI0
aI0
aI0
aI0
aa(lp674
I0
aI0
aI0
aI0
aI0
aI0
aI0
aI0
aI0
aI0
aI0
aI0
aaa(lp675
(lp676
I0
aI0
aI6
aI20
aI33
aI54
aI72
aI89
aI104
aI126
aI127
aI127
aa(lp677
I0
aI0
aI0
aI0
aI0
aI0
aI0
aI0
aI0
aI0
aI0
aI0
aa(lp678
I0
aI0
aI0
aI0
aI0
aI0
aI0
aI0
aI0
aI0
aI0
aI0
aa(lp679
I0
aI0
aI0
aI0
aI0
aI0
aI0
aI0
aI0
aI0
aI0
aI0
aaaa(lp680
(lp681
I0
aI64
aI75
aI96
aI54
aI0
aI0
aI0
aI0
aI0
aI18
aI4
aa(lp682
I127
aI120
aI104
aI88
aI76
aI70
aI64
aI60
aI52
aI43
aI33
aI17
aa(lp683
I127
aI106
aI93
aI83
aI71
aI58
aI51
aI42
aI36
aI30
aI23
aI12
aa(lp684
I124
aI102
aI85
aI70
aI61
aI54
aI45
aI39
aI34
aI28
aI24
aI16
aaaaI0
aI0
aI0
aI0
aI0
aI0
aI0
aI0
aI0
aI0
aI0
aI0
aI0
aI0
aI0
aI0
aI0
aI0
aI0
aI0
aI0
aI0
aI0
aI0
aI0
aI0
aI0
aI0
aI0
a.