(lp0
(lp1
(lp2
(lp3
(lp4
(lp5
F0.043480301592353
aI63
aI97
aI0
aS'on'
p6
aa(lp7
F0.0188077988023
aI68
aI108
aI0
aS'on'
p8
aa(lp9
F0.00026788921786647
aI60
aI113
aI0
aS'on'
p10
aa(lp11
F3.1450618726685
aI68
aI0
aI0
aS'off'
p12
aa(lp13
F0.00014856747748127
aI60
aI0
aI0
aS'off'
p14
aa(lp15
F0.018715465214882
aI63
aI0
aI0
aS'off'
p16
aa(lp17
F0.27459751256265
aI70
aI118
aI0
aS'on'
p18
aa(lp19
F0.0093269069229791
aI75
aI110
aI0
aS'on'
p20
aa(lp21
F0.00014742515031685
aI67
aI113
aI0
aS'on'
p22
aa(lp23
F3.7357233356852
aI75
aI0
aI0
aS'off'
p24
aa(lp25
F0.028745247930601
aI67
aI0
aI0
aS'off'
p26
aa(lp27
F0.00027183593101654
aI70
aI0
aI0
aS'off'
p28
aa(lp29
F0.15956456751974
aI68
aI98
aI0
aS'on'
p30
aa(lp31
F0.009748216250955
aI65
aI92
aI0
aS'on'
p32
aa(lp33
F0.0092569560865741
aI74
aI97
aI0
aS'on'
p34
aa(lp35
F8.2710474805026
aI68
aI0
aI0
aS'off'
p36
aa(lp37
F0.0092558372180065
aI74
aI0
aI0
aS'off'
p38
aa(lp39
F0.037609804764543
aI65
aI0
aI0
aS'off'
p40
aa(lp41
F0.22822297850144
aI0
aI0
aI0
aS'timeAfterLastHit'
p42
aaa(lp43
(lp44
F0.013879147892112
aI51
aI108
aI0
aS'on'
p45
aa(lp46
F0.019207188278415
aI56
aI114
aI0
aS'on'
p47
aa(lp48
F0.00023008872085484
aI48
aI112
aI0
aS'on'
p49
aa(lp50
F3.1741002527251
aI51
aI0
aI0
aS'off'
p51
aa(lp52
F0.037737640800515
aI48
aI0
aI0
aS'off'
p53
aa(lp54
F0.047070873056327
aI56
aI0
aI0
aS'off'
p55
aa(lp56
F0.27464182297263
aI63
aI113
aI0
aS'on'
p57
aa(lp58
F0.000280140428913
aI55
aI106
aI0
aS'on'
p59
aa(lp60
F0.00010490284785192
aI58
aI118
aI0
aS'on'
p61
aa(lp62
F3.6052898286871
aI58
aI0
aI0
aS'off'
p63
aa(lp64
F0.028259022298698
aI63
aI0
aI0
aS'off'
p65
aa(lp66
F0.019009567135072
aI55
aI0
aI0
aS'off'
p67
aa(lp68
F0.27190527117273
aI62
aI112
aI0
aS'on'
p69
aa(lp70
F0.009159601072497
aI53
aI107
aI0
aS'on'
p71
aa(lp72
F0.00015467963658011
aI56
aI104
aI0
aS'on'
p73
aa(lp74
F8.4889699722744
aI62
aI0
aI0
aS'off'
p75
aa(lp76
F0.0
aI53
aI0
aI0
aS'off'
p77
aa(lp78
F0.0
aI56
aI0
aI0
aS'off'
p79
aa(lp80
F0.010000000000218
aI0
aI0
aI0
aS'timeAfterLastHit'
p81
aaa(lp82
(lp83
F0.081287870630149
aI72
aI99
aI0
aS'on'
p84
aa(lp85
F0.0094077035482769
aI77
aI58
aI0
aS'on'
p86
aa(lp87
F0.0001830881310525
aI68
aI103
aI0
aS'on'
p88
aa(lp89
F5.6327096691475
aI77
aI0
aI0
aS'off'
p90
aa(lp91
F0.00028741885944328
aI72
aI0
aI0
aS'off'
p92
aa(lp93
F0.046991536164569
aI68
aI0
aI0
aS'off'
p94
aa(lp95
F0.18925084386592
aI77
aI104
aI0
aS'on'
p96
aa(lp97
F0.00025182806439261
aI68
aI99
aI0
aS'on'
p98
aa(lp99
F0.00015060489749885
aI72
aI112
aI0
aS'on'
p100
aa(lp101
F0.58554655217813
aI77
aI0
aI0
aS'off'
p102
aa(lp103
F0.028392384379913
aI72
aI0
aI0
aS'off'
p104
aa(lp105
F0.08495441201012
aI68
aI0
aI0
aS'off'
p106
aa(lp107
F0.084741004389798
aI77
aI103
aI0
aS'on'
p108
aa(lp109
F0.00026814547436516
aI72
aI98
aI0
aS'on'
p110
aa(lp111
F0.028893367860292
aI68
aI76
aI0
aS'on'
p112
aa(lp113
F0.49811631330795
aI77
aI0
aI0
aS'off'
p114
aa(lp115
F0.00021855260274606
aI72
aI0
aI0
aS'off'
p116
aa(lp117
F0.037484922976546
aI68
aI0
aI0
aS'off'
p118
aa(lp119
F0.22595922990604
aI72
aI115
aI0
aS'on'
p120
aa(lp121
F0.00027609484277491
aI67
aI95
aI0
aS'on'
p122
aa(lp123
F0.028022653011249
aI63
aI111
aI0
aS'on'
p124
aa(lp125
F0.15142068007208
aI67
aI0
aI0
aS'off'
p126
aa(lp127
F0.018589188453916
aI72
aI0
aI0
aS'off'
p128
aa(lp129
F0.046821242817714
aI63
aI0
aI0
aS'off'
p130
aa(lp131
F0.21977469240755
aI0
aI0
aI0
aS'timeAfterLastHit'
p132
aaaI0
aa(lp133
(lp134
(lp135
F0.0075440362861627
aI65
aI115
aI1
aS'on'
p136
aa(lp137
F1.6151397068725
aI72
aI29
aI1
aS'on'
p138
aa(lp139
F0.046550949813536
aI65
aI0
aI1
aS'off'
p140
aa(lp141
F5.6145248853918
aI70
aI11
aI1
aS'on'
p142
aa(lp143
F0.31068225174477
aI72
aI0
aI1
aS'off'
p144
aa(lp145
F0.21633891880174
aI68
aI20
aI1
aS'on'
p146
aa(lp147
F0.18742050409583
aI70
aI0
aI1
aS'off'
p148
aa(lp149
F0.5541892848114
aI67
aI88
aI1
aS'on'
p150
aa(lp151
F0.019081792172074
aI68
aI0
aI1
aS'off'
p152
aa(lp153
F4.0531526162358
aI65
aI18
aI1
aS'on'
p154
aa(lp155
F0.093087725943406
aI67
aI0
aI1
aS'off'
p156
aa(lp157
F1.6450501157233
aI63
aI45
aI1
aS'on'
p158
aa(lp159
F0.18776260586219
aI65
aI0
aI1
aS'off'
p160
aa(lp161
F0.57311819421648
aI62
aI92
aI1
aS'on'
p162
aa(lp163
F0.1865947578126
aI63
aI0
aI1
aS'off'
p164
aa(lp165
F0.64850629006924
aI60
aI82
aI1
aS'on'
p166
aa(lp167
F0.10357593709705
aI62
aI0
aI1
aS'off'
p168
aa(lp169
F1.9338473417865
aI72
aI103
aI1
aS'on'
p170
aa(lp171
F0.15096203439498
aI60
aI0
aI1
aS'off'
p172
aa(lp173
F5.0714425464448
aI70
aI56
aI1
aS'on'
p174
aa(lp175
F0.2722759664739
aI72
aI0
aI1
aS'off'
p176
aa(lp177
F0.037329132246668
aI68
aI11
aI1
aS'on'
p178
aa(lp179
F0.23574654391632
aI70
aI0
aI1
aS'off'
p180
aa(lp181
F0.5353972822395
aI67
aI83
aI1
aS'on'
p182
aa(lp183
F0.10444246685074
aI68
aI0
aI1
aS'off'
p184
aa(lp185
F3.1953894088101
aI65
aI24
aI1
aS'on'
p186
aa(lp187
F0.53701067944257
aI67
aI0
aI1
aS'off'
p188
aa(lp189
F2.2518871731663
aI67
aI97
aI1
aS'on'
p190
aa(lp191
F0.22504484888577
aI65
aI0
aI1
aS'off'
p192
aa(lp193
F0.61127163165747
aI68
aI72
aI1
aS'on'
p194
aa(lp195
F0.1689553856304
aI67
aI0
aI1
aS'off'
p196
aa(lp197
F0.59667698510384
aI68
aI0
aI1
aS'off'
p198
aa(lp199
F0.010000000000218
aI0
aI0
aI0
aS'timeAfterLastHit'
p200
aaaI0
aI0
aI0
aa(lp201
I0
aI0
aI0
aI0
aa(lp202
(lp203
(lp204
F0.0
aI36
aI97
aI3
aS'on'
p205
aa(lp206
F0.20737886606457
aI36
aI0
aI3
aS'off'
p207
aa(lp208
F0.29262113393543
aI47
aI107
aI3
aS'on'
p209
aa(lp210
F0.14117777486899
aI47
aI0
aI3
aS'off'
p211
aa(lp212
F0.10882222513101
aI36
aI99
aI3
aS'on'
p213
aa(lp214
F0.13178492878887
aI36
aI0
aI3
aS'off'
p215
aa(lp216
F0.11821507121113
aI47
aI114
aI3
aS'on'
p217
aa(lp218
F0.17968509495495
aI47
aI0
aI3
aS'off'
p219
aa(lp220
F0.32031490504505
aI36
aI99
aI3
aS'on'
p221
aa(lp222
F0.12292950876736
aI36
aI0
aI3
aS'off'
p223
aa(lp224
F0.12707049123264
aI47
aI116
aI3
aS'on'
p225
aa(lp226
F0.160426347677
aI47
aI0
aI3
aS'off'
p227
aa(lp228
F0.089573652322997
aI36
aI107
aI3
aS'on'
p229
aa(lp230
F0.14152832850004
aI36
aI0
aI3
aS'off'
p231
aa(lp232
F0.10847167149996
aI47
aI116
aI3
aS'on'
p233
aa(lp234
F0.14184251715233
aI47
aI0
aI3
aS'off'
p235
aa(lp236
F0.10815748284767
aI36
aI110
aI3
aS'on'
p237
aa(lp238
F0.25
aI37
aI114
aI3
aS'on'
p239
aa(lp240
F0.051751116390733
aI36
aI0
aI3
aS'off'
p241
aa(lp242
F0.15440239732834
aI37
aI0
aI3
aS'off'
p243
aa(lp244
F0.043846486280927
aI47
aI121
aI3
aS'on'
p245
aa(lp246
F0.19805477976934
aI47
aI0
aI3
aS'off'
p247
aa(lp248
F0.30194522023066
aI37
aI112
aI3
aS'on'
p249
aa(lp250
F0.14227202669235
aI37
aI0
aI3
aS'off'
p251
aa(lp252
F0.10772797330765
aI47
aI122
aI3
aS'on'
p253
aa(lp254
F0.17026347955925
aI47
aI0
aI3
aS'off'
p255
aa(lp256
F0.079736520440747
aI0
aI0
aI0
aS'timeAfterLastHit'
p257
aaa(lp258
(lp259
F0.0
aI36
aI107
aI3
aS'on'
p260
aa(lp261
F0.10434325648112
aI36
aI0
aI3
aS'off'
p262
aa(lp263
F0.14565674351888
aI46
aI97
aI3
aS'on'
p264
aa(lp265
F0.0
aI47
aI110
aI3
aS'on'
p266
aa(lp267
F0.068145479820487
aI46
aI0
aI3
aS'off'
p268
aa(lp269
F0.0079737819623915
aI47
aI0
aI3
aS'off'
p270
aa(lp271
F0.17388073821712
aI46
aI94
aI3
aS'on'
p272
aa(lp273
F0.0
aI47
aI99
aI3
aS'on'
p274
aa(lp275
F0.075689453498853
aI46
aI0
aI3
aS'off'
p276
aa(lp277
F0.00032653019661666
aI47
aI0
aI3
aS'off'
p278
aa(lp279
F0.17398401630453
aI37
aI99
aI3
aS'on'
p280
aa(lp281
F0.12125343513708
aI37
aI0
aI3
aS'off'
p282
aa(lp283
F0.12874656486292
aI47
aI107
aI3
aS'on'
p284
aa(lp285
F0.0
aI46
aI108
aI3
aS'on'
p286
aa(lp287
F0.037881820849179
aI47
aI0
aI3
aS'off'
p288
aa(lp289
F0.060876727268806
aI46
aI0
aI3
aS'off'
p290
aa(lp291
F0.15124145188202
aI47
aI23
aI3
aS'on'
p292
aa(lp293
F0.0
aI46
aI86
aI3
aS'on'
p294
aa(lp295
F0.037862631620555
aI47
aI0
aI3
aS'off'
p296
aa(lp297
F0.045810005548446
aI46
aI0
aI3
aS'off'
p298
aa(lp299
F0.166327362831
aI37
aI106
aI3
aS'on'
p300
aa(lp301
F0.15118018170961
aI37
aI0
aI3
aS'off'
p302
aa(lp303
F0.098819818290394
aI46
aI120
aI3
aS'on'
p304
aa(lp305
F0.15879568784658
aI46
aI0
aI3
aS'off'
p306
aa(lp307
F0.091204312153423
aI0
aI0
aI0
aS'timeAfterLastHit'
p308
aaa(lp309
(lp310
F0.0
aI36
aI113
aI3
aS'on'
p311
aa(lp312
F0.060341293567035
aI36
aI0
aI3
aS'off'
p313
aa(lp314
F0.18965870643297
aI47
aI106
aI3
aS'on'
p315
aa(lp316
F0.11338810205598
aI47
aI0
aI3
aS'off'
p317
aa(lp318
F0.13661189794402
aI47
aI68
aI3
aS'on'
p319
aa(lp320
F0.098614377970989
aI47
aI0
aI3
aS'off'
p321
aa(lp322
F0.068052288695677
aI36
aI112
aI3
aS'on'
p323
aa(lp324
F0.12173106275077
aI36
aI0
aI3
aS'off'
p325
aa(lp326
F0.21160227058256
aI46
aI108
aI3
aS'on'
p327
aa(lp328
F0.0
aI47
aI113
aI3
aS'on'
p329
aa(lp330
F0.068469085943434
aI47
aI0
aI3
aS'off'
p331
aa(lp332
F0.029875636212637
aI46
aI0
aI3
aS'off'
p333
aa(lp334
F0.15165527784393
aI46
aI79
aI3
aS'on'
p335
aa(lp336
F0.0
aI47
aI90
aI3
aS'on'
p337
aa(lp338
F0.045555207969301
aI46
aI0
aI3
aS'off'
p339
aa(lp340
F0.015246827796545
aI47
aI0
aI3
aS'off'
p341
aa(lp342
F0.18919796423415
aI37
aI107
aI3
aS'on'
p343
aa(lp344
F0.14424320122089
aI37
aI0
aI3
aS'off'
p345
aa(lp346
F0.022423465445778
aI46
aI118
aI3
aS'on'
p347
aa(lp348
F0.15160972746617
aI46
aI0
aI3
aS'off'
p349
aa(lp350
F0.18172360586717
aI0
aI0
aI0
aS'timeAfterLastHit'
p351
aaaI0
aaa(lp352
(lp353
(dp354
S'button'
p355
S'50'
p356
sS'playing'
p357
I0
sa(dp358
g355
S'60'
p359
sg357
I0
sa(dp360
g355
S'70'
p361
sg357
I0
sa(dp362
aa(lp363
(dp364
g355
S'59'
p365
sg357
I0
sa(dp366
a(dp367
a(dp368
aa(lp369
(dp370
a(dp371
a(dp372
a(dp373
aa(lp374
(dp375
g355
S'19'
p376
sg357
I0
sa(dp377
g355
S'29'
p378
sg357
I0
sa(dp379
g355
S'39'
p380
sg357
I0
sa(dp381
aaa(lp382
I60
aI60
aI36
aI36
aa(lp383
(lp384
I0
aI2
aI3
aI5
aI7
aI8
aI10
aa(lp385
I0
aI2
aI3
aI5
aI7
aI8
aI10
aa(lp386
I0
aI2
aI3
aI5
aI7
aI8
aI10
aa(lp387
I0
aI1
aI2
aI3
aI4
aI5
aI6
aI7
aI8
aI9
aI10
aI11
aaa(lp388
(lp389
(lp390
I0
aI0
aI0
aI0
aI0
aI0
aI0
aI0
aI0
aI0
aI0
aI0
aa(lp391
I0
aI0
aI0
aI0
aI0
aI0
aI0
aI0
aI0
aI0
aI0
aI0
aa(lp392
I0
aI0
aI0
aI0
aI0
aI0
aI0
aI0
aI0
aI0
aI0
aI0
aa(lp393
I0
aI0
aI0
aI0
aI0
aI0
aI0
aI0
aI0
aI0
aI0
aI0
aaa(lp394
(lp395
I0
aI0
aI0
aI0
aI0
aI0
aI0
aI0
aI0
aI0
aI0
aI0
aa(lp396
I0
aI0
aI0
aI0
aI0
aI0
aI0
aI0
aI0
aI0
aI0
aI0
aa(lp397
I0
aI0
aI0
aI0
aI0
aI0
aI0
aI0
aI0
aI0
aI0
aI0
aa(lp398
I0
aI0
aI0
aI0
aI0
aI0
aI0
aI0
aI0
aI0
aI0
aI0
aaa(lp399
(lp400
I0
aI0
aI0
aI0
aI0
aI0
aI0
aI0
aI0
aI0
aI0
aI0
aa(lp401
I0
aI0
aI0
aI0
aI0
aI0
aI0
aI0
aI0
aI0
aI0
aI0
aa(lp402
I0
aI0
aI0
aI0
aI0
aI0
aI0
aI0
aI0
aI0
aI0
aI0
aa(lp403
I0
aI0
aI0
aI0
aI0
aI0
aI0
aI0
aI0
aI0
aI0
aI0
aaa(lp404
(lp405
I0
aI0
aI0
aI0
aI0
aI0
aI0
aI0
aI0
aI0
aI0
aI0
aa(lp406
I0
aI0
aI0
aI0
aI0
aI0
aI0
aI0
aI0
aI0
aI0
aI0
aa(lp407
I0
aI0
aI0
aI0
aI0
aI0
aI0
aI0
aI0
aI0
aI0
aI0
aa(lp408
I0
aI0
aI0
aI0
aI0
aI0
aI0
aI0
aI0
aI0
aI0
aI0
aaaa(lp409
(lp410
I0
aI0
aI0
aI0
aI0
aI0
aI0
aI0
aI0
aI0
aI0
aI0
aa(lp411
I0
aI0
aI0
aI0
aI0
aI0
aI0
aI0
aI0
aI0
aI0
aI0
aa(lp412
I0
aI0
aI0
aI0
aI0
aI0
aI0
aI0
aI0
aI0
aI0
aI0
aa(lp413
I0
aI0
aI0
aI0
aI0
aI0
aI0
aI0
aI0
aI0
aI0
aI0
aaaaI0
aI0
aI0
aI0
aI0
aI0
aI0
aI0
aI0
aI0
aI0
aI0
aI0
aI0
aI0
aI0
aI0
aI0
aI0
aI0
aI0
aI0
aI0
aI0
aI0
aI0
aI0
aI0
aI0
aI0
aI0
aI0
aI0
aI0
aI0
aI0
aI0
aI0
aI0
aI0
aI0
aI0
aI0
aI0
aI0
aI0
aI0
aI0
aI0
aI0
aI0
aI0
aI0
aI0
aI0
aI0
aI0
aI0
aI0
aI0
aI0
aI0
aI0
aI0
aI0
aI0
aI0
aI0
aI0
a(lp414
(lp415
(lp416
I0
a(lp417
(lp418
F0.0
aI63
aI114
aI0
aS'on'
p419
aa(lp420
F0.0
aI68
aI121
aI0
aS'on'
p421
aa(lp422
F0.0
aI60
aI107
aI0
aS'on'
p423
aa(lp424
F3.1332842123311
aI63
aI0
aI0
aS'off'
p425
aa(lp426
F0.084589908634371
aI60
aI0
aI0
aS'off'
p427
aa(lp428
F0.037848518625651
aI68
aI0
aI0
aS'off'
p429
aa(lp430
F0.41094402707555
aI75
aI113
aI0
aS'on'
p431
aa(lp432
F0.0
aI70
aI120
aI0
aS'on'
p433
aa(lp434
F0.0
aI67
aI119
aI0
aS'on'
p435
aa(lp436
F3.6191115196707
aI70
aI0
aI0
aS'off'
p437
aa(lp438
F0.03924897183424
aI75
aI0
aI0
aS'off'
p439
aa(lp440
F0.018230595223031
aI67
aI0
aI0
aS'off'
p441
aa(lp442
F0.15674224660537
aI68
aI114
aI0
aS'on'
p443
aa(lp444
F0.0
aI74
aI110
aI0
aS'on'
p445
aa(lp446
F0.0
aI65
aI109
aI0
aS'on'
p447
aa(lp448
F8.2086335714812
aI65
aI0
aI0
aS'off'
p449
aa(lp450
F0.009720017195832
aI68
aI0
aI0
aS'off'
p451
aa(lp452
F0.0090125901415377
aI74
aI0
aI0
aS'off'
p453
aa(lp454
F0.27263382118144
aI0
aI0
aI0
aS'timeAfterLastHit'
p455
aaaI0
aI0
aa(lp456
I0
aI0
aI0
aI0
aa(lp457
I0
aI0
aI0
aI0
aa(lp458
(lp459
(lp460
F0.0
aI36
aI97
aI3
ag205
aa(lp461
F0.20737886606457
aI36
aI0
aI3
ag207
aa(lp462
F0.29262113393543
aI47
aI107
aI3
ag209
aa(lp463
F0.14117777486899
aI47
aI0
aI3
ag211
aa(lp464
F0.10882222513101
aI36
aI99
aI3
ag213
aa(lp465
F0.13178492878887
aI36
aI0
aI3
ag215
aa(lp466
F0.11821507121113
aI47
aI114
aI3
ag217
aa(lp467
F0.17968509495495
aI47
aI0
aI3
ag219
aa(lp468
F0.32031490504505
aI36
aI99
aI3
ag221
aa(lp469
F0.12292950876736
aI36
aI0
aI3
ag223
aa(lp470
F0.12707049123264
aI47
aI116
aI3
ag225
aa(lp471
F0.160426347677
aI47
aI0
aI3
ag227
aa(lp472
F0.089573652322997
aI36
aI107
aI3
ag229
aa(lp473
F0.14152832850004
aI36
aI0
aI3
ag231
aa(lp474
F0.10847167149996
aI47
aI116
aI3
ag233
aa(lp475
F0.14184251715233
aI47
aI0
aI3
ag235
aa(lp476
F0.10815748284767
aI36
aI110
aI3
ag237
aa(lp477
F0.25
aI37
aI114
aI3
ag239
aa(lp478
F0.051751116390733
aI36
aI0
aI3
ag241
aa(lp479
F0.15440239732834
aI37
aI0
aI3
ag243
aa(lp480
F0.043846486280927
aI47
aI121
aI3
ag245
aa(lp481
F0.19805477976934
aI47
aI0
aI3
ag247
aa(lp482
F0.30194522023066
aI37
aI112
aI3
ag249
aa(lp483
F0.14227202669235
aI37
aI0
aI3
ag251
aa(lp484
F0.10772797330765
aI47
aI122
aI3
ag253
aa(lp485
F0.17026347955925
aI47
aI0
aI3
ag255
aa(lp486
F0.079736520440747
aI0
aI0
aI0
ag257
aaaI0
aI0
aI0
aaa(lp487
(lp488
(dp489
g357
I0
sa(dp490
g355
S'60'
p491
sg357
I0
sa(dp492
a(dp493
aa(lp494
(dp495
a(dp496
a(dp497
a(dp498
aa(lp499
(dp500
a(dp501
a(dp502
a(dp503
aa(lp504
(dp505
g355
g376
sg357
I0
sa(dp506
g357
I0
sa(dp507
a(dp508
aaa(lp509
I60
aI60
aI36
aI36
aa(lp510
(lp511
I0
aI2
aI3
aI5
aI7
aI8
aI10
aa(lp512
I0
aI2
aI3
aI5
aI7
aI8
aI10
aa(lp513
I0
aI2
aI3
aI5
aI7
aI8
aI10
aa(lp514
I0
aI1
aI2
aI3
aI4
aI5
aI6
aI7
aI8
aI9
aI10
aI11
aaa(lp515
(lp516
(lp517
I0
aI0
aI0
aI0
aI0
aI0
aI0
aI0
aI0
aI0
aI0
aI0
aa(lp518
I0
aI0
aI0
aI0
aI0
aI0
aI0
aI0
aI0
aI0
aI0
aI0
aa(lp519
I0
aI0
aI0
aI0
aI0
aI0
aI0
aI0
aI0
aI0
aI0
aI0
aa(lp520
I0
aI0
aI0
aI0
aI0
aI0
aI0
aI0
aI0
aI0
aI0
aI0
aaa(lp521
(lp522
I0
aI0
aI0
aI0
aI0
aI0
aI0
aI0
aI0
aI0
aI0
aI0
aa(lp523
I0
aI0
aI0
aI0
aI0
aI0
aI0
aI0
aI0
aI0
aI0
aI0
aa(lp524
I0
aI0
aI0
aI0
aI0
aI0
aI0
aI0
aI0
aI0
aI0
aI0
aa(lp525
I0
aI0
aI0
aI0
aI0
aI0
aI0
aI0
aI0
aI0
aI0
aI0
aaa(lp526
(lp527
I0
aI0
aI0
aI0
aI0
aI0
aI0
aI0
aI0
aI0
aI0
aI0
aa(lp528
I0
aI0
aI0
aI0
aI0
aI0
aI0
aI0
aI0
aI0
aI0
aI0
aa(lp529
I0
aI0
aI0
aI0
aI0
aI0
aI0
aI0
aI0
aI0
aI0
aI0
aa(lp530
I0
aI0
aI0
aI0
aI0
aI0
aI0
aI0
aI0
aI0
aI0
aI0
aaa(lp531
(lp532
I0
aI0
aI0
aI0
aI0
aI0
aI0
aI0
aI0
aI0
aI0
aI0
aa(lp533
I0
aI0
aI0
aI0
aI0
aI0
aI0
aI0
aI0
aI0
aI0
aI0
aa(lp534
I0
aI0
aI0
aI0
aI0
aI0
aI0
aI0
aI0
aI0
aI0
aI0
aa(lp535
I0
aI0
aI0
aI0
aI0
aI0
aI0
aI0
aI0
aI0
aI0
aI0
aaaa(lp536
(lp537
I0
aI0
aI0
aI0
aI0
aI0
aI0
aI0
aI0
aI0
aI0
aI0
aa(lp538
I0
aI0
aI0
aI0
aI0
aI0
aI0
aI0
aI0
aI0
aI0
aI0
aa(lp539
I0
aI0
aI0
aI0
aI0
aI0
aI0
aI0
aI0
aI0
aI0
aI0
aa(lp540
I0
aI0
aI0
aI0
aI0
aI0
aI0
aI0
aI0
aI0
aI0
aI0
aaaaI0
aI0
aI0
aI0
aI0
aI0
aI0
aI0
aI0
aI0
aI0
aI0
aI0
aI0
aI0
aI0
aI0
aI0
aI0
aI0
aI0
aI0
aI0
aI0
aI0
aI0
aI0
aI0
aI0
a.