(lp0
I0
aI0
aI0
aI0
aI0
aI0
aI0
aI0
aI0
aI0
aI0
aI0
aI0
aI0
aI0
aI0
aI0
aI0
aI0
aI0
a(lp1
(lp2
(lp3
(lp4
(lp5
F0.0
aI60
aI103
aI0
aS'on'
p6
aa(lp7
F0.33841775934707
aI60
aI0
aI0
aS'off'
p8
aa(lp9
F0.41158224065293
aI75
aI101
aI0
aS'on'
p10
aa(lp11
F0.24231219552848
aI75
aI0
aI0
aS'off'
p12
aa(lp13
F0.25768780447152
aI60
aI98
aI0
aS'on'
p14
aa(lp15
F0.16119843601814
aI60
aI0
aI0
aS'off'
p16
aa(lp17
F0.08880156398186
aI75
aI115
aI0
aS'on'
p18
aa(lp19
F0.26654188684302
aI75
aI0
aI0
aS'off'
p20
aa(lp21
F0.23345811315698
aI60
aI112
aI0
aS'on'
p22
aa(lp23
F0.35858466563764
aI60
aI0
aI0
aS'off'
p24
aa(lp25
F0.39141533436236
aI75
aI118
aI0
aS'on'
p26
aa(lp27
F0.23110779041986
aI75
aI0
aI0
aS'off'
p28
aa(lp29
F0.26889220958014
aI75
aI116
aI0
aS'on'
p30
aa(lp31
F0.18472542744757
aI75
aI0
aI0
aS'off'
p32
aa(lp33
F0.56527457255243
aI75
aI119
aI0
aS'on'
p34
aa(lp35
F0.21938824675613
aI75
aI0
aI0
aS'off'
p36
aa(lp37
F0.53061175324387
aI75
aI119
aI0
aS'on'
p38
aa(lp39
F0.21999133142822
aI75
aI0
aI0
aS'off'
p40
aa(lp41
F0.53000866857178
aI75
aI119
aI0
aS'on'
p42
aa(lp43
F0.19587320526057
aI75
aI0
aI0
aS'off'
p44
aa(lp45
F0.30412679473943
aI75
aI119
aI0
aS'on'
p46
aa(lp47
F0.20744331062519
aI75
aI0
aI0
aS'off'
p48
aa(lp49
F0.54255668937481
aI75
aI119
aI0
aS'on'
p50
aa(lp51
F0.22036238085002
aI75
aI0
aI0
aS'off'
p52
aa(lp53
F0.52963761914998
aI75
aI123
aI0
aS'on'
p54
aa(lp55
F0.19622545852462
aI75
aI0
aI0
aS'off'
p56
aa(lp57
F0.30377454147538
aI0
aI0
aI0
aS'timeAfterLastHit'
p58
aaa(lp59
(lp60
F0.0
aI77
aI122
aI0
aS'on'
p61
aa(lp62
F0.48095641978671
aI77
aI0
aI0
aS'off'
p63
aa(lp64
F0.21807053216708
aI77
aI112
aI0
aS'on'
p65
aa(lp66
F0.35891732667096
aI77
aI0
aI0
aS'off'
p67
aa(lp68
F0.13912521240172
aI75
aI111
aI0
aS'on'
p69
aa(lp70
F0.27815991798752
aI77
aI100
aI0
aS'on'
p71
aa(lp72
F0.045852424101213
aI75
aI0
aI0
aS'off'
p73
aa(lp74
F0.32332493343029
aI77
aI0
aI0
aS'off'
p75
aa(lp76
F0.21972556481433
aI77
aI121
aI0
aS'on'
p77
aa(lp78
F0.42826682314126
aI77
aI0
aI0
aS'off'
p79
aa(lp80
F0.32348534426319
aI77
aI121
aI0
aS'on'
p81
aa(lp82
F0.40623135768874
aI77
aI0
aI0
aS'off'
p83
aa(lp84
F0.31310990057136
aI77
aI120
aI0
aS'on'
p85
aa(lp86
F0.24170501550498
aI77
aI0
aI0
aS'off'
p87
aa(lp88
F0.23092528857387
aI77
aI120
aI0
aS'on'
p89
aa(lp90
F0.45154493796281
aI77
aI0
aI0
aS'off'
p91
aa(lp92
F0.32388265302234
aI77
aI122
aI0
aS'on'
p93
aa(lp94
F0.39308472348876
aI77
aI0
aI0
aS'off'
p95
aa(lp96
F0.33503762865848
aI77
aI120
aI0
aS'on'
p97
aa(lp98
F0.32331475696947
aI77
aI0
aI0
aS'off'
p99
aa(lp100
F0.16223093107556
aI75
aI119
aI0
aS'on'
p101
aa(lp102
F0.023462978350381
aI76
aI61
aI0
aS'on'
p103
aa(lp104
F0.057487789725201
aI76
aI0
aI0
aS'off'
p105
aa(lp106
F0.32490161263604
aI75
aI0
aI0
aS'off'
p107
aa(lp108
F0.34655101827593
aI75
aI122
aI0
aS'on'
p109
aa(lp110
F0.42909027396627
aI75
aI0
aI0
aS'off'
p111
aa(lp112
F0.26525156157277
aI75
aI123
aI0
aS'on'
p113
aa(lp114
F0.54630307319258
aI75
aI0
aI0
aS'off'
p115
aa(lp116
F0.010000000000218
aI0
aI0
aI0
aS'timeAfterLastHit'
p117
aaaI0
aI0
aa(lp118
(lp119
(lp120
F0.0
aI65
aI96
aI1
aS'on'
p121
aa(lp122
F0.53243221040566
aI65
aI0
aI1
aS'off'
p123
aa(lp124
F0.46756778959434
aI68
aI44
aI1
aS'on'
p125
aa(lp126
F0.47377996111618
aI68
aI0
aI1
aS'off'
p127
aa(lp128
F0.27622003888382
aI70
aI101
aI1
aS'on'
p129
aa(lp130
F0.46281539719166
aI70
aI0
aI1
aS'off'
p131
aa(lp132
F0.28718460280834
aI72
aI49
aI1
aS'on'
p133
aa(lp134
F0.49852953204072
aI72
aI0
aI1
aS'off'
p135
aa(lp136
F0.25147046795928
aI75
aI80
aI1
aS'on'
p137
aa(lp138
F0.43888649083874
aI75
aI0
aI1
aS'off'
p139
aa(lp140
F0.31111350916126
aI77
aI73
aI1
aS'on'
p141
aa(lp142
F0.5672327104644
aI77
aI0
aI1
aS'off'
p143
aa(lp144
F0.1827672895356
aI75
aI44
aI1
aS'on'
p145
aa(lp146
F0.51990647963476
aI75
aI0
aI1
aS'off'
p147
aa(lp148
F0.23009352036524
aI72
aI43
aI1
aS'on'
p149
aa(lp150
F0.55468739409753
aI72
aI0
aI1
aS'off'
p151
aa(lp152
F0.19531260590247
aI70
aI64
aI1
aS'on'
p153
aa(lp154
F0.56585789757082
aI70
aI0
aI1
aS'off'
p155
aa(lp156
F0.43414210242918
aI68
aI87
aI1
aS'on'
p157
aa(lp158
F0.44036509832722
aI68
aI0
aI1
aS'off'
p159
aa(lp160
F0.30963490167278
aI0
aI0
aI0
aS'timeAfterLastHit'
p161
aaa(lp162
(lp163
F0.14879124294384
aI70
aI83
aI1
aS'on'
p164
aa(lp165
F0.52055605936721
aI70
aI0
aI1
aS'off'
p166
aa(lp167
F0.25483319630166
aI72
aI84
aI1
aS'on'
p168
aa(lp169
F0.47476195200397
aI72
aI0
aI1
aS'off'
p170
aa(lp171
F0.28825174534904
aI75
aI71
aI1
aS'on'
p172
aa(lp173
F0.484444098312
aI75
aI0
aI1
aS'off'
p174
aa(lp175
F0.26539891902621
aI77
aI18
aI1
aS'on'
p176
aa(lp177
F0.55717864790086
aI77
aI0
aI1
aS'off'
p178
aa(lp179
F0.27654690028021
aI80
aI70
aI1
aS'on'
p180
aa(lp181
F0.53293372285316
aI80
aI0
aI1
aS'off'
p182
aa(lp183
F0.25545071863417
aI82
aI45
aI1
aS'on'
p184
aa(lp185
F0.58994128843869
aI82
aI0
aI1
aS'off'
p186
aa(lp187
F0.19638516173745
aI80
aI74
aI1
aS'on'
p188
aa(lp189
F0.5681461197014
aI80
aI0
aI1
aS'off'
p190
aa(lp191
F0.22918518672714
aI77
aI29
aI1
aS'on'
p192
aa(lp193
F0.49720897591533
aI77
aI0
aI1
aS'off'
p194
aa(lp195
F0.15113372156065
aI75
aI67
aI1
aS'on'
p196
aa(lp197
F0.61147737314923
aI75
aI0
aI1
aS'off'
p198
aa(lp199
F0.26424219684577
aI72
aI47
aI1
aS'on'
p200
aa(lp201
F0.65929630434493
aI72
aI0
aI1
aS'off'
p202
aa(lp203
F0.17383646860708
aI0
aI0
aI0
aS'timeAfterLastHit'
p204
aaaI0
aI0
aa(lp205
(lp206
(lp207
F0.0
aI41
aI9
aI2
aS'on'
p208
aa(lp209
F0.078317564050849
aI31
aI10
aI2
aS'on'
p210
aa(lp211
F7.1416538750236
aI41
aI0
aI2
aS'off'
p212
aa(lp213
F0.046898447969852
aI31
aI0
aI2
aS'off'
p214
aa(lp215
F0.72838229416357
aI39
aI7
aI2
aS'on'
p216
aa(lp217
F0.10430063778222
aI29
aI26
aI2
aS'on'
p218
aa(lp219
F7.7979187792748
aI39
aI0
aI2
aS'off'
p220
aa(lp221
F0.023129541145863
aI29
aI0
aI2
aS'off'
p222
aa(lp223
F0.079398860589208
aI0
aI0
aI0
aS'timeAfterLastHit'
p224
aaa(lp225
(lp226
F0.0
aI24
aI86
aI2
aS'on'
p227
aa(lp228
F0.44795046054469
aI24
aI0
aI2
aS'off'
p229
aa(lp230
F0.035087234339699
aI27
aI94
aI2
aS'on'
p231
aa(lp232
F0.41689155653603
aI27
aI0
aI2
aS'off'
p233
aa(lp234
F0.081100347899337
aI29
aI72
aI2
aS'on'
p235
aa(lp236
F0.36792911132989
aI29
aI0
aI2
aS'off'
p237
aa(lp238
F0.10504497005104
aI31
aI95
aI2
aS'on'
p239
aa(lp240
F0.30017004621914
aI34
aI104
aI2
aS'on'
p241
aa(lp242
F0.00019672500911838
aI31
aI0
aI2
aS'off'
p243
aa(lp244
F0.3236034880656
aI34
aI0
aI2
aS'off'
p245
aa(lp246
F0.15069417451787
aI36
aI101
aI2
aS'on'
p247
aa(lp248
F0.41801737562264
aI36
aI0
aI2
aS'off'
p249
aa(lp250
F0.12877390739959
aI34
aI111
aI2
aS'on'
p251
aa(lp252
F0.36799194799096
aI34
aI0
aI2
aS'off'
p253
aa(lp254
F0.12664910127569
aI31
aI114
aI2
aS'on'
p255
aa(lp256
F0.16189798920595
aI31
aI0
aI2
aS'off'
p257
aa(lp258
F0.02333782026335
aI29
aI114
aI2
aS'on'
p259
aa(lp260
F0.25402735415992
aI29
aI0
aI2
aS'off'
p261
aa(lp262
F0.2906363895695
aI0
aI0
aI0
aS'timeAfterLastHit'
p263
aaaI0
aI0
aa(lp264
(lp265
(lp266
F0.0
aI36
aI110
aI3
aS'on'
p267
aa(lp268
F0.11084379336376
aI36
aI0
aI3
aS'off'
p269
aa(lp270
F0.88915620663624
aI38
aI112
aI3
aS'on'
p271
aa(lp272
F0.18630394204251
aI38
aI0
aI3
aS'off'
p273
aa(lp274
F0.81369605795749
aI36
aI107
aI3
aS'on'
p275
aa(lp276
F0.13812222510046
aI36
aI0
aI3
aS'off'
p277
aa(lp278
F0.86187777489954
aI38
aI103
aI3
aS'on'
p279
aa(lp280
F0.11504280335657
aI38
aI0
aI3
aS'off'
p281
aa(lp282
F0.88495719664343
aI36
aI98
aI3
aS'on'
p283
aa(lp284
F0.13863779486201
aI36
aI0
aI3
aS'off'
p285
aa(lp286
F0.86136220513799
aI38
aI99
aI3
aS'on'
p287
aa(lp288
F0.1503529092663
aI38
aI0
aI3
aS'off'
p289
aa(lp290
F0.8496470907337
aI36
aI99
aI3
aS'on'
p291
aa(lp292
F0.15073370615437
aI36
aI0
aI3
aS'off'
p293
aa(lp294
F0.84926629384563
aI38
aI103
aI3
aS'on'
p295
aa(lp296
F0.11584862780842
aI38
aI0
aI3
aS'off'
p297
aa(lp298
F0.88415137219158
aI0
aI0
aI0
aS'timeAfterLastHit'
p299
aaa(lp300
(lp301
F0.61874692912261
aI42
aI98
aI3
aS'on'
p302
aa(lp303
F0.12649925167261
aI42
aI0
aI3
aS'off'
p304
aa(lp305
F0.90169252090982
aI41
aI65
aI3
aS'on'
p306
aa(lp307
F0.00030426999001065
aI42
aI8
aI3
aS'on'
p308
aa(lp309
F0.057921985392568
aI41
aI0
aI3
aS'off'
p310
aa(lp311
F0.00025700097103254
aI42
aI0
aI3
aS'off'
p312
aa(lp313
F0.87813174725579
aI42
aI82
aI3
aS'on'
p314
aa(lp315
F0.12787024563022
aI42
aI0
aI3
aS'off'
p316
aa(lp317
F0.92425708935752
aI41
aI98
aI3
aS'on'
p318
aa(lp319
F0.10446934103766
aI41
aI0
aI3
aS'off'
p320
aa(lp321
F0.87983074522253
aI42
aI97
aI3
aS'on'
p322
aa(lp323
F0.12646834415591
aI42
aI0
aI3
aS'off'
p324
aa(lp325
F0.90189453537914
aI41
aI99
aI3
aS'on'
p326
aa(lp327
F0.1035082293638
aI41
aI0
aI3
aS'off'
p328
aa(lp329
F0.91174567462531
aI42
aI95
aI3
aS'on'
p330
aa(lp331
F0.11549641877082
aI42
aI0
aI3
aS'off'
p332
aa(lp333
F0.79690233609381
aI41
aI108
aI3
aS'on'
p334
aa(lp335
F0.11490919584503
aI41
aI0
aI3
aS'off'
p336
aa(lp337
F0.30909413920381
aI0
aI0
aI0
aS'timeAfterLastHit'
p338
aaa(lp339
(lp340
F0.5
aI43
aI101
aI3
aS'on'
p341
aa(lp342
F0.13960013381347
aI43
aI0
aI3
aS'off'
p343
aa(lp344
F1.8603998661865
aI41
aI110
aI3
aS'on'
p345
aa(lp346
F0.41520583529177
aI41
aI0
aI3
aS'off'
p347
aa(lp348
F1.0847941647082
aI0
aI0
aI0
aS'timeAfterLastHit'
p349
aaa(lp350
(lp351
F0.75
aI48
aI105
aI3
aS'on'
p352
aa(lp353
F0.15085986596523
aI48
aI0
aI3
aS'off'
p354
aa(lp355
F0.34914013403477
aI48
aI108
aI3
aS'on'
p356
aa(lp357
F0.13838531381452
aI48
aI0
aI3
aS'off'
p358
aa(lp359
F0.61161468618548
aI48
aI105
aI3
aS'on'
p360
aa(lp361
F0.12700164422176
aI48
aI0
aI3
aS'off'
p362
aa(lp363
F0.62299835577824
aI48
aI98
aI3
aS'on'
p364
aa(lp365
F0.12655287821599
aI48
aI0
aI3
aS'off'
p366
aa(lp367
F0.62344712178401
aI48
aI109
aI3
aS'on'
p368
aa(lp369
F0.11580968438102
aI48
aI0
aI3
aS'off'
p370
aa(lp371
F0.63419031561898
aI48
aI108
aI3
aS'on'
p372
aa(lp373
F0.12676373130216
aI48
aI0
aI3
aS'off'
p374
aa(lp375
F0.62323626869784
aI48
aI109
aI3
aS'on'
p376
aa(lp377
F0.1389230453517
aI48
aI0
aI3
aS'off'
p378
aa(lp379
F0.6110769546483
aI48
aI105
aI3
aS'on'
p380
aa(lp381
F0.12850425329771
aI48
aI0
aI3
aS'off'
p382
aa(lp383
F0.62149574670229
aI48
aI108
aI3
aS'on'
p384
aa(lp385
F0.11480366758133
aI48
aI0
aI3
aS'off'
p386
aa(lp387
F0.88519633241867
aI48
aI110
aI3
aS'on'
p388
aa(lp389
F0.15085531287241
aI48
aI0
aI3
aS'off'
p390
aa(lp391
F0.59914468712759
aI48
aI101
aI3
aS'on'
p392
aa(lp393
F0.15053405778963
aI48
aI0
aI3
aS'off'
p394
aa(lp395
F0.34946594221037
aI47
aI111
aI3
aS'on'
p396
aa(lp397
F0.13893616064706
aI47
aI0
aI3
aS'off'
p398
aa(lp399
F0.61106383935294
aI47
aI105
aI3
aS'on'
p400
aa(lp401
F0.10390487915265
aI47
aI0
aI3
aS'off'
p402
aa(lp403
F0.64609512084735
aI47
aI105
aI3
aS'on'
p404
aa(lp405
F0.10457980052843
aI47
aI0
aI3
aS'off'
p406
aa(lp407
F0.64542019947157
aI47
aI111
aI3
aS'on'
p408
aa(lp409
F0.11545970655789
aI47
aI0
aI3
aS'off'
p410
aa(lp411
F0.63454029344211
aI47
aI110
aI3
aS'on'
p412
aa(lp413
F0.11598282131808
aI47
aI0
aI3
aS'off'
p414
aa(lp415
F0.63401717868192
aI47
aI107
aI3
aS'on'
p416
aa(lp417
F0.10448925833066
aI47
aI0
aI3
aS'off'
p418
aa(lp419
F0.64551074166934
aI47
aI109
aI3
aS'on'
p420
aa(lp421
F0.10392974536376
aI47
aI0
aI3
aS'off'
p422
aa(lp423
F0.64607025463624
aI47
aI112
aI3
aS'on'
p424
aa(lp425
F0.11598487341644
aI47
aI0
aI3
aS'off'
p426
aa(lp427
F0.63401512658356
aI47
aI109
aI3
aS'on'
p428
aa(lp429
F0.12727870400954
aI47
aI0
aI3
aS'off'
p430
aa(lp431
F0.62272129599046
aI47
aI114
aI3
aS'on'
p432
aa(lp433
F0.16164825018586
aI47
aI0
aI3
aS'off'
p434
aa(lp435
F0.33835174981414
aI0
aI0
aI0
aS'timeAfterLastHit'
p436
aaaaa(lp437
(lp438
(dp439
S'button'
p440
S'50'
p441
sS'playing'
p442
I0
sa(dp443
g440
S'60'
p444
sg442
I0
sa(dp445
a(dp446
aa(lp447
(dp448
g440
S'59'
p449
sg442
I0
sa(dp450
g440
S'69'
p451
sg442
I0
sa(dp452
a(dp453
aa(lp454
(dp455
g440
S'10'
p456
sg442
I0
sa(dp457
g440
S'20'
p458
sg442
I0
sa(dp459
a(dp460
aa(lp461
(dp462
g440
S'19'
p463
sg442
I1
sa(dp464
g440
S'29'
p465
sg442
I01
sa(dp466
g440
S'39'
p467
sg442
I0
sa(dp468
g440
S'49'
p469
sg442
I0
saaa(lp470
I60
aI60
aI36
aI36
aa(lp471
(lp472
I0
aI2
aI3
aI5
aI7
aI8
aI10
aa(lp473
I0
aI2
aI3
aI5
aI7
aI8
aI10
aa(lp474
I0
aI2
aI3
aI5
aI7
aI8
aI10
aa(lp475
I0
aI1
aI2
aI3
aI4
aI5
aI6
aI7
aI8
aI9
aI10
aI11
aaa(lp476
(lp477
(lp478
I1
aI14
aI22
aI34
aI46
aI56
aI66
aI75
aI85
aI96
aI113
aI127
aa(lp479
I0
aI0
aI0
aI0
aI0
aI0
aI0
aI0
aI0
aI0
aI0
aI0
aa(lp480
I0
aI0
aI0
aI0
aI0
aI0
aI0
aI0
aI0
aI0
aI0
aI0
aa(lp481
I0
aI0
aI0
aI0
aI0
aI0
aI0
aI0
aI0
aI0
aI0
aI0
aaa(lp482
(lp483
I0
aI0
aI3
aI10
aI19
aI30
aI44
aI56
aI71
aI96
aI115
aI127
aa(lp484
I0
aI0
aI0
aI0
aI0
aI0
aI0
aI0
aI0
aI0
aI0
aI0
aa(lp485
I0
aI0
aI0
aI0
aI0
aI0
aI0
aI0
aI0
aI0
aI0
aI0
aa(lp486
I0
aI0
aI0
aI0
aI0
aI0
aI0
aI0
aI0
aI0
aI0
aI0
aaa(lp487
(lp488
I1
aI9
aI13
aI25
aI37
aI50
aI63
aI78
aI94
aI108
aI127
aI127
aa(lp489
I0
aI0
aI0
aI0
aI0
aI0
aI0
aI0
aI0
aI0
aI0
aI0
aa(lp490
I0
aI0
aI0
aI0
aI0
aI0
aI0
aI0
aI0
aI0
aI0
aI0
aa(lp491
I0
aI0
aI0
aI0
aI0
aI0
aI0
aI0
aI0
aI0
aI0
aI0
aaa(lp492
(lp493
I0
aI0
aI6
aI20
aI33
aI54
aI72
aI89
aI104
aI126
aI127
aI127
aa(lp494
I0
aI0
aI0
aI0
aI0
aI0
aI0
aI0
aI0
aI0
aI0
aI0
aa(lp495
I0
aI0
aI0
aI0
aI0
aI0
aI0
aI0
aI0
aI0
aI0
aI0
aa(lp496
I0
aI0
aI0
aI0
aI0
aI0
aI0
aI0
aI0
aI0
aI0
aI0
aaaa(lp497
(lp498
I0
aI64
aI75
aI96
aI54
aI0
aI0
aI0
aI0
aI0
aI18
aI4
aa(lp499
I127
aI120
aI104
aI88
aI76
aI70
aI64
aI60
aI52
aI43
aI33
aI17
aa(lp500
I127
aI106
aI93
aI83
aI71
aI58
aI51
aI42
aI36
aI30
aI23
aI12
aa(lp501
I124
aI102
aI85
aI70
aI61
aI54
aI45
aI39
aI34
aI28
aI24
aI16
aaaa(lp502
(lp503
(lp504
(lp505
(lp506
F0.0
aI60
aI103
aI0
ag6
aa(lp507
F0.33841775934707
aI60
aI0
aI0
ag8
aa(lp508
F0.41158224065293
aI75
aI101
aI0
ag10
aa(lp509
F0.24231219552848
aI75
aI0
aI0
ag12
aa(lp510
F0.25768780447152
aI60
aI98
aI0
ag14
aa(lp511
F0.16119843601814
aI60
aI0
aI0
ag16
aa(lp512
F0.08880156398186
aI75
aI115
aI0
ag18
aa(lp513
F0.26654188684302
aI75
aI0
aI0
ag20
aa(lp514
F0.23345811315698
aI60
aI112
aI0
ag22
aa(lp515
F0.35858466563764
aI60
aI0
aI0
ag24
aa(lp516
F0.39141533436236
aI75
aI118
aI0
ag26
aa(lp517
F0.23110779041986
aI75
aI0
aI0
ag28
aa(lp518
F0.26889220958014
aI75
aI116
aI0
ag30
aa(lp519
F0.18472542744757
aI75
aI0
aI0
ag32
aa(lp520
F0.56527457255243
aI75
aI119
aI0
ag34
aa(lp521
F0.21938824675613
aI75
aI0
aI0
ag36
aa(lp522
F0.53061175324387
aI75
aI119
aI0
ag38
aa(lp523
F0.21999133142822
aI75
aI0
aI0
ag40
aa(lp524
F0.53000866857178
aI75
aI119
aI0
ag42
aa(lp525
F0.19587320526057
aI75
aI0
aI0
ag44
aa(lp526
F0.30412679473943
aI75
aI119
aI0
ag46
aa(lp527
F0.20744331062519
aI75
aI0
aI0
ag48
aa(lp528
F0.54255668937481
aI75
aI119
aI0
ag50
aa(lp529
F0.22036238085002
aI75
aI0
aI0
ag52
aa(lp530
F0.52963761914998
aI75
aI123
aI0
ag54
aa(lp531
F0.19622545852462
aI75
aI0
aI0
ag56
aa(lp532
F0.30377454147538
aI0
aI0
aI0
ag58
aaa(lp533
(lp534
F0.0
aI77
aI122
aI0
ag61
aa(lp535
F0.48095641978671
aI77
aI0
aI0
ag63
aa(lp536
F0.21807053216708
aI77
aI112
aI0
ag65
aa(lp537
F0.35891732667096
aI77
aI0
aI0
ag67
aa(lp538
F0.13912521240172
aI75
aI111
aI0
ag69
aa(lp539
F0.27815991798752
aI77
aI100
aI0
ag71
aa(lp540
F0.045852424101213
aI75
aI0
aI0
ag73
aa(lp541
F0.32332493343029
aI77
aI0
aI0
ag75
aa(lp542
F0.21972556481433
aI77
aI121
aI0
ag77
aa(lp543
F0.42826682314126
aI77
aI0
aI0
ag79
aa(lp544
F0.32348534426319
aI77
aI121
aI0
ag81
aa(lp545
F0.40623135768874
aI77
aI0
aI0
ag83
aa(lp546
F0.31310990057136
aI77
aI120
aI0
ag85
aa(lp547
F0.24170501550498
aI77
aI0
aI0
ag87
aa(lp548
F0.23092528857387
aI77
aI120
aI0
ag89
aa(lp549
F0.45154493796281
aI77
aI0
aI0
ag91
aa(lp550
F0.32388265302234
aI77
aI122
aI0
ag93
aa(lp551
F0.39308472348876
aI77
aI0
aI0
ag95
aa(lp552
F0.33503762865848
aI77
aI120
aI0
ag97
aa(lp553
F0.32331475696947
aI77
aI0
aI0
ag99
aa(lp554
F0.16223093107556
aI75
aI119
aI0
ag101
aa(lp555
F0.023462978350381
aI76
aI61
aI0
ag103
aa(lp556
F0.057487789725201
aI76
aI0
aI0
ag105
aa(lp557
F0.32490161263604
aI75
aI0
aI0
ag107
aa(lp558
F0.34655101827593
aI75
aI122
aI0
ag109
aa(lp559
F0.42909027396627
aI75
aI0
aI0
ag111
aa(lp560
F0.26525156157277
aI75
aI123
aI0
ag113
aa(lp561
F0.54630307319258
aI75
aI0
aI0
ag115
aa(lp562
F0.010000000000218
aI0
aI0
aI0
ag117
aaa(lp563
(lp564
F0.0
aI72
aI0
aI0
aS'off'
p565
aa(lp566
F0.0028233453394932
aI72
aI117
aI0
aS'on'
p567
aa(lp568
F0.12585900810154
aI72
aI0
aI0
aS'off'
p569
aa(lp570
F0.185773527739
aI72
aI110
aI0
aS'on'
p571
aa(lp572
F0.13863522089378
aI72
aI0
aI0
aS'off'
p573
aa(lp574
F0.1976139638673
aI72
aI102
aI0
aS'on'
p575
aa(lp576
F0.1267382238093
aI72
aI0
aI0
aS'off'
p577
aa(lp578
F0.19699998626947
aI72
aI98
aI0
aS'on'
p579
aa(lp580
F0.12695918038389
aI72
aI0
aI0
aS'off'
p581
aa(lp582
F0.20897308567783
aI72
aI97
aI0
aS'on'
p583
aa(lp584
F0.12754674606367
aI72
aI0
aI0
aS'off'
p585
aa(lp586
F0.21926996585262
aI72
aI105
aI0
aS'on'
p587
aa(lp588
F0.11631836590368
aI72
aI0
aI0
aS'off'
p589
aa(lp590
F0.23154010425969
aI72
aI99
aI0
aS'on'
p591
aa(lp592
F0.11625267664931
aI72
aI0
aI0
aS'off'
p593
aa(lp594
F0.20810711794275
aI72
aI98
aI0
aS'on'
p595
aa(lp596
F0.12637787935364
aI72
aI0
aI0
aS'off'
p597
aa(lp598
F0.20779154151114
aI72
aI101
aI0
aS'on'
p599
aa(lp600
F0.13923128686019
aI72
aI0
aI0
aS'off'
p601
aa(lp602
F0.19583997586506
aI72
aI99
aI0
aS'on'
p603
aa(lp604
F0.12714120679811
aI72
aI0
aI0
aS'off'
p605
aa(lp606
F0.20793107534064
aI72
aI99
aI0
aS'on'
p607
aa(lp608
F0.1284643899653
aI72
aI0
aI0
aS'off'
p609
aa(lp610
F0.17344435170526
aI72
aI112
aI0
aS'on'
p611
aa(lp612
F0.16271036135549
aI72
aI0
aI0
aS'off'
p613
aa(lp614
F0.20165741249184
aI0
aI0
aI0
aS'timeAfterLastHit'
p615
aaa(lp616
(lp617
F0.14480641084447
aI60
aI70
aI0
aS'on'
p618
aa(lp619
F0.69232725671918
aI63
aI89
aI0
aS'on'
p620
aa(lp621
F0.057673800924931
aI60
aI0
aI0
aS'off'
p622
aa(lp623
F0.62379244100794
aI65
aI92
aI0
aS'on'
p624
aa(lp625
F0.058219807194291
aI63
aI0
aI0
aS'off'
p626
aa(lp627
F0.58800587240148
aI67
aI94
aI0
aS'on'
p628
aa(lp629
F0.080271183041077
aI65
aI0
aI0
aS'off'
p630
aa(lp631
F0.54226353629019
aI68
aI105
aI0
aS'on'
p632
aa(lp633
F0.046732862665522
aI67
aI0
aI0
aS'off'
p634
aa(lp635
F0.57610218830723
aI67
aI105
aI0
aS'on'
p636
aa(lp637
F0.13975515788934
aI68
aI0
aI0
aS'off'
p638
aa(lp639
F0.50895163221867
aI65
aI97
aI0
aS'on'
p640
aa(lp641
F0.069991637346902
aI67
aI0
aI0
aS'off'
p642
aa(lp643
F0.62542459099041
aI65
aI0
aI0
aS'off'
p644
aa(lp645
F0.00024167878564185
aI63
aI114
aI0
aS'on'
p646
aa(lp647
F0.60018187522655
aI60
aI100
aI0
aS'on'
p648
aa(lp649
F0.14997189124824
aI63
aI0
aI0
aS'off'
p650
aa(lp651
F0.46247830911034
aI58
aI114
aI0
aS'on'
p652
aa(lp653
F0.081742563959779
aI60
aI0
aI0
aS'off'
p654
aa(lp655
F7.9410653038276
aI58
aI0
aI0
aS'off'
p656
aa(lp657
F0.010000000000218
aI0
aI0
aI0
aS'timeAfterLastHit'
p658
aaaa(lp659
(lp660
(lp661
F0.0
aI65
aI96
aI1
ag121
aa(lp662
F0.53243221040566
aI65
aI0
aI1
ag123
aa(lp663
F0.46756778959434
aI68
aI44
aI1
ag125
aa(lp664
F0.47377996111618
aI68
aI0
aI1
ag127
aa(lp665
F0.27622003888382
aI70
aI101
aI1
ag129
aa(lp666
F0.46281539719166
aI70
aI0
aI1
ag131
aa(lp667
F0.28718460280834
aI72
aI49
aI1
ag133
aa(lp668
F0.49852953204072
aI72
aI0
aI1
ag135
aa(lp669
F0.25147046795928
aI75
aI80
aI1
ag137
aa(lp670
F0.43888649083874
aI75
aI0
aI1
ag139
aa(lp671
F0.31111350916126
aI77
aI73
aI1
ag141
aa(lp672
F0.5672327104644
aI77
aI0
aI1
ag143
aa(lp673
F0.1827672895356
aI75
aI44
aI1
ag145
aa(lp674
F0.51990647963476
aI75
aI0
aI1
ag147
aa(lp675
F0.23009352036524
aI72
aI43
aI1
ag149
aa(lp676
F0.55468739409753
aI72
aI0
aI1
ag151
aa(lp677
F0.19531260590247
aI70
aI64
aI1
ag153
aa(lp678
F0.56585789757082
aI70
aI0
aI1
ag155
aa(lp679
F0.43414210242918
aI68
aI87
aI1
ag157
aa(lp680
F0.44036509832722
aI68
aI0
aI1
ag159
aa(lp681
F0.30963490167278
aI0
aI0
aI0
ag161
aaa(lp682
(lp683
F0.14879124294384
aI70
aI83
aI1
ag164
aa(lp684
F0.52055605936721
aI70
aI0
aI1
ag166
aa(lp685
F0.25483319630166
aI72
aI84
aI1
ag168
aa(lp686
F0.47476195200397
aI72
aI0
aI1
ag170
aa(lp687
F0.28825174534904
aI75
aI71
aI1
ag172
aa(lp688
F0.484444098312
aI75
aI0
aI1
ag174
aa(lp689
F0.26539891902621
aI77
aI18
aI1
ag176
aa(lp690
F0.55717864790086
aI77
aI0
aI1
ag178
aa(lp691
F0.27654690028021
aI80
aI70
aI1
ag180
aa(lp692
F0.53293372285316
aI80
aI0
aI1
ag182
aa(lp693
F0.25545071863417
aI82
aI45
aI1
ag184
aa(lp694
F0.58994128843869
aI82
aI0
aI1
ag186
aa(lp695
F0.19638516173745
aI80
aI74
aI1
ag188
aa(lp696
F0.5681461197014
aI80
aI0
aI1
ag190
aa(lp697
F0.22918518672714
aI77
aI29
aI1
ag192
aa(lp698
F0.49720897591533
aI77
aI0
aI1
ag194
aa(lp699
F0.15113372156065
aI75
aI67
aI1
ag196
aa(lp700
F0.61147737314923
aI75
aI0
aI1
ag198
aa(lp701
F0.26424219684577
aI72
aI47
aI1
ag200
aa(lp702
F0.65929630434493
aI72
aI0
aI1
ag202
aa(lp703
F0.17383646860708
aI0
aI0
aI0
ag204
aaaI0
aI0
aa(lp704
(lp705
(lp706
F0.0
aI41
aI9
aI2
ag208
aa(lp707
F0.078317564050849
aI31
aI10
aI2
ag210
aa(lp708
F7.1416538750236
aI41
aI0
aI2
ag212
aa(lp709
F0.046898447969852
aI31
aI0
aI2
ag214
aa(lp710
F0.72838229416357
aI39
aI7
aI2
ag216
aa(lp711
F0.10430063778222
aI29
aI26
aI2
ag218
aa(lp712
F7.7979187792748
aI39
aI0
aI2
ag220
aa(lp713
F0.023129541145863
aI29
aI0
aI2
ag222
aa(lp714
F0.079398860589208
aI0
aI0
aI0
ag224
aaa(lp715
(lp716
F0.0
aI24
aI86
aI2
ag227
aa(lp717
F0.44795046054469
aI24
aI0
aI2
ag229
aa(lp718
F0.035087234339699
aI27
aI94
aI2
ag231
aa(lp719
F0.41689155653603
aI27
aI0
aI2
ag233
aa(lp720
F0.081100347899337
aI29
aI72
aI2
ag235
aa(lp721
F0.36792911132989
aI29
aI0
aI2
ag237
aa(lp722
F0.10504497005104
aI31
aI95
aI2
ag239
aa(lp723
F0.30017004621914
aI34
aI104
aI2
ag241
aa(lp724
F0.00019672500911838
aI31
aI0
aI2
ag243
aa(lp725
F0.3236034880656
aI34
aI0
aI2
ag245
aa(lp726
F0.15069417451787
aI36
aI101
aI2
ag247
aa(lp727
F0.41801737562264
aI36
aI0
aI2
ag249
aa(lp728
F0.12877390739959
aI34
aI111
aI2
ag251
aa(lp729
F0.36799194799096
aI34
aI0
aI2
ag253
aa(lp730
F0.12664910127569
aI31
aI114
aI2
ag255
aa(lp731
F0.16189798920595
aI31
aI0
aI2
ag257
aa(lp732
F0.02333782026335
aI29
aI114
aI2
ag259
aa(lp733
F0.25402735415992
aI29
aI0
aI2
ag261
aa(lp734
F0.2906363895695
aI0
aI0
aI0
ag263
aaa(lp735
(lp736
F0.0
aI24
aI61
aI2
aS'on'
p737
aa(lp738
F0.67370443845903
aI27
aI96
aI2
aS'on'
p739
aa(lp740
F0.13794041539404
aI24
aI0
aI2
aS'off'
p741
aa(lp742
F0.68278286634541
aI29
aI27
aI2
aS'on'
p743
aa(lp744
F0.3603509184677
aI27
aI0
aI2
aS'off'
p745
aa(lp746
F0.63372709489886
aI31
aI5
aI2
aS'on'
p747
aa(lp748
F0.26593679650978
aI29
aI0
aI2
aS'off'
p749
aa(lp750
F0.75208408543676
aI34
aI33
aI2
aS'on'
p751
aa(lp752
F0.4152086215463
aI31
aI0
aI2
aS'off'
p753
aa(lp754
F0.69487069307797
aI36
aI32
aI2
aS'on'
p755
aa(lp756
F0.12608452882523
aI34
aI0
aI2
aS'off'
p757
aa(lp758
F0.82003881633864
aI34
aI82
aI2
aS'on'
p759
aa(lp760
F0.17373703441808
aI36
aI0
aI2
aS'off'
p761
aa(lp762
F0.19673699042869
aI31
aI70
aI2
aS'on'
p763
aa(lp764
F0.20723515312966
aI34
aI0
aI2
aS'off'
p765
aa(lp766
F0.49701755805563
aI29
aI21
aI2
aS'on'
p767
aa(lp768
F0.080231543050104
aI31
aI0
aI2
aS'off'
p769
aa(lp770
F0.21988254811276
aI27
aI83
aI2
aS'on'
p771
aa(lp772
F0.32277661633907
aI29
aI0
aI2
aS'off'
p773
aa(lp774
F0.72965328116607
aI27
aI0
aI2
aS'off'
p775
aa(lp776
F0.010000000000218
aI0
aI0
aI0
aS'timeAfterLastHit'
p777
aaaI0
aa(lp778
(lp779
(lp780
F0.0
aI36
aI110
aI3
ag267
aa(lp781
F0.11084379336376
aI36
aI0
aI3
ag269
aa(lp782
F0.88915620663624
aI38
aI112
aI3
ag271
aa(lp783
F0.18630394204251
aI38
aI0
aI3
ag273
aa(lp784
F0.81369605795749
aI36
aI107
aI3
ag275
aa(lp785
F0.13812222510046
aI36
aI0
aI3
ag277
aa(lp786
F0.86187777489954
aI38
aI103
aI3
ag279
aa(lp787
F0.11504280335657
aI38
aI0
aI3
ag281
aa(lp788
F0.88495719664343
aI36
aI98
aI3
ag283
aa(lp789
F0.13863779486201
aI36
aI0
aI3
ag285
aa(lp790
F0.86136220513799
aI38
aI99
aI3
ag287
aa(lp791
F0.1503529092663
aI38
aI0
aI3
ag289
aa(lp792
F0.8496470907337
aI36
aI99
aI3
ag291
aa(lp793
F0.15073370615437
aI36
aI0
aI3
ag293
aa(lp794
F0.84926629384563
aI38
aI103
aI3
ag295
aa(lp795
F0.11584862780842
aI38
aI0
aI3
ag297
aa(lp796
F0.88415137219158
aI0
aI0
aI0
ag299
aaa(lp797
(lp798
F0.61874692912261
aI42
aI98
aI3
ag302
aa(lp799
F0.12649925167261
aI42
aI0
aI3
ag304
aa(lp800
F0.90169252090982
aI41
aI65
aI3
ag306
aa(lp801
F0.00030426999001065
aI42
aI8
aI3
ag308
aa(lp802
F0.057921985392568
aI41
aI0
aI3
ag310
aa(lp803
F0.00025700097103254
aI42
aI0
aI3
ag312
aa(lp804
F0.87813174725579
aI42
aI82
aI3
ag314
aa(lp805
F0.12787024563022
aI42
aI0
aI3
ag316
aa(lp806
F0.92425708935752
aI41
aI98
aI3
ag318
aa(lp807
F0.10446934103766
aI41
aI0
aI3
ag320
aa(lp808
F0.87983074522253
aI42
aI97
aI3
ag322
aa(lp809
F0.12646834415591
aI42
aI0
aI3
ag324
aa(lp810
F0.90189453537914
aI41
aI99
aI3
ag326
aa(lp811
F0.1035082293638
aI41
aI0
aI3
ag328
aa(lp812
F0.91174567462531
aI42
aI95
aI3
ag330
aa(lp813
F0.11549641877082
aI42
aI0
aI3
ag332
aa(lp814
F0.79690233609381
aI41
aI108
aI3
ag334
aa(lp815
F0.11490919584503
aI41
aI0
aI3
ag336
aa(lp816
F0.30909413920381
aI0
aI0
aI0
ag338
aaa(lp817
(lp818
F0.5
aI43
aI101
aI3
ag341
aa(lp819
F0.13960013381347
aI43
aI0
aI3
ag343
aa(lp820
F1.8603998661865
aI41
aI110
aI3
ag345
aa(lp821
F0.41520583529177
aI41
aI0
aI3
ag347
aa(lp822
F1.0847941647082
aI0
aI0
aI0
ag349
aaa(lp823
(lp824
F0.75
aI48
aI105
aI3
ag352
aa(lp825
F0.15085986596523
aI48
aI0
aI3
ag354
aa(lp826
F0.34914013403477
aI48
aI108
aI3
ag356
aa(lp827
F0.13838531381452
aI48
aI0
aI3
ag358
aa(lp828
F0.61161468618548
aI48
aI105
aI3
ag360
aa(lp829
F0.12700164422176
aI48
aI0
aI3
ag362
aa(lp830
F0.62299835577824
aI48
aI98
aI3
ag364
aa(lp831
F0.12655287821599
aI48
aI0
aI3
ag366
aa(lp832
F0.62344712178401
aI48
aI109
aI3
ag368
aa(lp833
F0.11580968438102
aI48
aI0
aI3
ag370
aa(lp834
F0.63419031561898
aI48
aI108
aI3
ag372
aa(lp835
F0.12676373130216
aI48
aI0
aI3
ag374
aa(lp836
F0.62323626869784
aI48
aI109
aI3
ag376
aa(lp837
F0.1389230453517
aI48
aI0
aI3
ag378
aa(lp838
F0.6110769546483
aI48
aI105
aI3
ag380
aa(lp839
F0.12850425329771
aI48
aI0
aI3
ag382
aa(lp840
F0.62149574670229
aI48
aI108
aI3
ag384
aa(lp841
F0.11480366758133
aI48
aI0
aI3
ag386
aa(lp842
F0.88519633241867
aI48
aI110
aI3
ag388
aa(lp843
F0.15085531287241
aI48
aI0
aI3
ag390
aa(lp844
F0.59914468712759
aI48
aI101
aI3
ag392
aa(lp845
F0.15053405778963
aI48
aI0
aI3
ag394
aa(lp846
F0.34946594221037
aI47
aI111
aI3
ag396
aa(lp847
F0.13893616064706
aI47
aI0
aI3
ag398
aa(lp848
F0.61106383935294
aI47
aI105
aI3
ag400
aa(lp849
F0.10390487915265
aI47
aI0
aI3
ag402
aa(lp850
F0.64609512084735
aI47
aI105
aI3
ag404
aa(lp851
F0.10457980052843
aI47
aI0
aI3
ag406
aa(lp852
F0.64542019947157
aI47
aI111
aI3
ag408
aa(lp853
F0.11545970655789
aI47
aI0
aI3
ag410
aa(lp854
F0.63454029344211
aI47
aI110
aI3
ag412
aa(lp855
F0.11598282131808
aI47
aI0
aI3
ag414
aa(lp856
F0.63401717868192
aI47
aI107
aI3
ag416
aa(lp857
F0.10448925833066
aI47
aI0
aI3
ag418
aa(lp858
F0.64551074166934
aI47
aI109
aI3
ag420
aa(lp859
F0.10392974536376
aI47
aI0
aI3
ag422
aa(lp860
F0.64607025463624
aI47
aI112
aI3
ag424
aa(lp861
F0.11598487341644
aI47
aI0
aI3
ag426
aa(lp862
F0.63401512658356
aI47
aI109
aI3
ag428
aa(lp863
F0.12727870400954
aI47
aI0
aI3
ag430
aa(lp864
F0.62272129599046
aI47
aI114
aI3
ag432
aa(lp865
F0.16164825018586
aI47
aI0
aI3
ag434
aa(lp866
F0.33835174981414
aI0
aI0
aI0
ag436
aaaaa(lp867
(lp868
(dp869
g440
g441
sg442
I0
sa(dp870
g440
g444
sg442
I0
sa(dp871
g440
S'70'
p872
sg442
I1
sa(dp873
g440
S'80'
p874
sg442
I1
saa(lp875
(dp876
g440
g449
sg442
I1
sa(dp877
g440
g451
sg442
I0
sa(dp878
a(dp879
aa(lp880
(dp881
g440
g456
sg442
I0
sa(dp882
g440
g458
sg442
I0
sa(dp883
g440
S'30'
p884
sg442
I01
sa(dp885
aa(lp886
(dp887
g440
g463
sg442
I1
sa(dp888
g440
g465
sg442
I1
sa(dp889
g440
g467
sg442
I0
sa(dp890
g440
g469
sg442
I0
saaa(lp891
I60
aI60
aI36
aI36
aa(lp892
(lp893
I0
aI2
aI3
aI5
aI7
aI8
aI10
aa(lp894
I0
aI2
aI3
aI5
aI7
aI8
aI10
aa(lp895
I0
aI2
aI3
aI5
aI7
aI8
aI10
aa(lp896
I0
aI1
aI2
aI3
aI4
aI5
aI6
aI7
aI8
aI9
aI10
aI11
aaa(lp897
(lp898
(lp899
I1
aI14
aI22
aI34
aI46
aI56
aI66
aI75
aI85
aI96
aI113
aI127
aa(lp900
I0
aI0
aI0
aI0
aI0
aI0
aI0
aI0
aI0
aI0
aI0
aI0
aa(lp901
I0
aI0
aI0
aI0
aI0
aI0
aI0
aI0
aI0
aI0
aI0
aI0
aa(lp902
I0
aI0
aI0
aI0
aI0
aI0
aI0
aI0
aI0
aI0
aI0
aI0
aaa(lp903
(lp904
I0
aI0
aI3
aI10
aI19
aI30
aI44
aI56
aI71
aI96
aI115
aI127
aa(lp905
I0
aI0
aI0
aI0
aI0
aI0
aI0
aI0
aI0
aI0
aI0
aI0
aa(lp906
I0
aI0
aI0
aI0
aI0
aI0
aI0
aI0
aI0
aI0
aI0
aI0
aa(lp907
I0
aI0
aI0
aI0
aI0
aI0
aI0
aI0
aI0
aI0
aI0
aI0
aaa(lp908
(lp909
I1
aI9
aI13
aI25
aI37
aI50
aI63
aI78
aI94
aI108
aI127
aI127
aa(lp910
I0
aI0
aI0
aI0
aI0
aI0
aI0
aI0
aI0
aI0
aI0
aI0
aa(lp911
I0
aI0
aI0
aI0
aI0
aI0
aI0
aI0
aI0
aI0
aI0
aI0
aa(lp912
I0
aI0
aI0
aI0
aI0
aI0
aI0
aI0
aI0
aI0
aI0
aI0
aaa(lp913
(lp914
I0
aI0
aI6
aI20
aI33
aI54
aI72
aI89
aI104
aI126
aI127
aI127
aa(lp915
I0
aI0
aI0
aI0
aI0
aI0
aI0
aI0
aI0
aI0
aI0
aI0
aa(lp916
I0
aI0
aI0
aI0
aI0
aI0
aI0
aI0
aI0
aI0
aI0
aI0
aa(lp917
I0
aI0
aI0
aI0
aI0
aI0
aI0
aI0
aI0
aI0
aI0
aI0
aaaa(lp918
(lp919
I0
aI0
aI127
aI127
aI41
aI0
aI0
aI0
aI0
aI0
aI18
aI4
aa(lp920
I127
aI120
aI104
aI88
aI76
aI70
aI64
aI60
aI52
aI43
aI33
aI17
aa(lp921
I127
aI106
aI93
aI83
aI71
aI58
aI51
aI42
aI36
aI30
aI23
aI12
aa(lp922
I124
aI102
aI85
aI70
aI61
aI54
aI45
aI39
aI34
aI28
aI24
aI16
aaaaI0
aI0
aI0
aI0
aI0
aI0
aI0
aI0
aI0
aI0
aI0
aI0
aI0
aI0
aI0
aI0
aI0
aI0
aI0
aI0
aI0
aI0
aI0
aI0
aI0
aI0
aI0
aI0
aI0
aI0
aI0
aI0
aI0
aI0
aI0
aI0
aI0
aI0
a(lp923
(lp924
(lp925
(lp926
(lp927
F0.0
aI60
aI103
aI0
ag6
aa(lp928
F0.33841775934707
aI60
aI0
aI0
ag8
aa(lp929
F0.41158224065293
aI75
aI101
aI0
ag10
aa(lp930
F0.24231219552848
aI75
aI0
aI0
ag12
aa(lp931
F0.25768780447152
aI60
aI98
aI0
ag14
aa(lp932
F0.16119843601814
aI60
aI0
aI0
ag16
aa(lp933
F0.08880156398186
aI75
aI115
aI0
ag18
aa(lp934
F0.26654188684302
aI75
aI0
aI0
ag20
aa(lp935
F0.23345811315698
aI60
aI112
aI0
ag22
aa(lp936
F0.35858466563764
aI60
aI0
aI0
ag24
aa(lp937
F0.39141533436236
aI75
aI118
aI0
ag26
aa(lp938
F0.23110779041986
aI75
aI0
aI0
ag28
aa(lp939
F0.26889220958014
aI75
aI116
aI0
ag30
aa(lp940
F0.18472542744757
aI75
aI0
aI0
ag32
aa(lp941
F0.56527457255243
aI75
aI119
aI0
ag34
aa(lp942
F0.21938824675613
aI75
aI0
aI0
ag36
aa(lp943
F0.53061175324387
aI75
aI119
aI0
ag38
aa(lp944
F0.21999133142822
aI75
aI0
aI0
ag40
aa(lp945
F0.53000866857178
aI75
aI119
aI0
ag42
aa(lp946
F0.19587320526057
aI75
aI0
aI0
ag44
aa(lp947
F0.30412679473943
aI75
aI119
aI0
ag46
aa(lp948
F0.20744331062519
aI75
aI0
aI0
ag48
aa(lp949
F0.54255668937481
aI75
aI119
aI0
ag50
aa(lp950
F0.22036238085002
aI75
aI0
aI0
ag52
aa(lp951
F0.52963761914998
aI75
aI123
aI0
ag54
aa(lp952
F0.19622545852462
aI75
aI0
aI0
ag56
aa(lp953
F0.30377454147538
aI0
aI0
aI0
ag58
aaa(lp954
(lp955
F0.0
aI77
aI122
aI0
ag61
aa(lp956
F0.48095641978671
aI77
aI0
aI0
ag63
aa(lp957
F0.21807053216708
aI77
aI112
aI0
ag65
aa(lp958
F0.35891732667096
aI77
aI0
aI0
ag67
aa(lp959
F0.13912521240172
aI75
aI111
aI0
ag69
aa(lp960
F0.27815991798752
aI77
aI100
aI0
ag71
aa(lp961
F0.045852424101213
aI75
aI0
aI0
ag73
aa(lp962
F0.32332493343029
aI77
aI0
aI0
ag75
aa(lp963
F0.21972556481433
aI77
aI121
aI0
ag77
aa(lp964
F0.42826682314126
aI77
aI0
aI0
ag79
aa(lp965
F0.32348534426319
aI77
aI121
aI0
ag81
aa(lp966
F0.40623135768874
aI77
aI0
aI0
ag83
aa(lp967
F0.31310990057136
aI77
aI120
aI0
ag85
aa(lp968
F0.24170501550498
aI77
aI0
aI0
ag87
aa(lp969
F0.23092528857387
aI77
aI120
aI0
ag89
aa(lp970
F0.45154493796281
aI77
aI0
aI0
ag91
aa(lp971
F0.32388265302234
aI77
aI122
aI0
ag93
aa(lp972
F0.39308472348876
aI77
aI0
aI0
ag95
aa(lp973
F0.33503762865848
aI77
aI120
aI0
ag97
aa(lp974
F0.32331475696947
aI77
aI0
aI0
ag99
aa(lp975
F0.16223093107556
aI75
aI119
aI0
ag101
aa(lp976
F0.023462978350381
aI76
aI61
aI0
ag103
aa(lp977
F0.057487789725201
aI76
aI0
aI0
ag105
aa(lp978
F0.32490161263604
aI75
aI0
aI0
ag107
aa(lp979
F0.34655101827593
aI75
aI122
aI0
ag109
aa(lp980
F0.42909027396627
aI75
aI0
aI0
ag111
aa(lp981
F0.26525156157277
aI75
aI123
aI0
ag113
aa(lp982
F0.54630307319258
aI75
aI0
aI0
ag115
aa(lp983
F0.010000000000218
aI0
aI0
aI0
ag117
aaaI0
aI0
aa(lp984
(lp985
(lp986
F0.0
aI65
aI96
aI1
ag121
aa(lp987
F0.53243221040566
aI65
aI0
aI1
ag123
aa(lp988
F0.46756778959434
aI68
aI44
aI1
ag125
aa(lp989
F0.47377996111618
aI68
aI0
aI1
ag127
aa(lp990
F0.27622003888382
aI70
aI101
aI1
ag129
aa(lp991
F0.46281539719166
aI70
aI0
aI1
ag131
aa(lp992
F0.28718460280834
aI72
aI49
aI1
ag133
aa(lp993
F0.49852953204072
aI72
aI0
aI1
ag135
aa(lp994
F0.25147046795928
aI75
aI80
aI1
ag137
aa(lp995
F0.43888649083874
aI75
aI0
aI1
ag139
aa(lp996
F0.31111350916126
aI77
aI73
aI1
ag141
aa(lp997
F0.5672327104644
aI77
aI0
aI1
ag143
aa(lp998
F0.1827672895356
aI75
aI44
aI1
ag145
aa(lp999
F0.51990647963476
aI75
aI0
aI1
ag147
aa(lp1000
F0.23009352036524
aI72
aI43
aI1
ag149
aa(lp1001
F0.55468739409753
aI72
aI0
aI1
ag151
aa(lp1002
F0.19531260590247
aI70
aI64
aI1
ag153
aa(lp1003
F0.56585789757082
aI70
aI0
aI1
ag155
aa(lp1004
F0.43414210242918
aI68
aI87
aI1
ag157
aa(lp1005
F0.44036509832722
aI68
aI0
aI1
ag159
aa(lp1006
F0.30963490167278
aI0
aI0
aI0
ag161
aaa(lp1007
(lp1008
F0.14879124294384
aI70
aI83
aI1
ag164
aa(lp1009
F0.52055605936721
aI70
aI0
aI1
ag166
aa(lp1010
F0.25483319630166
aI72
aI84
aI1
ag168
aa(lp1011
F0.47476195200397
aI72
aI0
aI1
ag170
aa(lp1012
F0.28825174534904
aI75
aI71
aI1
ag172
aa(lp1013
F0.484444098312
aI75
aI0
aI1
ag174
aa(lp1014
F0.26539891902621
aI77
aI18
aI1
ag176
aa(lp1015
F0.55717864790086
aI77
aI0
aI1
ag178
aa(lp1016
F0.27654690028021
aI80
aI70
aI1
ag180
aa(lp1017
F0.53293372285316
aI80
aI0
aI1
ag182
aa(lp1018
F0.25545071863417
aI82
aI45
aI1
ag184
aa(lp1019
F0.58994128843869
aI82
aI0
aI1
ag186
aa(lp1020
F0.19638516173745
aI80
aI74
aI1
ag188
aa(lp1021
F0.5681461197014
aI80
aI0
aI1
ag190
aa(lp1022
F0.22918518672714
aI77
aI29
aI1
ag192
aa(lp1023
F0.49720897591533
aI77
aI0
aI1
ag194
aa(lp1024
F0.15113372156065
aI75
aI67
aI1
ag196
aa(lp1025
F0.61147737314923
aI75
aI0
aI1
ag198
aa(lp1026
F0.26424219684577
aI72
aI47
aI1
ag200
aa(lp1027
F0.65929630434493
aI72
aI0
aI1
ag202
aa(lp1028
F0.17383646860708
aI0
aI0
aI0
ag204
aaaI0
aI0
aa(lp1029
(lp1030
(lp1031
F0.0
aI41
aI9
aI2
ag208
aa(lp1032
F0.078317564050849
aI31
aI10
aI2
ag210
aa(lp1033
F7.1416538750236
aI41
aI0
aI2
ag212
aa(lp1034
F0.046898447969852
aI31
aI0
aI2
ag214
aa(lp1035
F0.72838229416357
aI39
aI7
aI2
ag216
aa(lp1036
F0.10430063778222
aI29
aI26
aI2
ag218
aa(lp1037
F7.7979187792748
aI39
aI0
aI2
ag220
aa(lp1038
F0.023129541145863
aI29
aI0
aI2
ag222
aa(lp1039
F0.079398860589208
aI0
aI0
aI0
ag224
aaa(lp1040
(lp1041
F0.0
aI24
aI86
aI2
ag227
aa(lp1042
F0.44795046054469
aI24
aI0
aI2
ag229
aa(lp1043
F0.035087234339699
aI27
aI94
aI2
ag231
aa(lp1044
F0.41689155653603
aI27
aI0
aI2
ag233
aa(lp1045
F0.081100347899337
aI29
aI72
aI2
ag235
aa(lp1046
F0.36792911132989
aI29
aI0
aI2
ag237
aa(lp1047
F0.10504497005104
aI31
aI95
aI2
ag239
aa(lp1048
F0.30017004621914
aI34
aI104
aI2
ag241
aa(lp1049
F0.00019672500911838
aI31
aI0
aI2
ag243
aa(lp1050
F0.3236034880656
aI34
aI0
aI2
ag245
aa(lp1051
F0.15069417451787
aI36
aI101
aI2
ag247
aa(lp1052
F0.41801737562264
aI36
aI0
aI2
ag249
aa(lp1053
F0.12877390739959
aI34
aI111
aI2
ag251
aa(lp1054
F0.36799194799096
aI34
aI0
aI2
ag253
aa(lp1055
F0.12664910127569
aI31
aI114
aI2
ag255
aa(lp1056
F0.16189798920595
aI31
aI0
aI2
ag257
aa(lp1057
F0.02333782026335
aI29
aI114
aI2
ag259
aa(lp1058
F0.25402735415992
aI29
aI0
aI2
ag261
aa(lp1059
F0.2906363895695
aI0
aI0
aI0
ag263
aaaI0
aI0
aa(lp1060
(lp1061
(lp1062
F0.0
aI36
aI110
aI3
ag267
aa(lp1063
F0.11084379336376
aI36
aI0
aI3
ag269
aa(lp1064
F0.88915620663624
aI38
aI112
aI3
ag271
aa(lp1065
F0.18630394204251
aI38
aI0
aI3
ag273
aa(lp1066
F0.81369605795749
aI36
aI107
aI3
ag275
aa(lp1067
F0.13812222510046
aI36
aI0
aI3
ag277
aa(lp1068
F0.86187777489954
aI38
aI103
aI3
ag279
aa(lp1069
F0.11504280335657
aI38
aI0
aI3
ag281
aa(lp1070
F0.88495719664343
aI36
aI98
aI3
ag283
aa(lp1071
F0.13863779486201
aI36
aI0
aI3
ag285
aa(lp1072
F0.86136220513799
aI38
aI99
aI3
ag287
aa(lp1073
F0.1503529092663
aI38
aI0
aI3
ag289
aa(lp1074
F0.8496470907337
aI36
aI99
aI3
ag291
aa(lp1075
F0.15073370615437
aI36
aI0
aI3
ag293
aa(lp1076
F0.84926629384563
aI38
aI103
aI3
ag295
aa(lp1077
F0.11584862780842
aI38
aI0
aI3
ag297
aa(lp1078
F0.88415137219158
aI0
aI0
aI0
ag299
aaa(lp1079
(lp1080
F0.5
aI42
aI98
aI3
aS'on'
p1081
aa(lp1082
F0.15080598954319
aI42
aI0
aI3
aS'off'
p1083
aa(lp1084
F0.59919401045681
aI44
aI97
aI3
aS'on'
p1085
aa(lp1086
F0.092536301768632
aI44
aI0
aI3
aS'off'
p1087
aa(lp1088
F0.40746369823137
aI44
aI95
aI3
aS'on'
p1089
aa(lp1090
F0.12682515272331
aI44
aI0
aI3
aS'off'
p1091
aa(lp1092
F0.62317484727669
aI42
aI108
aI3
aS'on'
p1093
aa(lp1094
F0.16232490744187
aI42
aI0
aI3
aS'off'
p1095
aa(lp1096
F0.83767509255813
aI44
aI108
aI3
aS'on'
p1097
aa(lp1098
F0.12723103474195
aI44
aI0
aI3
aS'off'
p1099
aa(lp1100
F0.37276896525805
aI0
aI0
aI0
aS'timeAfterLastHit'
p1101
aaa(lp1102
(lp1103
F0.5
aI43
aI101
aI3
ag341
aa(lp1104
F0.13960013381347
aI43
aI0
aI3
ag343
aa(lp1105
F1.8603998661865
aI41
aI110
aI3
ag345
aa(lp1106
F0.41520583529177
aI41
aI0
aI3
ag347
aa(lp1107
F1.0847941647082
aI0
aI0
aI0
ag349
aaa(lp1108
(lp1109
F0.75
aI48
aI105
aI3
ag352
aa(lp1110
F0.15085986596523
aI48
aI0
aI3
ag354
aa(lp1111
F0.34914013403477
aI48
aI108
aI3
ag356
aa(lp1112
F0.13838531381452
aI48
aI0
aI3
ag358
aa(lp1113
F0.61161468618548
aI48
aI105
aI3
ag360
aa(lp1114
F0.12700164422176
aI48
aI0
aI3
ag362
aa(lp1115
F0.62299835577824
aI48
aI98
aI3
ag364
aa(lp1116
F0.12655287821599
aI48
aI0
aI3
ag366
aa(lp1117
F0.62344712178401
aI48
aI109
aI3
ag368
aa(lp1118
F0.11580968438102
aI48
aI0
aI3
ag370
aa(lp1119
F0.63419031561898
aI48
aI108
aI3
ag372
aa(lp1120
F0.12676373130216
aI48
aI0
aI3
ag374
aa(lp1121
F0.62323626869784
aI48
aI109
aI3
ag376
aa(lp1122
F0.1389230453517
aI48
aI0
aI3
ag378
aa(lp1123
F0.6110769546483
aI48
aI105
aI3
ag380
aa(lp1124
F0.12850425329771
aI48
aI0
aI3
ag382
aa(lp1125
F0.62149574670229
aI48
aI108
aI3
ag384
aa(lp1126
F0.11480366758133
aI48
aI0
aI3
ag386
aa(lp1127
F0.88519633241867
aI48
aI110
aI3
ag388
aa(lp1128
F0.15085531287241
aI48
aI0
aI3
ag390
aa(lp1129
F0.59914468712759
aI48
aI101
aI3
ag392
aa(lp1130
F0.15053405778963
aI48
aI0
aI3
ag394
aa(lp1131
F0.34946594221037
aI47
aI111
aI3
ag396
aa(lp1132
F0.13893616064706
aI47
aI0
aI3
ag398
aa(lp1133
F0.61106383935294
aI47
aI105
aI3
ag400
aa(lp1134
F0.10390487915265
aI47
aI0
aI3
ag402
aa(lp1135
F0.64609512084735
aI47
aI105
aI3
ag404
aa(lp1136
F0.10457980052843
aI47
aI0
aI3
ag406
aa(lp1137
F0.64542019947157
aI47
aI111
aI3
ag408
aa(lp1138
F0.11545970655789
aI47
aI0
aI3
ag410
aa(lp1139
F0.63454029344211
aI47
aI110
aI3
ag412
aa(lp1140
F0.11598282131808
aI47
aI0
aI3
ag414
aa(lp1141
F0.63401717868192
aI47
aI107
aI3
ag416
aa(lp1142
F0.10448925833066
aI47
aI0
aI3
ag418
aa(lp1143
F0.64551074166934
aI47
aI109
aI3
ag420
aa(lp1144
F0.10392974536376
aI47
aI0
aI3
ag422
aa(lp1145
F0.64607025463624
aI47
aI112
aI3
ag424
aa(lp1146
F0.11598487341644
aI47
aI0
aI3
ag426
aa(lp1147
F0.63401512658356
aI47
aI109
aI3
ag428
aa(lp1148
F0.12727870400954
aI47
aI0
aI3
ag430
aa(lp1149
F0.62272129599046
aI47
aI114
aI3
ag432
aa(lp1150
F0.16164825018586
aI47
aI0
aI3
ag434
aa(lp1151
F0.33835174981414
aI0
aI0
aI0
ag436
aaaaa(lp1152
(lp1153
(dp1154
g440
g441
sg442
I0
sa(dp1155
g440
g444
sg442
I0
sa(dp1156
a(dp1157
aa(lp1158
(dp1159
g440
g449
sg442
I0
sa(dp1160
g440
g451
sg442
I0
sa(dp1161
a(dp1162
aa(lp1163
(dp1164
g440
g456
sg442
I0
sa(dp1165
g440
g458
sg442
I0
sa(dp1166
a(dp1167
aa(lp1168
(dp1169
g440
g463
sg442
I0
sa(dp1170
g440
S'29'
p1171
sg442
I0
sa(dp1172
g440
g467
sg442
I0
sa(dp1173
g440
g469
sg442
I0
saaa(lp1174
I60
aI60
aI36
aI36
aa(lp1175
(lp1176
I0
aI2
aI3
aI5
aI7
aI8
aI10
aa(lp1177
I0
aI2
aI3
aI5
aI7
aI8
aI10
aa(lp1178
I0
aI2
aI3
aI5
aI7
aI8
aI10
aa(lp1179
I0
aI1
aI2
aI3
aI4
aI5
aI6
aI7
aI8
aI9
aI10
aI11
aaa(lp1180
(lp1181
(lp1182
I1
aI14
aI22
aI34
aI46
aI56
aI66
aI75
aI85
aI96
aI113
aI127
aa(lp1183
I0
aI0
aI0
aI0
aI0
aI0
aI0
aI0
aI0
aI0
aI0
aI0
aa(lp1184
I0
aI0
aI0
aI0
aI0
aI0
aI0
aI0
aI0
aI0
aI0
aI0
aa(lp1185
I0
aI0
aI0
aI0
aI0
aI0
aI0
aI0
aI0
aI0
aI0
aI0
aaa(lp1186
(lp1187
I0
aI0
aI3
aI10
aI19
aI30
aI44
aI56
aI71
aI96
aI115
aI127
aa(lp1188
I0
aI0
aI0
aI0
aI0
aI0
aI0
aI0
aI0
aI0
aI0
aI0
aa(lp1189
I0
aI0
aI0
aI0
aI0
aI0
aI0
aI0
aI0
aI0
aI0
aI0
aa(lp1190
I0
aI0
aI0
aI0
aI0
aI0
aI0
aI0
aI0
aI0
aI0
aI0
aaa(lp1191
(lp1192
I1
aI9
aI13
aI25
aI37
aI50
aI63
aI78
aI94
aI108
aI127
aI127
aa(lp1193
I0
aI0
aI0
aI0
aI0
aI0
aI0
aI0
aI0
aI0
aI0
aI0
aa(lp1194
I0
aI0
aI0
aI0
aI0
aI0
aI0
aI0
aI0
aI0
aI0
aI0
aa(lp1195
I0
aI0
aI0
aI0
aI0
aI0
aI0
aI0
aI0
aI0
aI0
aI0
aaa(lp1196
(lp1197
I0
aI0
aI6
aI20
aI33
aI54
aI72
aI89
aI104
aI126
aI127
aI127
aa(lp1198
I0
aI0
aI0
aI0
aI0
aI0
aI0
aI0
aI0
aI0
aI0
aI0
aa(lp1199
I0
aI0
aI0
aI0
aI0
aI0
aI0
aI0
aI0
aI0
aI0
aI0
aa(lp1200
I0
aI0
aI0
aI0
aI0
aI0
aI0
aI0
aI0
aI0
aI0
aI0
aaaa(lp1201
(lp1202
I0
aI64
aI75
aI96
aI54
aI0
aI0
aI0
aI0
aI0
aI18
aI4
aa(lp1203
I127
aI120
aI104
aI88
aI76
aI70
aI64
aI60
aI52
aI43
aI33
aI17
aa(lp1204
I127
aI106
aI93
aI83
aI71
aI58
aI51
aI42
aI36
aI30
aI23
aI12
aa(lp1205
I124
aI102
aI85
aI70
aI61
aI54
aI45
aI39
aI34
aI28
aI24
aI16
aaaaI0
aI0
aI0
aI0
aI0
aI0
aI0
aI0
aI0
a(lp1206
(lp1207
(lp1208
(lp1209
(lp1210
F0.0
aI60
aI103
aI0
ag6
aa(lp1211
F0.33841775934707
aI60
aI0
aI0
ag8
aa(lp1212
F0.41158224065293
aI75
aI101
aI0
ag10
aa(lp1213
F0.24231219552848
aI75
aI0
aI0
ag12
aa(lp1214
F0.25768780447152
aI60
aI98
aI0
ag14
aa(lp1215
F0.16119843601814
aI60
aI0
aI0
ag16
aa(lp1216
F0.08880156398186
aI75
aI115
aI0
ag18
aa(lp1217
F0.26654188684302
aI75
aI0
aI0
ag20
aa(lp1218
F0.23345811315698
aI60
aI112
aI0
ag22
aa(lp1219
F0.35858466563764
aI60
aI0
aI0
ag24
aa(lp1220
F0.39141533436236
aI75
aI118
aI0
ag26
aa(lp1221
F0.23110779041986
aI75
aI0
aI0
ag28
aa(lp1222
F0.26889220958014
aI75
aI116
aI0
ag30
aa(lp1223
F0.18472542744757
aI75
aI0
aI0
ag32
aa(lp1224
F0.56527457255243
aI75
aI119
aI0
ag34
aa(lp1225
F0.21938824675613
aI75
aI0
aI0
ag36
aa(lp1226
F0.53061175324387
aI75
aI119
aI0
ag38
aa(lp1227
F0.21999133142822
aI75
aI0
aI0
ag40
aa(lp1228
F0.53000866857178
aI75
aI119
aI0
ag42
aa(lp1229
F0.19587320526057
aI75
aI0
aI0
ag44
aa(lp1230
F0.30412679473943
aI75
aI119
aI0
ag46
aa(lp1231
F0.20744331062519
aI75
aI0
aI0
ag48
aa(lp1232
F0.54255668937481
aI75
aI119
aI0
ag50
aa(lp1233
F0.22036238085002
aI75
aI0
aI0
ag52
aa(lp1234
F0.52963761914998
aI75
aI123
aI0
ag54
aa(lp1235
F0.19622545852462
aI75
aI0
aI0
ag56
aa(lp1236
F0.30377454147538
aI0
aI0
aI0
ag58
aaaI0
aI0
aI0
aa(lp1237
(lp1238
(lp1239
F0.0
aI65
aI96
aI1
ag121
aa(lp1240
F0.53243221040566
aI65
aI0
aI1
ag123
aa(lp1241
F0.46756778959434
aI68
aI44
aI1
ag125
aa(lp1242
F0.47377996111618
aI68
aI0
aI1
ag127
aa(lp1243
F0.27622003888382
aI70
aI101
aI1
ag129
aa(lp1244
F0.46281539719166
aI70
aI0
aI1
ag131
aa(lp1245
F0.28718460280834
aI72
aI49
aI1
ag133
aa(lp1246
F0.49852953204072
aI72
aI0
aI1
ag135
aa(lp1247
F0.25147046795928
aI75
aI80
aI1
ag137
aa(lp1248
F0.43888649083874
aI75
aI0
aI1
ag139
aa(lp1249
F0.31111350916126
aI77
aI73
aI1
ag141
aa(lp1250
F0.5672327104644
aI77
aI0
aI1
ag143
aa(lp1251
F0.1827672895356
aI75
aI44
aI1
ag145
aa(lp1252
F0.51990647963476
aI75
aI0
aI1
ag147
aa(lp1253
F0.23009352036524
aI72
aI43
aI1
ag149
aa(lp1254
F0.55468739409753
aI72
aI0
aI1
ag151
aa(lp1255
F0.19531260590247
aI70
aI64
aI1
ag153
aa(lp1256
F0.56585789757082
aI70
aI0
aI1
ag155
aa(lp1257
F0.43414210242918
aI68
aI87
aI1
ag157
aa(lp1258
F0.44036509832722
aI68
aI0
aI1
ag159
aa(lp1259
F0.30963490167278
aI0
aI0
aI0
ag161
aaaI0
aI0
aI0
aa(lp1260
(lp1261
(lp1262
F0.0
aI41
aI9
aI2
ag208
aa(lp1263
F0.078317564050849
aI31
aI10
aI2
ag210
aa(lp1264
F7.1416538750236
aI41
aI0
aI2
ag212
aa(lp1265
F0.046898447969852
aI31
aI0
aI2
ag214
aa(lp1266
F0.72838229416357
aI39
aI7
aI2
ag216
aa(lp1267
F0.10430063778222
aI29
aI26
aI2
ag218
aa(lp1268
F7.7979187792748
aI39
aI0
aI2
ag220
aa(lp1269
F0.023129541145863
aI29
aI0
aI2
ag222
aa(lp1270
F0.079398860589208
aI0
aI0
aI0
ag224
aaaI0
aI0
aI0
aa(lp1271
(lp1272
(lp1273
F0.0
aI36
aI110
aI3
ag267
aa(lp1274
F0.11084379336376
aI36
aI0
aI3
ag269
aa(lp1275
F0.88915620663624
aI38
aI112
aI3
ag271
aa(lp1276
F0.18630394204251
aI38
aI0
aI3
ag273
aa(lp1277
F0.81369605795749
aI36
aI107
aI3
ag275
aa(lp1278
F0.13812222510046
aI36
aI0
aI3
ag277
aa(lp1279
F0.86187777489954
aI38
aI103
aI3
ag279
aa(lp1280
F0.11504280335657
aI38
aI0
aI3
ag281
aa(lp1281
F0.88495719664343
aI36
aI98
aI3
ag283
aa(lp1282
F0.13863779486201
aI36
aI0
aI3
ag285
aa(lp1283
F0.86136220513799
aI38
aI99
aI3
ag287
aa(lp1284
F0.1503529092663
aI38
aI0
aI3
ag289
aa(lp1285
F0.8496470907337
aI36
aI99
aI3
ag291
aa(lp1286
F0.15073370615437
aI36
aI0
aI3
ag293
aa(lp1287
F0.84926629384563
aI38
aI103
aI3
ag295
aa(lp1288
F0.11584862780842
aI38
aI0
aI3
ag297
aa(lp1289
F0.88415137219158
aI0
aI0
aI0
ag299
aaa(lp1290
(lp1291
F0.5
aI42
aI98
aI3
ag1081
aa(lp1292
F0.15080598954319
aI42
aI0
aI3
ag1083
aa(lp1293
F0.59919401045681
aI44
aI97
aI3
ag1085
aa(lp1294
F0.092536301768632
aI44
aI0
aI3
ag1087
aa(lp1295
F0.40746369823137
aI44
aI95
aI3
ag1089
aa(lp1296
F0.12682515272331
aI44
aI0
aI3
ag1091
aa(lp1297
F0.62317484727669
aI42
aI108
aI3
ag1093
aa(lp1298
F0.16232490744187
aI42
aI0
aI3
ag1095
aa(lp1299
F0.83767509255813
aI44
aI108
aI3
ag1097
aa(lp1300
F0.12723103474195
aI44
aI0
aI3
ag1099
aa(lp1301
F0.37276896525805
aI0
aI0
aI0
ag1101
aaa(lp1302
(lp1303
F0.5
aI43
aI101
aI3
ag341
aa(lp1304
F0.13960013381347
aI43
aI0
aI3
ag343
aa(lp1305
F1.8603998661865
aI41
aI110
aI3
ag345
aa(lp1306
F0.41520583529177
aI41
aI0
aI3
ag347
aa(lp1307
F1.0847941647082
aI0
aI0
aI0
ag349
aaa(lp1308
(lp1309
F0.75
aI48
aI105
aI3
ag352
aa(lp1310
F0.15085986596523
aI48
aI0
aI3
ag354
aa(lp1311
F0.34914013403477
aI48
aI108
aI3
ag356
aa(lp1312
F0.13838531381452
aI48
aI0
aI3
ag358
aa(lp1313
F0.61161468618548
aI48
aI105
aI3
ag360
aa(lp1314
F0.12700164422176
aI48
aI0
aI3
ag362
aa(lp1315
F0.62299835577824
aI48
aI98
aI3
ag364
aa(lp1316
F0.12655287821599
aI48
aI0
aI3
ag366
aa(lp1317
F0.62344712178401
aI48
aI109
aI3
ag368
aa(lp1318
F0.11580968438102
aI48
aI0
aI3
ag370
aa(lp1319
F0.63419031561898
aI48
aI108
aI3
ag372
aa(lp1320
F0.12676373130216
aI48
aI0
aI3
ag374
aa(lp1321
F0.62323626869784
aI48
aI109
aI3
ag376
aa(lp1322
F0.1389230453517
aI48
aI0
aI3
ag378
aa(lp1323
F0.6110769546483
aI48
aI105
aI3
ag380
aa(lp1324
F0.12850425329771
aI48
aI0
aI3
ag382
aa(lp1325
F0.62149574670229
aI48
aI108
aI3
ag384
aa(lp1326
F0.11480366758133
aI48
aI0
aI3
ag386
aa(lp1327
F0.88519633241867
aI48
aI110
aI3
ag388
aa(lp1328
F0.15085531287241
aI48
aI0
aI3
ag390
aa(lp1329
F0.59914468712759
aI48
aI101
aI3
ag392
aa(lp1330
F0.15053405778963
aI48
aI0
aI3
ag394
aa(lp1331
F0.34946594221037
aI47
aI111
aI3
ag396
aa(lp1332
F0.13893616064706
aI47
aI0
aI3
ag398
aa(lp1333
F0.61106383935294
aI47
aI105
aI3
ag400
aa(lp1334
F0.10390487915265
aI47
aI0
aI3
ag402
aa(lp1335
F0.64609512084735
aI47
aI105
aI3
ag404
aa(lp1336
F0.10457980052843
aI47
aI0
aI3
ag406
aa(lp1337
F0.64542019947157
aI47
aI111
aI3
ag408
aa(lp1338
F0.11545970655789
aI47
aI0
aI3
ag410
aa(lp1339
F0.63454029344211
aI47
aI110
aI3
ag412
aa(lp1340
F0.11598282131808
aI47
aI0
aI3
ag414
aa(lp1341
F0.63401717868192
aI47
aI107
aI3
ag416
aa(lp1342
F0.10448925833066
aI47
aI0
aI3
ag418
aa(lp1343
F0.64551074166934
aI47
aI109
aI3
ag420
aa(lp1344
F0.10392974536376
aI47
aI0
aI3
ag422
aa(lp1345
F0.64607025463624
aI47
aI112
aI3
ag424
aa(lp1346
F0.11598487341644
aI47
aI0
aI3
ag426
aa(lp1347
F0.63401512658356
aI47
aI109
aI3
ag428
aa(lp1348
F0.12727870400954
aI47
aI0
aI3
ag430
aa(lp1349
F0.62272129599046
aI47
aI114
aI3
ag432
aa(lp1350
F0.16164825018586
aI47
aI0
aI3
ag434
aa(lp1351
F0.33835174981414
aI0
aI0
aI0
ag436
aaaaa(lp1352
(lp1353
(dp1354
g440
g441
sg442
I1
sa(dp1355
a(dp1356
a(dp1357
aa(lp1358
(dp1359
g440
g449
sg442
I1
sa(dp1360
a(dp1361
a(dp1362
aa(lp1363
(dp1364
g440
g456
sg442
I1
sa(dp1365
a(dp1366
a(dp1367
aa(lp1368
(dp1369
g440
g463
sg442
I1
sa(dp1370
g440
g1171
sg442
I1
sa(dp1371
g440
g467
sg442
I1
sa(dp1372
g440
g469
sg442
I1
saaa(lp1373
I60
aI60
aI36
aI36
aa(lp1374
(lp1375
I0
aI2
aI3
aI5
aI7
aI8
aI10
aa(lp1376
I0
aI2
aI3
aI5
aI7
aI8
aI10
aa(lp1377
I0
aI2
aI3
aI5
aI7
aI8
aI10
aa(lp1378
I0
aI1
aI2
aI3
aI4
aI5
aI6
aI7
aI8
aI9
aI10
aI11
aaa(lp1379
(lp1380
(lp1381
I1
aI14
aI22
aI34
aI46
aI56
aI66
aI75
aI85
aI96
aI113
aI127
aa(lp1382
I0
aI0
aI0
aI0
aI0
aI0
aI0
aI0
aI0
aI0
aI0
aI0
aa(lp1383
I0
aI0
aI0
aI0
aI0
aI0
aI0
aI0
aI0
aI0
aI0
aI0
aa(lp1384
I0
aI0
aI0
aI0
aI0
aI0
aI0
aI0
aI0
aI0
aI0
aI0
aaa(lp1385
(lp1386
I0
aI0
aI3
aI10
aI19
aI30
aI44
aI56
aI71
aI96
aI115
aI127
aa(lp1387
I0
aI0
aI0
aI0
aI0
aI0
aI0
aI0
aI0
aI0
aI0
aI0
aa(lp1388
I0
aI0
aI0
aI0
aI0
aI0
aI0
aI0
aI0
aI0
aI0
aI0
aa(lp1389
I0
aI0
aI0
aI0
aI0
aI0
aI0
aI0
aI0
aI0
aI0
aI0
aaa(lp1390
(lp1391
I1
aI9
aI13
aI25
aI37
aI50
aI63
aI78
aI94
aI108
aI127
aI127
aa(lp1392
I0
aI0
aI0
aI0
aI0
aI0
aI0
aI0
aI0
aI0
aI0
aI0
aa(lp1393
I0
aI0
aI0
aI0
aI0
aI0
aI0
aI0
aI0
aI0
aI0
aI0
aa(lp1394
I0
aI0
aI0
aI0
aI0
aI0
aI0
aI0
aI0
aI0
aI0
aI0
aaa(lp1395
(lp1396
I0
aI0
aI6
aI20
aI33
aI54
aI72
aI89
aI104
aI126
aI127
aI127
aa(lp1397
I0
aI0
aI0
aI0
aI0
aI0
aI0
aI0
aI0
aI0
aI0
aI0
aa(lp1398
I0
aI0
aI0
aI0
aI0
aI0
aI0
aI0
aI0
aI0
aI0
aI0
aa(lp1399
I0
aI0
aI0
aI0
aI0
aI0
aI0
aI0
aI0
aI0
aI0
aI0
aaaa(lp1400
(lp1401
I0
aI64
aI75
aI96
aI54
aI0
aI0
aI0
aI0
aI0
aI18
aI4
aa(lp1402
I127
aI120
aI104
aI88
aI76
aI70
aI64
aI60
aI52
aI43
aI33
aI17
aa(lp1403
I127
aI106
aI93
aI83
aI71
aI58
aI51
aI42
aI36
aI30
aI23
aI12
aa(lp1404
I124
aI102
aI85
aI70
aI61
aI54
aI45
aI39
aI34
aI28
aI24
aI16
aaaaI0
aI0
aI0
aI0
aI0
aI0
aI0
aI0
aI0
aI0
aI0
aI0
aI0
aI0
aI0
aI0
aI0
aI0
aI0
aI0
aI0
aI0
aI0
aI0
aI0
aI0
aI0
aI0
aI0
a.