(lp0
I0
aI0
aI0
aI0
aI0
aI0
aI0
aI0
aI0
aI0
aI0
aI0
aI0
aI0
aI0
aI0
aI0
aI0
aI0
aI0
aI0
aI0
aI0
aI0
aI0
aI0
aI0
aI0
aI0
aI0
aI0
aI0
aI0
aI0
aI0
aI0
aI0
aI0
aI0
aI0
aI0
aI0
aI0
aI0
aI0
aI0
aI0
aI0
aI0
aI0
a(lp1
(lp2
(lp3
(lp4
(lp5
F0.0
aI36
aI114
aI0
aS'on'
p6
aa(lp7
F0.15126704858551
aI36
aI0
aI0
aS'off'
p8
aa(lp9
F0.36062117485835
aI36
aI112
aI0
aS'on'
p10
aa(lp11
F0.152497928613
aI36
aI0
aI0
aS'off'
p12
aa(lp13
F0.33490622117847
aI36
aI111
aI0
aS'on'
p14
aa(lp15
F0.26244076476178
aI36
aI0
aI0
aS'off'
p16
aa(lp17
F0.062989651732551
aI34
aI108
aI0
aS'on'
p18
aa(lp19
F0.17206571031875
aI34
aI0
aI0
aS'off'
p20
aa(lp21
F0.25261804085278
aI36
aI117
aI0
aS'on'
p22
aa(lp23
F0.55151332854507
aI36
aI0
aI0
aS'off'
p24
aa(lp25
F0.23609922193089
aI36
aI116
aI0
aS'on'
p26
aa(lp27
F0.17969820986707
aI36
aI0
aI0
aS'off'
p28
aa(lp29
F0.29810766855326
aI36
aI118
aI0
aS'on'
p30
aa(lp31
F0.26219147201118
aI36
aI0
aI0
aS'off'
p32
aa(lp33
F0.054552118097035
aI34
aI112
aI0
aS'on'
p34
aa(lp35
F0.1359316305502
aI34
aI0
aI0
aS'off'
p36
aa(lp37
F0.30937849687734
aI36
aI116
aI0
aS'on'
p38
aa(lp39
F0.53167200699068
aI36
aI0
aI0
aS'off'
p40
aa(lp41
F0.28083772218815
aI36
aI117
aI0
aS'on'
p42
aa(lp43
F0.15360804868556
aI36
aI0
aI0
aS'off'
p44
aa(lp45
F0.31613126009563
aI36
aI118
aI0
aS'on'
p46
aa(lp47
F0.27057735562823
aI36
aI0
aI0
aS'off'
p48
aa(lp49
F0.027138195398493
aI34
aI114
aI0
aS'on'
p50
aa(lp51
F0.1531158146056
aI34
aI0
aI0
aS'off'
p52
aa(lp53
F0.298544830482
aI36
aI119
aI0
aS'on'
p54
aa(lp55
F0.47914013975276
aI36
aI0
aI0
aS'off'
p56
aa(lp57
F0.24382679735595
aI36
aI121
aI0
aS'on'
p58
aa(lp59
F0.21695376720027
aI36
aI0
aI0
aS'off'
p60
aa(lp61
F0.30716764466968
aI36
aI120
aI0
aS'on'
p62
aa(lp63
F0.16281392585825
aI36
aI0
aI0
aS'off'
p64
aa(lp65
F0.29953179216864
aI36
aI121
aI0
aS'on'
p66
aa(lp67
F0.16221788162227
aI36
aI0
aI0
aS'off'
p68
aa(lp69
F0.31984412996462
aI0
aI0
aI0
aS'timeAfterLastHit'
p70
aaa(lp71
(lp72
F0.0
aI39
aI58
aI0
aS'on'
p73
aa(lp74
F0.15363090255642
aI39
aI0
aI0
aS'off'
p75
aa(lp76
F0.31751507909371
aI39
aI47
aI0
aS'on'
p77
aa(lp78
F0.14424601445603
aI39
aI0
aI0
aS'off'
p79
aa(lp80
F0.36291449175155
aI39
aI54
aI0
aS'on'
p81
aa(lp82
F0.17067654457446
aI38
aI69
aI0
aS'on'
p83
aa(lp84
F0.026828791562139
aI39
aI0
aI0
aS'off'
p85
aa(lp86
F0.27102422193707
aI38
aI0
aI0
aS'off'
p87
aa(lp88
F0.22536759498462
aI39
aI19
aI0
aS'on'
p89
aa(lp90
F0.61492138884
aI39
aI0
aI0
aS'off'
p91
aa(lp92
F0.22628067408937
aI39
aI67
aI0
aS'on'
p93
aa(lp94
F0.18959137520119
aI39
aI0
aI0
aS'off'
p95
aa(lp96
F0.24401229232581
aI39
aI19
aI0
aS'on'
p97
aa(lp98
F0.20856274262383
aI38
aI12
aI0
aS'on'
p99
aa(lp100
F0.090386092038671
aI39
aI0
aI0
aS'off'
p101
aa(lp102
F0.2166735733274
aI38
aI0
aI0
aS'off'
p103
aa(lp104
F0.24381160098619
aI39
aI7
aI0
aS'on'
p105
aa(lp106
F0.61371267911909
aI39
aI0
aI0
aS'off'
p107
aa(lp108
F0.23531600711658
aI39
aI21
aI0
aS'on'
p109
aa(lp110
F0.21636086495937
aI39
aI0
aI0
aS'off'
p111
aa(lp112
F0.26226079982825
aI39
aI69
aI0
aS'on'
p113
aa(lp114
F0.14432291451794
aI38
aI84
aI0
aS'on'
p115
aa(lp116
F0.063023599750977
aI39
aI0
aI0
aS'off'
p117
aa(lp118
F0.18058445495922
aI38
aI0
aI0
aS'off'
p119
aa(lp120
F0.31589745077258
aI39
aI78
aI0
aS'on'
p121
aa(lp122
F0.53357153074285
aI39
aI0
aI0
aS'off'
p123
aa(lp124
F0.20695641819043
aI39
aI28
aI0
aS'on'
p125
aa(lp126
F0.29797612173434
aI39
aI0
aI0
aS'off'
p127
aa(lp128
F0.20795625390679
aI41
aI82
aI0
aS'on'
p129
aa(lp130
F0.23464934853246
aI41
aI0
aI0
aS'off'
p131
aa(lp132
F0.23528361886042
aI41
aI42
aI0
aS'on'
p133
aa(lp134
F0.30777852732535
aI41
aI0
aI0
aS'off'
p135
aa(lp136
F0.23790602933491
aI0
aI0
aI0
aS'timeAfterLastHit'
p137
aaa(lp138
(lp139
F0.061729709872452
aI41
aI90
aI0
aS'on'
p140
aa(lp141
F0.0088306368202211
aI46
aI110
aI0
aS'on'
p142
aa(lp143
F6.735690199192
aI41
aI0
aI0
aS'off'
p144
aa(lp145
F0.044885402535328
aI46
aI0
aI0
aS'off'
p146
aa(lp147
F0.14503886619968
aI41
aI97
aI0
aS'on'
p148
aa(lp149
F0.018205674771707
aI46
aI100
aI0
aS'on'
p150
aa(lp151
F0.83307168513556
aI41
aI0
aI0
aS'off'
p152
aa(lp153
F0.008435788859515
aI46
aI0
aI0
aS'off'
p154
aa(lp155
F0.15376714540434
aI43
aI120
aI0
aS'on'
p156
aa(lp157
F0.0091344431693869
aI48
aI122
aI0
aS'on'
p158
aa(lp159
F0.00049542102306077
aI49
aI77
aI0
aS'on'
p160
aa(lp161
F0.044449572098529
aI49
aI0
aI0
aS'off'
p162
aa(lp163
F0.2531021112909
aI43
aI0
aI0
aS'off'
p164
aa(lp165
F0.0087045076388677
aI48
aI0
aI0
aS'off'
p166
aa(lp167
F7.2323781464697
aI48
aI101
aI0
aS'on'
p168
aa(lp169
F0.018486856026357
aI43
aI8
aI0
aS'on'
p170
aa(lp171
F0.044423415938581
aI43
aI0
aI0
aS'off'
p172
aa(lp173
F0.027930322604789
aI48
aI0
aI0
aS'off'
p174
aa(lp175
F0.35124009494893
aI0
aI0
aI0
aS'timeAfterLastHit'
p176
aaaI0
aa(lp177
I0
aI0
aI0
aI0
aa(lp178
(lp179
(lp180
F0.015479076324482
aI36
aI110
aI2
aS'on'
p181
aa(lp182
F0.12624050015756
aI36
aI0
aI2
aS'off'
p183
aa(lp184
F0.099701593008376
aI36
aI98
aI2
aS'on'
p185
aa(lp186
F0.14381337788245
aI36
aI0
aI2
aS'off'
p187
aa(lp188
F0.10859135352575
aI36
aI116
aI2
aS'on'
p189
aa(lp190
F0.11791956078605
aI36
aI0
aI2
aS'off'
p191
aa(lp192
F0.11702212245609
aI36
aI98
aI2
aS'on'
p193
aa(lp194
F0.1174070654647
aI36
aI0
aI2
aS'off'
p195
aa(lp196
F0.11722700888004
aI36
aI105
aI2
aS'on'
p197
aa(lp198
F0.10863102525127
aI36
aI0
aI2
aS'off'
p199
aa(lp200
F0.15333066651192
aI36
aI105
aI2
aS'on'
p201
aa(lp202
F0.12571564092013
aI36
aI0
aI2
aS'off'
p203
aa(lp204
F0.14380515372204
aI36
aI110
aI2
aS'on'
p205
aa(lp206
F0.11676143934983
aI36
aI0
aI2
aS'off'
p207
aa(lp208
F0.15340272995354
aI36
aI103
aI2
aS'on'
p209
aa(lp210
F0.14522953153892
aI36
aI0
aI2
aS'off'
p211
aa(lp212
F0.11674124899992
aI36
aI117
aI2
aS'on'
p213
aa(lp214
F0.12631526116957
aI36
aI0
aI2
aS'off'
p215
aa(lp216
F0.11801531798164
aI36
aI100
aI2
aS'on'
p217
aa(lp218
F0.13580945955255
aI36
aI0
aI2
aS'off'
p219
aa(lp220
F0.090233817083572
aI36
aI117
aI2
aS'on'
p221
aa(lp222
F0.12633248764359
aI36
aI0
aI2
aS'off'
p223
aa(lp224
F0.10813034221383
aI36
aI103
aI2
aS'on'
p225
aa(lp226
F0.14489539642227
aI36
aI0
aI2
aS'off'
p227
aa(lp228
F0.099211959676722
aI36
aI118
aI2
aS'on'
p229
aa(lp230
F0.12642657614469
aI36
aI0
aI2
aS'off'
p231
aa(lp232
F0.10883019833591
aI36
aI103
aI2
aS'on'
p233
aa(lp234
F0.14473993105776
aI36
aI0
aI2
aS'off'
p235
aa(lp236
F0.10867642068342
aI36
aI114
aI2
aS'on'
p237
aa(lp238
F0.10849494442118
aI36
aI0
aI2
aS'off'
p239
aa(lp240
F0.13594838322206
aI36
aI105
aI2
aS'on'
p241
aa(lp242
F0.13520889168512
aI36
aI0
aI2
aS'off'
p243
aa(lp244
F0.10831453507672
aI36
aI118
aI2
aS'on'
p245
aa(lp246
F0.13523397572544
aI36
aI0
aI2
aS'off'
p247
aa(lp248
F0.10901033100254
aI36
aI99
aI2
aS'on'
p249
aa(lp250
F0.1360714655134
aI36
aI0
aI2
aS'off'
p251
aa(lp252
F0.10821262533227
aI36
aI116
aI2
aS'on'
p253
aa(lp254
F0.12681777891112
aI36
aI0
aI2
aS'off'
p255
aa(lp256
F0.14485924020528
aI36
aI101
aI2
aS'on'
p257
aa(lp258
F0.14490229254397
aI36
aI0
aI2
aS'off'
p259
aa(lp260
F0.090428418116517
aI36
aI113
aI2
aS'on'
p261
aa(lp262
F0.1354874808485
aI36
aI0
aI2
aS'off'
p263
aa(lp264
F0.12625364047881
aI36
aI97
aI2
aS'on'
p265
aa(lp266
F0.13518356210034
aI36
aI0
aI2
aS'off'
p267
aa(lp268
F0.091195288359813
aI36
aI114
aI2
aS'on'
p269
aa(lp270
F0.14460789832674
aI36
aI0
aI2
aS'off'
p271
aa(lp272
F0.12666244323918
aI36
aI102
aI2
aS'on'
p273
aa(lp274
F0.16293764796137
aI36
aI0
aI2
aS'off'
p275
aa(lp276
F0.06364062631792
aI36
aI119
aI2
aS'on'
p277
aa(lp278
F0.15451705893793
aI36
aI0
aI2
aS'off'
p279
aa(lp280
F0.10861179807034
aI36
aI112
aI2
aS'on'
p281
aa(lp282
F0.15394854731494
aI36
aI0
aI2
aS'off'
p283
aa(lp284
F0.063349595426644
aI36
aI121
aI2
aS'on'
p285
aa(lp286
F0.15276959399307
aI36
aI0
aI2
aS'off'
p287
aa(lp288
F0.14508515737498
aI36
aI117
aI2
aS'on'
p289
aa(lp290
F0.14417729877687
aI36
aI0
aI2
aS'off'
p291
aa(lp292
F0.099300675488394
aI36
aI122
aI2
aS'on'
p293
aa(lp294
F0.16353636383747
aI36
aI0
aI2
aS'off'
p295
aa(lp296
F0.12677442222684
aI36
aI118
aI2
aS'on'
p297
aa(lp298
F0.1451112512741
aI36
aI0
aI2
aS'off'
p299
aa(lp300
F0.072627344100511
aI36
aI120
aI2
aS'on'
p301
aa(lp302
F0.15323874127398
aI36
aI0
aI2
aS'off'
p303
aa(lp304
F0.11677494973719
aI36
aI120
aI2
aS'on'
p305
aa(lp306
F0.16292121865899
aI36
aI0
aI2
aS'off'
p307
aa(lp308
F0.10314825142086
aI0
aI0
aI0
aS'timeAfterLastHit'
p309
aaa(lp310
(lp311
F0.0
aI41
aI120
aI2
aS'on'
p312
aa(lp313
F0.0
aI34
aI101
aI2
aS'on'
p314
aa(lp315
F7.7590519167297
aI34
aI0
aI2
aS'off'
p316
aa(lp317
F0.008912840396988
aI41
aI0
aI2
aS'off'
p318
aa(lp319
F0.23203524287328
aI0
aI0
aI0
aS'timeAfterLastHit'
p320
aaa(lp321
(lp322
F0.0
aI58
aI110
aI2
aS'on'
p323
aa(lp324
F0.0
aI53
aI85
aI2
aS'on'
p325
aa(lp326
F0.036205733571023
aI53
aI0
aI2
aS'off'
p327
aa(lp328
F0.072986985178886
aI58
aI0
aI2
aS'off'
p329
aa(lp330
F0.15378709885272
aI58
aI114
aI2
aS'on'
p331
aa(lp332
F0.00019983883976238
aI48
aI96
aI2
aS'on'
p333
aa(lp334
F0.036130406906977
aI53
aI39
aI2
aS'on'
p335
aa(lp336
F0.027017675801744
aI48
aI0
aI2
aS'off'
p337
aa(lp338
F0.017796508877836
aI53
aI0
aI2
aS'off'
p339
aa(lp340
F0.044822946626482
aI58
aI0
aI2
aS'off'
p341
aa(lp342
F0.11772107247407
aI58
aI107
aI2
aS'on'
p343
aa(lp344
F0.00019146422755512
aI53
aI86
aI2
aS'on'
p345
aa(lp346
F0.053908352629151
aI53
aI0
aI2
aS'off'
p347
aa(lp348
F0.01805235881784
aI58
aI0
aI2
aS'off'
p349
aa(lp350
F0.15353204608436
aI58
aI110
aI2
aS'on'
p351
aa(lp352
F0.00019643919040391
aI53
aI98
aI2
aS'on'
p353
aa(lp354
F0.099538797484456
aI53
aI0
aI2
aS'off'
p355
aa(lp356
F0.02695446595817
aI58
aI0
aI2
aS'off'
p357
aa(lp358
F0.1362213368634
aI58
aI110
aI2
aS'on'
p359
aa(lp360
F0.00051897988851124
aI53
aI78
aI2
aS'on'
p361
aa(lp362
F0.080994358492717
aI53
aI0
aI2
aS'off'
p363
aa(lp364
F0.027035732297918
aI58
aI0
aI2
aS'off'
p365
aa(lp366
F0.136232891492
aI58
aI114
aI2
aS'on'
p367
aa(lp368
F0.0006363851698552
aI53
aI89
aI2
aS'on'
p369
aa(lp370
F0.062812413779739
aI53
aI0
aI2
aS'off'
p371
aa(lp372
F0.063242432312109
aI58
aI0
aI2
aS'off'
p373
aa(lp374
F0.13545067270979
aI58
aI118
aI2
aS'on'
p375
aa(lp376
F0.00016149688281075
aI53
aI106
aI2
aS'on'
p377
aa(lp378
F0.054496316224686
aI53
aI0
aI2
aS'off'
p379
aa(lp380
F0.063095682209678
aI58
aI0
aI2
aS'off'
p381
aa(lp382
F0.14440032815946
aI58
aI112
aI2
aS'on'
p383
aa(lp384
F0.0091522956149674
aI53
aI99
aI2
aS'on'
p385
aa(lp386
F0.054675179647802
aI53
aI0
aI2
aS'off'
p387
aa(lp388
F0.054351978377781
aI58
aI0
aI2
aS'off'
p389
aa(lp390
F0.13717294986554
aI53
aI97
aI2
aS'on'
p391
aa(lp392
F0.0076296048282529
aI58
aI114
aI2
aS'on'
p393
aa(lp394
F0.054001396677904
aI53
aI0
aI2
aS'off'
p395
aa(lp396
F0.027380088815335
aI58
aI0
aI2
aS'off'
p397
aa(lp398
F0.1627576484475
aI58
aI114
aI2
aS'on'
p399
aa(lp400
F0.00018327119505557
aI53
aI95
aI2
aS'on'
p401
aa(lp402
F0.063762861299892
aI53
aI0
aI2
aS'off'
p403
aa(lp404
F0.045367154087216
aI58
aI0
aI2
aS'off'
p405
aa(lp406
F0.14500306792661
aI58
aI115
aI2
aS'on'
p407
aa(lp408
F0.00028117088095314
aI53
aI98
aI2
aS'on'
p409
aa(lp410
F0.062497158274255
aI53
aI0
aI2
aS'off'
p411
aa(lp412
F0.045544634131147
aI58
aI0
aI2
aS'off'
p413
aa(lp414
F0.12626125769066
aI58
aI114
aI2
aS'on'
p415
aa(lp416
F0.00019978868931503
aI53
aI94
aI2
aS'on'
p417
aa(lp418
F0.081383897754677
aI53
aI0
aI2
aS'off'
p419
aa(lp420
F0.036149670398572
aI58
aI0
aI2
aS'off'
p421
aa(lp422
F0.14373148729464
aI58
aI116
aI2
aS'on'
p423
aa(lp424
F0.00013705264791497
aI53
aI97
aI2
aS'on'
p425
aa(lp426
F0.062619087180792
aI53
aI0
aI2
aS'off'
p427
aa(lp428
F0.063694799266159
aI58
aI0
aI2
aS'off'
p429
aa(lp430
F0.099584097811658
aI58
aI109
aI2
aS'on'
p431
aa(lp432
F0.0089394565256953
aI53
aI96
aI2
aS'on'
p433
aa(lp434
F0.054327404457126
aI53
aI0
aI2
aS'off'
p435
aa(lp436
F0.064019570659184
aI58
aI0
aI2
aS'off'
p437
aa(lp438
F0.14474192484522
aI58
aI116
aI2
aS'on'
p439
aa(lp440
F0.00013935943070464
aI53
aI103
aI2
aS'on'
p441
aa(lp442
F0.06277106817015
aI53
aI0
aI2
aS'off'
p443
aa(lp444
F0.063388551258413
aI58
aI0
aI2
aS'off'
p445
aa(lp446
F0.14411896533102
aI58
aI113
aI2
aS'on'
p447
aa(lp448
F0.0093272354415603
aI53
aI93
aI2
aS'on'
p449
aa(lp450
F0.053940111447446
aI53
aI0
aI2
aS'off'
p451
aa(lp452
F0.062603306339952
aI58
aI0
aI2
aS'off'
p453
aa(lp454
F0.1174849632821
aI58
aI116
aI2
aS'on'
p455
aa(lp456
F0.00020364657120808
aI53
aI98
aI2
aS'on'
p457
aa(lp458
F0.063040838328106
aI53
aI0
aI2
aS'off'
p459
aa(lp460
F0.036042493450623
aI58
aI0
aI2
aS'off'
p461
aa(lp462
F0.14540713262522
aI58
aI112
aI2
aS'on'
p463
aa(lp464
F0.00020374686619107
aI53
aI89
aI2
aS'on'
p465
aa(lp466
F0.061995965117603
aI53
aI0
aI2
aS'off'
p467
aa(lp468
F0.045549235579983
aI58
aI0
aI2
aS'off'
p469
aa(lp470
F0.15366019672001
aI58
aI116
aI2
aS'on'
p471
aa(lp472
F0.00019557458062991
aI53
aI97
aI2
aS'on'
p473
aa(lp474
F0.062830867996581
aI53
aI0
aI2
aS'off'
p475
aa(lp476
F0.036328092870463
aI58
aI0
aI2
aS'off'
p477
aa(lp478
F0.1361241703512
aI58
aI110
aI2
aS'on'
p479
aa(lp480
F0.00015571956555505
aI53
aI92
aI2
aS'on'
p481
aa(lp482
F0.054422437102858
aI53
aI0
aI2
aS'off'
p483
aa(lp484
F0.05433104965141
aI58
aI0
aI2
aS'off'
p485
aa(lp486
F0.14523355888423
aI58
aI116
aI2
aS'on'
p487
aa(lp488
F0.00019987688074252
aI53
aI103
aI2
aS'on'
p489
aa(lp490
F0.063006691449573
aI53
aI0
aI2
aS'off'
p491
aa(lp492
F0.044829828914771
aI58
aI0
aI2
aS'off'
p493
aa(lp494
F0.13527875209957
aI58
aI114
aI2
aS'on'
p495
aa(lp496
F0.0086666343067918
aI53
aI93
aI2
aS'on'
p497
aa(lp498
F0.05418820411569
aI53
aI0
aI2
aS'off'
p499
aa(lp500
F0.054142009788848
aI58
aI0
aI2
aS'off'
p501
aa(lp502
F0.1443059768194
aI58
aI117
aI2
aS'on'
p503
aa(lp504
F0.0001631967047615
aI53
aI99
aI2
aS'on'
p505
aa(lp506
F0.072145283013015
aI53
aI0
aI2
aS'off'
p507
aa(lp508
F0.036508486644834
aI58
aI0
aI2
aS'off'
p509
aa(lp510
F0.12650525556955
aI58
aI113
aI2
aS'on'
p511
aa(lp512
F0.0091984346208847
aI53
aI93
aI2
aS'on'
p513
aa(lp514
F0.081790525147881
aI53
aI0
aI2
aS'off'
p515
aa(lp516
F0.026803901198491
aI58
aI0
aI2
aS'off'
p517
aa(lp518
F0.13534355455567
aI53
aI109
aI2
aS'on'
p519
aa(lp520
F0.0091720778764284
aI58
aI115
aI2
aS'on'
p521
aa(lp522
F0.063240635655347
aI53
aI0
aI2
aS'off'
p523
aa(lp524
F0.027229700438511
aI58
aI0
aI2
aS'off'
p525
aa(lp526
F0.13582570036851
aI58
aI114
aI2
aS'on'
p527
aa(lp528
F0.0087966075361692
aI53
aI96
aI2
aS'on'
p529
aa(lp530
F0.081238448017302
aI53
aI0
aI2
aS'off'
p531
aa(lp532
F0.044679507975616
aI58
aI0
aI2
aS'off'
p533
aa(lp534
F0.12710078276632
aI58
aI116
aI2
aS'on'
p535
aa(lp536
F0.00015222135061776
aI53
aI108
aI2
aS'on'
p537
aa(lp538
F0.072578749615332
aI53
aI0
aI2
aS'off'
p539
aa(lp540
F0.035811143073261
aI58
aI0
aI2
aS'off'
p541
aa(lp542
F0.12735207275773
aI58
aI114
aI2
aS'on'
p543
aa(lp544
F0.018108746903636
aI53
aI97
aI2
aS'on'
p545
aa(lp546
F0.045210002728709
aI53
aI0
aI2
aS'off'
p547
aa(lp548
F0.0719791656702
aI58
aI0
aI2
aS'off'
p549
aa(lp550
F0.11764298097387
aI53
aI100
aI2
aS'on'
p551
aa(lp552
F0.0089538003894631
aI58
aI113
aI2
aS'on'
p553
aa(lp554
F0.063603088445689
aI53
aI0
aI2
aS'off'
p555
aa(lp556
F0.036154439580969
aI58
aI0
aI2
aS'off'
p557
aa(lp558
F0.15438718600399
aI58
aI115
aI2
aS'on'
p559
aa(lp560
F0.017661747442617
aI53
aI103
aI2
aS'on'
p561
aa(lp562
F0.08132790220543
aI53
aI0
aI2
aS'off'
p563
aa(lp564
F0.036158373551189
aI58
aI0
aI2
aS'off'
p565
aa(lp566
F0.11752255994816
aI58
aI120
aI2
aS'on'
p567
aa(lp568
F0.00035913268948207
aI53
aI110
aI2
aS'on'
p569
aa(lp570
F0.09837004481642
aI58
aI0
aI2
aS'off'
p571
aa(lp572
F0.00015761824124638
aI53
aI0
aI2
aS'off'
p573
aa(lp574
F0.12673154798858
aI58
aI116
aI2
aS'on'
p575
aa(lp576
F0.008683935132467
aI53
aI113
aI2
aS'on'
p577
aa(lp578
F0.12615950875988
aI53
aI0
aI2
aS'off'
p579
aa(lp580
F0.0091628490349649
aI58
aI0
aI2
aS'off'
p581
aa(lp582
F0.10602164997226
aI0
aI0
aI0
aS'timeAfterLastHit'
p583
aaa(lp584
(lp585
F0.0095688670736536
aI36
aI114
aI0
aS'on'
p586
aa(lp587
F0.13608793804667
aI36
aI0
aI0
aS'off'
p588
aa(lp589
F0.33412317236764
aI36
aI105
aI0
aS'on'
p590
aa(lp591
F0.11809313971082
aI36
aI0
aI0
aS'off'
p592
aa(lp593
F0.40716613061204
aI36
aI114
aI0
aS'on'
p594
aa(lp595
F0.18967065640356
aI36
aI0
aI0
aS'off'
p596
aa(lp597
F0.072058011098306
aI34
aI92
aI0
aS'on'
p598
aa(lp599
F0.21673741433267
aI34
aI0
aI0
aS'off'
p600
aa(lp601
F0.25304311209584
aI36
aI114
aI0
aS'on'
p602
aa(lp603
F0.55940932981935
aI36
aI0
aI0
aS'off'
p604
aa(lp605
F0.19777003968079
aI36
aI114
aI0
aS'on'
p606
aa(lp607
F0.1991973001011
aI36
aI0
aI0
aS'off'
p608
aa(lp609
F0.32476578800799
aI36
aI112
aI0
aS'on'
p610
aa(lp611
F0.23514688265504
aI36
aI0
aI0
aS'off'
p612
aa(lp613
F0.072604597963618
aI34
aI109
aI0
aS'on'
p614
aa(lp615
F0.15385033809946
aI34
aI0
aI0
aS'off'
p616
aa(lp617
F0.30757339362003
aI36
aI114
aI0
aS'on'
p618
aa(lp619
F0.50592883593185
aI36
aI0
aI0
aS'off'
p620
aa(lp621
F0.25380394909666
aI36
aI111
aI0
aS'on'
p622
aa(lp623
F0.17135782197715
aI36
aI0
aI0
aS'off'
p624
aa(lp625
F0.34397354647172
aI36
aI115
aI0
aS'on'
p626
aa(lp627
F0.28871066953275
aI36
aI0
aI0
aS'off'
p628
aa(lp629
F0.02728973024648
aI34
aI105
aI0
aS'on'
p630
aa(lp631
F0.13535616055708
aI34
aI0
aI0
aS'off'
p632
aa(lp633
F0.27059418438137
aI36
aI112
aI0
aS'on'
p634
aa(lp635
F0.54308541454566
aI36
aI0
aI0
aS'off'
p636
aa(lp637
F0.1978851779445
aI36
aI115
aI0
aS'on'
p638
aa(lp639
F0.19923677642589
aI36
aI0
aI0
aS'off'
p640
aa(lp641
F0.31665816673103
aI36
aI114
aI0
aS'on'
p642
aa(lp643
F0.17140539449952
aI36
aI0
aI0
aS'off'
p644
aa(lp645
F0.29831379828397
aI36
aI117
aI0
aS'on'
p646
aa(lp647
F0.16328180043502
aI36
aI0
aI0
aS'off'
p648
aa(lp649
F0.32625246125076
aI0
aI0
aI0
aS'timeAfterLastHit'
p650
aaaa(lp651
(lp652
(lp653
F0.0
aI36
aI108
aI3
aS'on'
p654
aa(lp655
F0.14775492124159
aI36
aI0
aI3
aS'off'
p656
aa(lp657
F0.83168826213455
aI38
aI104
aI3
aS'on'
p658
aa(lp659
F0.16217930449375
aI38
aI0
aI3
aS'off'
p660
aa(lp661
F0.59773762671284
aI36
aI97
aI3
aS'on'
p662
aa(lp663
F0.1441995572718
aI36
aI0
aI3
aS'off'
p664
aa(lp665
F0.60647727207197
aI36
aI97
aI3
aS'on'
p666
aa(lp667
F0.11732776696908
aI36
aI0
aI3
aS'off'
p668
aa(lp669
F0.38875338195862
aI38
aI112
aI3
aS'on'
p670
aa(lp671
F0.15339168716787
aI38
aI0
aI3
aS'off'
p672
aa(lp673
F0.85049021997793
aI0
aI0
aI0
aS'timeAfterLastHit'
p674
aaa(lp675
(lp676
F0.0024652588574554
aI44
aI110
aI3
aS'on'
p677
aa(lp678
F0.14465989073119
aI44
aI0
aI3
aS'off'
p679
aa(lp680
F0.31471330114505
aI44
aI96
aI3
aS'on'
p681
aa(lp682
F0.1268119514491
aI44
aI0
aI3
aS'off'
p683
aa(lp684
F0.37984574132156
aI45
aI112
aI3
aS'on'
p685
aa(lp686
F0.14516853336659
aI45
aI0
aI3
aS'off'
p687
aa(lp688
F0.3618891466067
aI44
aI96
aI3
aS'on'
p689
aa(lp690
F0.12649245589796
aI44
aI0
aI3
aS'off'
p691
aa(lp692
F0.38004459104354
aI44
aI103
aI3
aS'on'
p693
aa(lp694
F0.14461277127043
aI44
aI0
aI3
aS'off'
p695
aa(lp696
F0.37078871871358
aI44
aI99
aI3
aS'on'
p697
aa(lp698
F0.12612785887404
aI44
aI0
aI3
aS'off'
p699
aa(lp700
F0.3711303672801
aI45
aI110
aI3
aS'on'
p701
aa(lp702
F0.13574410720616
aI45
aI0
aI3
aS'off'
p703
aa(lp704
F0.37188211032162
aI44
aI97
aI3
aS'on'
p705
aa(lp706
F0.13608751438869
aI44
aI0
aI3
aS'off'
p707
aa(lp708
F0.37939905658595
aI44
aI98
aI3
aS'on'
p709
aa(lp710
F0.10893907856598
aI44
aI0
aI3
aS'off'
p711
aa(lp712
F0.38956002422219
aI44
aI101
aI3
aS'on'
p713
aa(lp714
F0.11764261265648
aI44
aI0
aI3
aS'off'
p715
aa(lp716
F0.37227218218027
aI45
aI110
aI3
aS'on'
p717
aa(lp718
F0.13447412783671
aI45
aI0
aI3
aS'off'
p719
aa(lp720
F0.36252679237737
aI44
aI99
aI3
aS'on'
p721
aa(lp722
F0.11802498949214
aI44
aI0
aI3
aS'off'
p723
aa(lp724
F0.37035869845135
aI44
aI98
aI3
aS'on'
p725
aa(lp726
F0.12684370508327
aI44
aI0
aI3
aS'off'
p727
aa(lp728
F0.36059428551152
aI44
aI95
aI3
aS'on'
p729
aa(lp730
F0.12658115268596
aI44
aI0
aI3
aS'off'
p731
aa(lp732
F0.36099057737511
aI45
aI110
aI3
aS'on'
p733
aa(lp734
F0.13524100845348
aI45
aI0
aI3
aS'off'
p735
aa(lp736
F0.3713915950932
aI44
aI109
aI3
aS'on'
p737
aa(lp738
F0.13454468685086
aI44
aI0
aI3
aS'off'
p739
aa(lp740
F0.39215110810437
aI0
aI0
aI0
aS'timeAfterLastHit'
p741
aaa(lp742
(lp743
F0.0
aI37
aI114
aI3
aS'on'
p744
aa(lp745
F0.0
aI38
aI31
aI3
aS'on'
p746
aa(lp747
F0.031118429461003
aI38
aI0
aI3
aS'off'
p748
aa(lp749
F0.063630762854245
aI37
aI0
aI3
aS'off'
p750
aa(lp751
F0.11764251754539
aI42
aI109
aI3
aS'on'
p752
aa(lp753
F0.17219337850202
aI42
aI0
aI3
aS'off'
p754
aa(lp755
F0.1081385698335
aI42
aI115
aI3
aS'on'
p756
aa(lp757
F0.17201188494028
aI42
aI0
aI3
aS'off'
p758
aa(lp759
F0.062719514993205
aI37
aI114
aI3
aS'on'
p760
aa(lp761
F0.090710837494498
aI37
aI0
aI3
aS'off'
p762
aa(lp763
F0.14426307319036
aI42
aI98
aI3
aS'on'
p764
aa(lp765
F0.10910440738735
aI42
aI0
aI3
aS'off'
p766
aa(lp767
F0.15411551198622
aI42
aI98
aI3
aS'on'
p768
aa(lp769
F0.14535339024815
aI42
aI0
aI3
aS'off'
p770
aa(lp771
F0.090211921723039
aI37
aI120
aI3
aS'on'
p772
aa(lp773
F0.1355718822565
aI37
aI0
aI3
aS'off'
p774
aa(lp775
F0.090609062626299
aI42
aI112
aI3
aS'on'
p776
aa(lp777
F0.14369830014311
aI42
aI0
aI3
aS'off'
p778
aa(lp779
F0.16890655481484
aI0
aI0
aI0
aS'timeAfterLastHit'
p780
aaaI0
aaa(lp781
(lp782
(dp783
S'button'
p784
S'50'
p785
sS'playing'
p786
I0
sa(dp787
g784
S'60'
p788
sg786
I0
sa(dp789
g784
S'70'
p790
sg786
I0
sa(dp791
aa(lp792
(dp793
a(dp794
a(dp795
a(dp796
aa(lp797
(dp798
g784
S'10'
p799
sg786
I0
sa(dp800
g784
S'20'
p801
sg786
I1
sa(dp802
g784
S'30'
p803
sg786
I1
sa(dp804
g784
S'40'
p805
sg786
I0
saa(lp806
(dp807
g784
S'19'
p808
sg786
I1
sa(dp809
g784
S'29'
p810
sg786
I0
sa(dp811
g784
S'39'
p812
sg786
I1
sa(dp813
aaa(lp814
I60
aI60
aI36
aI36
aa(lp815
(lp816
I0
aI2
aI3
aI5
aI7
aI8
aI10
aa(lp817
I0
aI2
aI3
aI5
aI7
aI8
aI10
aa(lp818
I0
aI2
aI3
aI5
aI7
aI8
aI10
aa(lp819
I0
aI1
aI2
aI3
aI4
aI5
aI6
aI7
aI8
aI9
aI10
aI11
aaa(lp820
(lp821
(lp822
I0
aI0
aI0
aI0
aI0
aI0
aI0
aI0
aI0
aI0
aI0
aI0
aa(lp823
I0
aI0
aI0
aI0
aI0
aI0
aI0
aI0
aI0
aI0
aI0
aI0
aa(lp824
I0
aI0
aI0
aI0
aI0
aI0
aI0
aI0
aI0
aI0
aI0
aI0
aa(lp825
I0
aI0
aI0
aI0
aI0
aI0
aI0
aI0
aI0
aI0
aI0
aI0
aaa(lp826
(lp827
I0
aI0
aI0
aI0
aI0
aI0
aI0
aI0
aI0
aI0
aI0
aI0
aa(lp828
I0
aI0
aI0
aI0
aI0
aI0
aI0
aI0
aI0
aI0
aI0
aI0
aa(lp829
I0
aI0
aI0
aI0
aI0
aI0
aI0
aI0
aI0
aI0
aI0
aI0
aa(lp830
I0
aI0
aI0
aI0
aI0
aI0
aI0
aI0
aI0
aI0
aI0
aI0
aaa(lp831
(lp832
I0
aI0
aI0
aI0
aI0
aI0
aI0
aI0
aI0
aI0
aI0
aI0
aa(lp833
I0
aI0
aI0
aI0
aI0
aI0
aI0
aI0
aI0
aI0
aI0
aI0
aa(lp834
I0
aI0
aI0
aI0
aI0
aI0
aI0
aI0
aI0
aI0
aI0
aI0
aa(lp835
I0
aI0
aI0
aI0
aI0
aI0
aI0
aI0
aI0
aI0
aI0
aI0
aaa(lp836
(lp837
I0
aI0
aI0
aI0
aI0
aI0
aI0
aI0
aI0
aI0
aI0
aI0
aa(lp838
I0
aI0
aI0
aI0
aI0
aI0
aI0
aI0
aI0
aI0
aI0
aI0
aa(lp839
I0
aI0
aI0
aI0
aI0
aI0
aI0
aI0
aI0
aI0
aI0
aI0
aa(lp840
I0
aI0
aI0
aI0
aI0
aI0
aI0
aI0
aI0
aI0
aI0
aI0
aaaa(lp841
(lp842
I57
aI52
aI40
aI90
aI95
aI0
aI0
aI0
aI0
aI0
aI0
aI0
aa(lp843
I0
aI0
aI0
aI0
aI0
aI0
aI0
aI0
aI0
aI0
aI0
aI0
aa(lp844
I0
aI0
aI0
aI0
aI0
aI0
aI0
aI0
aI0
aI0
aI0
aI0
aa(lp845
I0
aI0
aI0
aI0
aI0
aI0
aI0
aI0
aI0
aI0
aI0
aI0
aaaaI0
aI0
aI0
aI0
aI0
aI0
aI0
aI0
aI0
aI0
aI0
aI0
aI0
aI0
aI0
aI0
aI0
aI0
aI0
a(lp846
(lp847
(lp848
(lp849
(lp850
F0.0
aI36
aI114
aI0
ag6
aa(lp851
F0.15126704858551
aI36
aI0
aI0
ag8
aa(lp852
F0.36062117485835
aI36
aI112
aI0
ag10
aa(lp853
F0.152497928613
aI36
aI0
aI0
ag12
aa(lp854
F0.33490622117847
aI36
aI111
aI0
ag14
aa(lp855
F0.26244076476178
aI36
aI0
aI0
ag16
aa(lp856
F0.062989651732551
aI34
aI108
aI0
ag18
aa(lp857
F0.17206571031875
aI34
aI0
aI0
ag20
aa(lp858
F0.25261804085278
aI36
aI117
aI0
ag22
aa(lp859
F0.55151332854507
aI36
aI0
aI0
ag24
aa(lp860
F0.23609922193089
aI36
aI116
aI0
ag26
aa(lp861
F0.17969820986707
aI36
aI0
aI0
ag28
aa(lp862
F0.29810766855326
aI36
aI118
aI0
ag30
aa(lp863
F0.26219147201118
aI36
aI0
aI0
ag32
aa(lp864
F0.054552118097035
aI34
aI112
aI0
ag34
aa(lp865
F0.1359316305502
aI34
aI0
aI0
ag36
aa(lp866
F0.30937849687734
aI36
aI116
aI0
ag38
aa(lp867
F0.53167200699068
aI36
aI0
aI0
ag40
aa(lp868
F0.28083772218815
aI36
aI117
aI0
ag42
aa(lp869
F0.15360804868556
aI36
aI0
aI0
ag44
aa(lp870
F0.31613126009563
aI36
aI118
aI0
ag46
aa(lp871
F0.27057735562823
aI36
aI0
aI0
ag48
aa(lp872
F0.027138195398493
aI34
aI114
aI0
ag50
aa(lp873
F0.1531158146056
aI34
aI0
aI0
ag52
aa(lp874
F0.298544830482
aI36
aI119
aI0
ag54
aa(lp875
F0.47914013975276
aI36
aI0
aI0
ag56
aa(lp876
F0.24382679735595
aI36
aI121
aI0
ag58
aa(lp877
F0.21695376720027
aI36
aI0
aI0
ag60
aa(lp878
F0.30716764466968
aI36
aI120
aI0
ag62
aa(lp879
F0.16281392585825
aI36
aI0
aI0
ag64
aa(lp880
F0.29953179216864
aI36
aI121
aI0
ag66
aa(lp881
F0.16221788162227
aI36
aI0
aI0
ag68
aa(lp882
F0.31984412996462
aI0
aI0
aI0
ag70
aaa(lp883
(lp884
F0.0
aI39
aI58
aI0
ag73
aa(lp885
F0.15363090255642
aI39
aI0
aI0
ag75
aa(lp886
F0.31751507909371
aI39
aI47
aI0
ag77
aa(lp887
F0.14424601445603
aI39
aI0
aI0
ag79
aa(lp888
F0.36291449175155
aI39
aI54
aI0
ag81
aa(lp889
F0.17067654457446
aI38
aI69
aI0
ag83
aa(lp890
F0.026828791562139
aI39
aI0
aI0
ag85
aa(lp891
F0.27102422193707
aI38
aI0
aI0
ag87
aa(lp892
F0.22536759498462
aI39
aI19
aI0
ag89
aa(lp893
F0.61492138884
aI39
aI0
aI0
ag91
aa(lp894
F0.22628067408937
aI39
aI67
aI0
ag93
aa(lp895
F0.18959137520119
aI39
aI0
aI0
ag95
aa(lp896
F0.24401229232581
aI39
aI19
aI0
ag97
aa(lp897
F0.20856274262383
aI38
aI12
aI0
ag99
aa(lp898
F0.090386092038671
aI39
aI0
aI0
ag101
aa(lp899
F0.2166735733274
aI38
aI0
aI0
ag103
aa(lp900
F0.24381160098619
aI39
aI7
aI0
ag105
aa(lp901
F0.61371267911909
aI39
aI0
aI0
ag107
aa(lp902
F0.23531600711658
aI39
aI21
aI0
ag109
aa(lp903
F0.21636086495937
aI39
aI0
aI0
ag111
aa(lp904
F0.26226079982825
aI39
aI69
aI0
ag113
aa(lp905
F0.14432291451794
aI38
aI84
aI0
ag115
aa(lp906
F0.063023599750977
aI39
aI0
aI0
ag117
aa(lp907
F0.18058445495922
aI38
aI0
aI0
ag119
aa(lp908
F0.31589745077258
aI39
aI78
aI0
ag121
aa(lp909
F0.53357153074285
aI39
aI0
aI0
ag123
aa(lp910
F0.20695641819043
aI39
aI28
aI0
ag125
aa(lp911
F0.29797612173434
aI39
aI0
aI0
ag127
aa(lp912
F0.20795625390679
aI41
aI82
aI0
ag129
aa(lp913
F0.23464934853246
aI41
aI0
aI0
ag131
aa(lp914
F0.23528361886042
aI41
aI42
aI0
ag133
aa(lp915
F0.30777852732535
aI41
aI0
aI0
ag135
aa(lp916
F0.23790602933491
aI0
aI0
aI0
ag137
aaa(lp917
(lp918
F0.061729709872452
aI41
aI90
aI0
ag140
aa(lp919
F0.0088306368202211
aI46
aI110
aI0
ag142
aa(lp920
F6.735690199192
aI41
aI0
aI0
ag144
aa(lp921
F0.044885402535328
aI46
aI0
aI0
ag146
aa(lp922
F0.14503886619968
aI41
aI97
aI0
ag148
aa(lp923
F0.018205674771707
aI46
aI100
aI0
ag150
aa(lp924
F0.83307168513556
aI41
aI0
aI0
ag152
aa(lp925
F0.008435788859515
aI46
aI0
aI0
ag154
aa(lp926
F0.15376714540434
aI43
aI120
aI0
ag156
aa(lp927
F0.0091344431693869
aI48
aI122
aI0
ag158
aa(lp928
F0.00049542102306077
aI49
aI77
aI0
ag160
aa(lp929
F0.044449572098529
aI49
aI0
aI0
ag162
aa(lp930
F0.2531021112909
aI43
aI0
aI0
ag164
aa(lp931
F0.0087045076388677
aI48
aI0
aI0
ag166
aa(lp932
F7.2323781464697
aI48
aI101
aI0
ag168
aa(lp933
F0.018486856026357
aI43
aI8
aI0
ag170
aa(lp934
F0.044423415938581
aI43
aI0
aI0
ag172
aa(lp935
F0.027930322604789
aI48
aI0
aI0
ag174
aa(lp936
F0.35124009494893
aI0
aI0
aI0
ag176
aaaI0
aa(lp937
I0
aI0
aI0
aI0
aa(lp938
(lp939
(lp940
F0.015479076324482
aI36
aI110
aI2
ag181
aa(lp941
F0.12624050015756
aI36
aI0
aI2
ag183
aa(lp942
F0.099701593008376
aI36
aI98
aI2
ag185
aa(lp943
F0.14381337788245
aI36
aI0
aI2
ag187
aa(lp944
F0.10859135352575
aI36
aI116
aI2
ag189
aa(lp945
F0.11791956078605
aI36
aI0
aI2
ag191
aa(lp946
F0.11702212245609
aI36
aI98
aI2
ag193
aa(lp947
F0.1174070654647
aI36
aI0
aI2
ag195
aa(lp948
F0.11722700888004
aI36
aI105
aI2
ag197
aa(lp949
F0.10863102525127
aI36
aI0
aI2
ag199
aa(lp950
F0.15333066651192
aI36
aI105
aI2
ag201
aa(lp951
F0.12571564092013
aI36
aI0
aI2
ag203
aa(lp952
F0.14380515372204
aI36
aI110
aI2
ag205
aa(lp953
F0.11676143934983
aI36
aI0
aI2
ag207
aa(lp954
F0.15340272995354
aI36
aI103
aI2
ag209
aa(lp955
F0.14522953153892
aI36
aI0
aI2
ag211
aa(lp956
F0.11674124899992
aI36
aI117
aI2
ag213
aa(lp957
F0.12631526116957
aI36
aI0
aI2
ag215
aa(lp958
F0.11801531798164
aI36
aI100
aI2
ag217
aa(lp959
F0.13580945955255
aI36
aI0
aI2
ag219
aa(lp960
F0.090233817083572
aI36
aI117
aI2
ag221
aa(lp961
F0.12633248764359
aI36
aI0
aI2
ag223
aa(lp962
F0.10813034221383
aI36
aI103
aI2
ag225
aa(lp963
F0.14489539642227
aI36
aI0
aI2
ag227
aa(lp964
F0.099211959676722
aI36
aI118
aI2
ag229
aa(lp965
F0.12642657614469
aI36
aI0
aI2
ag231
aa(lp966
F0.10883019833591
aI36
aI103
aI2
ag233
aa(lp967
F0.14473993105776
aI36
aI0
aI2
ag235
aa(lp968
F0.10867642068342
aI36
aI114
aI2
ag237
aa(lp969
F0.10849494442118
aI36
aI0
aI2
ag239
aa(lp970
F0.13594838322206
aI36
aI105
aI2
ag241
aa(lp971
F0.13520889168512
aI36
aI0
aI2
ag243
aa(lp972
F0.10831453507672
aI36
aI118
aI2
ag245
aa(lp973
F0.13523397572544
aI36
aI0
aI2
ag247
aa(lp974
F0.10901033100254
aI36
aI99
aI2
ag249
aa(lp975
F0.1360714655134
aI36
aI0
aI2
ag251
aa(lp976
F0.10821262533227
aI36
aI116
aI2
ag253
aa(lp977
F0.12681777891112
aI36
aI0
aI2
ag255
aa(lp978
F0.14485924020528
aI36
aI101
aI2
ag257
aa(lp979
F0.14490229254397
aI36
aI0
aI2
ag259
aa(lp980
F0.090428418116517
aI36
aI113
aI2
ag261
aa(lp981
F0.1354874808485
aI36
aI0
aI2
ag263
aa(lp982
F0.12625364047881
aI36
aI97
aI2
ag265
aa(lp983
F0.13518356210034
aI36
aI0
aI2
ag267
aa(lp984
F0.091195288359813
aI36
aI114
aI2
ag269
aa(lp985
F0.14460789832674
aI36
aI0
aI2
ag271
aa(lp986
F0.12666244323918
aI36
aI102
aI2
ag273
aa(lp987
F0.16293764796137
aI36
aI0
aI2
ag275
aa(lp988
F0.06364062631792
aI36
aI119
aI2
ag277
aa(lp989
F0.15451705893793
aI36
aI0
aI2
ag279
aa(lp990
F0.10861179807034
aI36
aI112
aI2
ag281
aa(lp991
F0.15394854731494
aI36
aI0
aI2
ag283
aa(lp992
F0.063349595426644
aI36
aI121
aI2
ag285
aa(lp993
F0.15276959399307
aI36
aI0
aI2
ag287
aa(lp994
F0.14508515737498
aI36
aI117
aI2
ag289
aa(lp995
F0.14417729877687
aI36
aI0
aI2
ag291
aa(lp996
F0.099300675488394
aI36
aI122
aI2
ag293
aa(lp997
F0.16353636383747
aI36
aI0
aI2
ag295
aa(lp998
F0.12677442222684
aI36
aI118
aI2
ag297
aa(lp999
F0.1451112512741
aI36
aI0
aI2
ag299
aa(lp1000
F0.072627344100511
aI36
aI120
aI2
ag301
aa(lp1001
F0.15323874127398
aI36
aI0
aI2
ag303
aa(lp1002
F0.11677494973719
aI36
aI120
aI2
ag305
aa(lp1003
F0.16292121865899
aI36
aI0
aI2
ag307
aa(lp1004
F0.10314825142086
aI0
aI0
aI0
ag309
aaa(lp1005
(lp1006
F0.0
aI41
aI120
aI2
ag312
aa(lp1007
F0.0
aI34
aI101
aI2
ag314
aa(lp1008
F7.7590519167297
aI34
aI0
aI2
ag316
aa(lp1009
F0.008912840396988
aI41
aI0
aI2
ag318
aa(lp1010
F0.23203524287328
aI0
aI0
aI0
ag320
aaa(lp1011
(lp1012
F0.0
aI58
aI110
aI2
ag323
aa(lp1013
F0.0
aI53
aI85
aI2
ag325
aa(lp1014
F0.036205733571023
aI53
aI0
aI2
ag327
aa(lp1015
F0.072986985178886
aI58
aI0
aI2
ag329
aa(lp1016
F0.15378709885272
aI58
aI114
aI2
ag331
aa(lp1017
F0.00019983883976238
aI48
aI96
aI2
ag333
aa(lp1018
F0.036130406906977
aI53
aI39
aI2
ag335
aa(lp1019
F0.027017675801744
aI48
aI0
aI2
ag337
aa(lp1020
F0.017796508877836
aI53
aI0
aI2
ag339
aa(lp1021
F0.044822946626482
aI58
aI0
aI2
ag341
aa(lp1022
F0.11772107247407
aI58
aI107
aI2
ag343
aa(lp1023
F0.00019146422755512
aI53
aI86
aI2
ag345
aa(lp1024
F0.053908352629151
aI53
aI0
aI2
ag347
aa(lp1025
F0.01805235881784
aI58
aI0
aI2
ag349
aa(lp1026
F0.15353204608436
aI58
aI110
aI2
ag351
aa(lp1027
F0.00019643919040391
aI53
aI98
aI2
ag353
aa(lp1028
F0.099538797484456
aI53
aI0
aI2
ag355
aa(lp1029
F0.02695446595817
aI58
aI0
aI2
ag357
aa(lp1030
F0.1362213368634
aI58
aI110
aI2
ag359
aa(lp1031
F0.00051897988851124
aI53
aI78
aI2
ag361
aa(lp1032
F0.080994358492717
aI53
aI0
aI2
ag363
aa(lp1033
F0.027035732297918
aI58
aI0
aI2
ag365
aa(lp1034
F0.136232891492
aI58
aI114
aI2
ag367
aa(lp1035
F0.0006363851698552
aI53
aI89
aI2
ag369
aa(lp1036
F0.062812413779739
aI53
aI0
aI2
ag371
aa(lp1037
F0.063242432312109
aI58
aI0
aI2
ag373
aa(lp1038
F0.13545067270979
aI58
aI118
aI2
ag375
aa(lp1039
F0.00016149688281075
aI53
aI106
aI2
ag377
aa(lp1040
F0.054496316224686
aI53
aI0
aI2
ag379
aa(lp1041
F0.063095682209678
aI58
aI0
aI2
ag381
aa(lp1042
F0.14440032815946
aI58
aI112
aI2
ag383
aa(lp1043
F0.0091522956149674
aI53
aI99
aI2
ag385
aa(lp1044
F0.054675179647802
aI53
aI0
aI2
ag387
aa(lp1045
F0.054351978377781
aI58
aI0
aI2
ag389
aa(lp1046
F0.13717294986554
aI53
aI97
aI2
ag391
aa(lp1047
F0.0076296048282529
aI58
aI114
aI2
ag393
aa(lp1048
F0.054001396677904
aI53
aI0
aI2
ag395
aa(lp1049
F0.027380088815335
aI58
aI0
aI2
ag397
aa(lp1050
F0.1627576484475
aI58
aI114
aI2
ag399
aa(lp1051
F0.00018327119505557
aI53
aI95
aI2
ag401
aa(lp1052
F0.063762861299892
aI53
aI0
aI2
ag403
aa(lp1053
F0.045367154087216
aI58
aI0
aI2
ag405
aa(lp1054
F0.14500306792661
aI58
aI115
aI2
ag407
aa(lp1055
F0.00028117088095314
aI53
aI98
aI2
ag409
aa(lp1056
F0.062497158274255
aI53
aI0
aI2
ag411
aa(lp1057
F0.045544634131147
aI58
aI0
aI2
ag413
aa(lp1058
F0.12626125769066
aI58
aI114
aI2
ag415
aa(lp1059
F0.00019978868931503
aI53
aI94
aI2
ag417
aa(lp1060
F0.081383897754677
aI53
aI0
aI2
ag419
aa(lp1061
F0.036149670398572
aI58
aI0
aI2
ag421
aa(lp1062
F0.14373148729464
aI58
aI116
aI2
ag423
aa(lp1063
F0.00013705264791497
aI53
aI97
aI2
ag425
aa(lp1064
F0.062619087180792
aI53
aI0
aI2
ag427
aa(lp1065
F0.063694799266159
aI58
aI0
aI2
ag429
aa(lp1066
F0.099584097811658
aI58
aI109
aI2
ag431
aa(lp1067
F0.0089394565256953
aI53
aI96
aI2
ag433
aa(lp1068
F0.054327404457126
aI53
aI0
aI2
ag435
aa(lp1069
F0.064019570659184
aI58
aI0
aI2
ag437
aa(lp1070
F0.14474192484522
aI58
aI116
aI2
ag439
aa(lp1071
F0.00013935943070464
aI53
aI103
aI2
ag441
aa(lp1072
F0.06277106817015
aI53
aI0
aI2
ag443
aa(lp1073
F0.063388551258413
aI58
aI0
aI2
ag445
aa(lp1074
F0.14411896533102
aI58
aI113
aI2
ag447
aa(lp1075
F0.0093272354415603
aI53
aI93
aI2
ag449
aa(lp1076
F0.053940111447446
aI53
aI0
aI2
ag451
aa(lp1077
F0.062603306339952
aI58
aI0
aI2
ag453
aa(lp1078
F0.1174849632821
aI58
aI116
aI2
ag455
aa(lp1079
F0.00020364657120808
aI53
aI98
aI2
ag457
aa(lp1080
F0.063040838328106
aI53
aI0
aI2
ag459
aa(lp1081
F0.036042493450623
aI58
aI0
aI2
ag461
aa(lp1082
F0.14540713262522
aI58
aI112
aI2
ag463
aa(lp1083
F0.00020374686619107
aI53
aI89
aI2
ag465
aa(lp1084
F0.061995965117603
aI53
aI0
aI2
ag467
aa(lp1085
F0.045549235579983
aI58
aI0
aI2
ag469
aa(lp1086
F0.15366019672001
aI58
aI116
aI2
ag471
aa(lp1087
F0.00019557458062991
aI53
aI97
aI2
ag473
aa(lp1088
F0.062830867996581
aI53
aI0
aI2
ag475
aa(lp1089
F0.036328092870463
aI58
aI0
aI2
ag477
aa(lp1090
F0.1361241703512
aI58
aI110
aI2
ag479
aa(lp1091
F0.00015571956555505
aI53
aI92
aI2
ag481
aa(lp1092
F0.054422437102858
aI53
aI0
aI2
ag483
aa(lp1093
F0.05433104965141
aI58
aI0
aI2
ag485
aa(lp1094
F0.14523355888423
aI58
aI116
aI2
ag487
aa(lp1095
F0.00019987688074252
aI53
aI103
aI2
ag489
aa(lp1096
F0.063006691449573
aI53
aI0
aI2
ag491
aa(lp1097
F0.044829828914771
aI58
aI0
aI2
ag493
aa(lp1098
F0.13527875209957
aI58
aI114
aI2
ag495
aa(lp1099
F0.0086666343067918
aI53
aI93
aI2
ag497
aa(lp1100
F0.05418820411569
aI53
aI0
aI2
ag499
aa(lp1101
F0.054142009788848
aI58
aI0
aI2
ag501
aa(lp1102
F0.1443059768194
aI58
aI117
aI2
ag503
aa(lp1103
F0.0001631967047615
aI53
aI99
aI2
ag505
aa(lp1104
F0.072145283013015
aI53
aI0
aI2
ag507
aa(lp1105
F0.036508486644834
aI58
aI0
aI2
ag509
aa(lp1106
F0.12650525556955
aI58
aI113
aI2
ag511
aa(lp1107
F0.0091984346208847
aI53
aI93
aI2
ag513
aa(lp1108
F0.081790525147881
aI53
aI0
aI2
ag515
aa(lp1109
F0.026803901198491
aI58
aI0
aI2
ag517
aa(lp1110
F0.13534355455567
aI53
aI109
aI2
ag519
aa(lp1111
F0.0091720778764284
aI58
aI115
aI2
ag521
aa(lp1112
F0.063240635655347
aI53
aI0
aI2
ag523
aa(lp1113
F0.027229700438511
aI58
aI0
aI2
ag525
aa(lp1114
F0.13582570036851
aI58
aI114
aI2
ag527
aa(lp1115
F0.0087966075361692
aI53
aI96
aI2
ag529
aa(lp1116
F0.081238448017302
aI53
aI0
aI2
ag531
aa(lp1117
F0.044679507975616
aI58
aI0
aI2
ag533
aa(lp1118
F0.12710078276632
aI58
aI116
aI2
ag535
aa(lp1119
F0.00015222135061776
aI53
aI108
aI2
ag537
aa(lp1120
F0.072578749615332
aI53
aI0
aI2
ag539
aa(lp1121
F0.035811143073261
aI58
aI0
aI2
ag541
aa(lp1122
F0.12735207275773
aI58
aI114
aI2
ag543
aa(lp1123
F0.018108746903636
aI53
aI97
aI2
ag545
aa(lp1124
F0.045210002728709
aI53
aI0
aI2
ag547
aa(lp1125
F0.0719791656702
aI58
aI0
aI2
ag549
aa(lp1126
F0.11764298097387
aI53
aI100
aI2
ag551
aa(lp1127
F0.0089538003894631
aI58
aI113
aI2
ag553
aa(lp1128
F0.063603088445689
aI53
aI0
aI2
ag555
aa(lp1129
F0.036154439580969
aI58
aI0
aI2
ag557
aa(lp1130
F0.15438718600399
aI58
aI115
aI2
ag559
aa(lp1131
F0.017661747442617
aI53
aI103
aI2
ag561
aa(lp1132
F0.08132790220543
aI53
aI0
aI2
ag563
aa(lp1133
F0.036158373551189
aI58
aI0
aI2
ag565
aa(lp1134
F0.11752255994816
aI58
aI120
aI2
ag567
aa(lp1135
F0.00035913268948207
aI53
aI110
aI2
ag569
aa(lp1136
F0.09837004481642
aI58
aI0
aI2
ag571
aa(lp1137
F0.00015761824124638
aI53
aI0
aI2
ag573
aa(lp1138
F0.12673154798858
aI58
aI116
aI2
ag575
aa(lp1139
F0.008683935132467
aI53
aI113
aI2
ag577
aa(lp1140
F0.12615950875988
aI53
aI0
aI2
ag579
aa(lp1141
F0.0091628490349649
aI58
aI0
aI2
ag581
aa(lp1142
F0.10602164997226
aI0
aI0
aI0
ag583
aaa(lp1143
(lp1144
F0.0095688670736536
aI36
aI114
aI0
ag586
aa(lp1145
F0.13608793804667
aI36
aI0
aI0
ag588
aa(lp1146
F0.33412317236764
aI36
aI105
aI0
ag590
aa(lp1147
F0.11809313971082
aI36
aI0
aI0
ag592
aa(lp1148
F0.40716613061204
aI36
aI114
aI0
ag594
aa(lp1149
F0.18967065640356
aI36
aI0
aI0
ag596
aa(lp1150
F0.072058011098306
aI34
aI92
aI0
ag598
aa(lp1151
F0.21673741433267
aI34
aI0
aI0
ag600
aa(lp1152
F0.25304311209584
aI36
aI114
aI0
ag602
aa(lp1153
F0.55940932981935
aI36
aI0
aI0
ag604
aa(lp1154
F0.19777003968079
aI36
aI114
aI0
ag606
aa(lp1155
F0.1991973001011
aI36
aI0
aI0
ag608
aa(lp1156
F0.32476578800799
aI36
aI112
aI0
ag610
aa(lp1157
F0.23514688265504
aI36
aI0
aI0
ag612
aa(lp1158
F0.072604597963618
aI34
aI109
aI0
ag614
aa(lp1159
F0.15385033809946
aI34
aI0
aI0
ag616
aa(lp1160
F0.30757339362003
aI36
aI114
aI0
ag618
aa(lp1161
F0.50592883593185
aI36
aI0
aI0
ag620
aa(lp1162
F0.25380394909666
aI36
aI111
aI0
ag622
aa(lp1163
F0.17135782197715
aI36
aI0
aI0
ag624
aa(lp1164
F0.34397354647172
aI36
aI115
aI0
ag626
aa(lp1165
F0.28871066953275
aI36
aI0
aI0
ag628
aa(lp1166
F0.02728973024648
aI34
aI105
aI0
ag630
aa(lp1167
F0.13535616055708
aI34
aI0
aI0
ag632
aa(lp1168
F0.27059418438137
aI36
aI112
aI0
ag634
aa(lp1169
F0.54308541454566
aI36
aI0
aI0
ag636
aa(lp1170
F0.1978851779445
aI36
aI115
aI0
ag638
aa(lp1171
F0.19923677642589
aI36
aI0
aI0
ag640
aa(lp1172
F0.31665816673103
aI36
aI114
aI0
ag642
aa(lp1173
F0.17140539449952
aI36
aI0
aI0
ag644
aa(lp1174
F0.29831379828397
aI36
aI117
aI0
ag646
aa(lp1175
F0.16328180043502
aI36
aI0
aI0
ag648
aa(lp1176
F0.32625246125076
aI0
aI0
aI0
ag650
aaaa(lp1177
(lp1178
(lp1179
F0.0
aI36
aI108
aI3
ag654
aa(lp1180
F0.14775492124159
aI36
aI0
aI3
ag656
aa(lp1181
F0.83168826213455
aI38
aI104
aI3
ag658
aa(lp1182
F0.16217930449375
aI38
aI0
aI3
ag660
aa(lp1183
F0.59773762671284
aI36
aI97
aI3
ag662
aa(lp1184
F0.1441995572718
aI36
aI0
aI3
ag664
aa(lp1185
F0.60647727207197
aI36
aI97
aI3
ag666
aa(lp1186
F0.11732776696908
aI36
aI0
aI3
ag668
aa(lp1187
F0.38875338195862
aI38
aI112
aI3
ag670
aa(lp1188
F0.15339168716787
aI38
aI0
aI3
ag672
aa(lp1189
F0.85049021997793
aI0
aI0
aI0
ag674
aaa(lp1190
(lp1191
F0.0024652588574554
aI44
aI110
aI3
ag677
aa(lp1192
F0.14465989073119
aI44
aI0
aI3
ag679
aa(lp1193
F0.31471330114505
aI44
aI96
aI3
ag681
aa(lp1194
F0.1268119514491
aI44
aI0
aI3
ag683
aa(lp1195
F0.37984574132156
aI45
aI112
aI3
ag685
aa(lp1196
F0.14516853336659
aI45
aI0
aI3
ag687
aa(lp1197
F0.3618891466067
aI44
aI96
aI3
ag689
aa(lp1198
F0.12649245589796
aI44
aI0
aI3
ag691
aa(lp1199
F0.38004459104354
aI44
aI103
aI3
ag693
aa(lp1200
F0.14461277127043
aI44
aI0
aI3
ag695
aa(lp1201
F0.37078871871358
aI44
aI99
aI3
ag697
aa(lp1202
F0.12612785887404
aI44
aI0
aI3
ag699
aa(lp1203
F0.3711303672801
aI45
aI110
aI3
ag701
aa(lp1204
F0.13574410720616
aI45
aI0
aI3
ag703
aa(lp1205
F0.37188211032162
aI44
aI97
aI3
ag705
aa(lp1206
F0.13608751438869
aI44
aI0
aI3
ag707
aa(lp1207
F0.37939905658595
aI44
aI98
aI3
ag709
aa(lp1208
F0.10893907856598
aI44
aI0
aI3
ag711
aa(lp1209
F0.38956002422219
aI44
aI101
aI3
ag713
aa(lp1210
F0.11764261265648
aI44
aI0
aI3
ag715
aa(lp1211
F0.37227218218027
aI45
aI110
aI3
ag717
aa(lp1212
F0.13447412783671
aI45
aI0
aI3
ag719
aa(lp1213
F0.36252679237737
aI44
aI99
aI3
ag721
aa(lp1214
F0.11802498949214
aI44
aI0
aI3
ag723
aa(lp1215
F0.37035869845135
aI44
aI98
aI3
ag725
aa(lp1216
F0.12684370508327
aI44
aI0
aI3
ag727
aa(lp1217
F0.36059428551152
aI44
aI95
aI3
ag729
aa(lp1218
F0.12658115268596
aI44
aI0
aI3
ag731
aa(lp1219
F0.36099057737511
aI45
aI110
aI3
ag733
aa(lp1220
F0.13524100845348
aI45
aI0
aI3
ag735
aa(lp1221
F0.3713915950932
aI44
aI109
aI3
ag737
aa(lp1222
F0.13454468685086
aI44
aI0
aI3
ag739
aa(lp1223
F0.39215110810437
aI0
aI0
aI0
ag741
aaa(lp1224
(lp1225
F0.0
aI37
aI114
aI3
ag744
aa(lp1226
F0.0
aI38
aI31
aI3
ag746
aa(lp1227
F0.031118429461003
aI38
aI0
aI3
ag748
aa(lp1228
F0.063630762854245
aI37
aI0
aI3
ag750
aa(lp1229
F0.11764251754539
aI42
aI109
aI3
ag752
aa(lp1230
F0.17219337850202
aI42
aI0
aI3
ag754
aa(lp1231
F0.1081385698335
aI42
aI115
aI3
ag756
aa(lp1232
F0.17201188494028
aI42
aI0
aI3
ag758
aa(lp1233
F0.062719514993205
aI37
aI114
aI3
ag760
aa(lp1234
F0.090710837494498
aI37
aI0
aI3
ag762
aa(lp1235
F0.14426307319036
aI42
aI98
aI3
ag764
aa(lp1236
F0.10910440738735
aI42
aI0
aI3
ag766
aa(lp1237
F0.15411551198622
aI42
aI98
aI3
ag768
aa(lp1238
F0.14535339024815
aI42
aI0
aI3
ag770
aa(lp1239
F0.090211921723039
aI37
aI120
aI3
ag772
aa(lp1240
F0.1355718822565
aI37
aI0
aI3
ag774
aa(lp1241
F0.090609062626299
aI42
aI112
aI3
ag776
aa(lp1242
F0.14369830014311
aI42
aI0
aI3
ag778
aa(lp1243
F0.16890655481484
aI0
aI0
aI0
ag780
aaaI0
aaa(lp1244
(lp1245
(dp1246
g784
g785
sg786
I1
sa(dp1247
g784
g788
sg786
I1
sa(dp1248
g784
g790
sg786
I0
sa(dp1249
aa(lp1250
(dp1251
a(dp1252
a(dp1253
a(dp1254
aa(lp1255
(dp1256
g784
g799
sg786
I0
sa(dp1257
g784
g801
sg786
I0
sa(dp1258
g784
g803
sg786
I0
sa(dp1259
g784
g805
sg786
I0
saa(lp1260
(dp1261
g784
g808
sg786
I1
sa(dp1262
g784
g810
sg786
I1
sa(dp1263
g784
g812
sg786
I0
sa(dp1264
aaa(lp1265
I60
aI60
aI36
aI36
aa(lp1266
(lp1267
I0
aI2
aI3
aI5
aI7
aI8
aI10
aa(lp1268
I0
aI2
aI3
aI5
aI7
aI8
aI10
aa(lp1269
I0
aI2
aI3
aI5
aI7
aI8
aI10
aa(lp1270
I0
aI1
aI2
aI3
aI4
aI5
aI6
aI7
aI8
aI9
aI10
aI11
aaa(lp1271
(lp1272
(lp1273
I0
aI0
aI0
aI0
aI0
aI0
aI0
aI0
aI0
aI0
aI0
aI0
aa(lp1274
I0
aI0
aI0
aI0
aI0
aI0
aI0
aI0
aI0
aI0
aI0
aI0
aa(lp1275
I0
aI0
aI0
aI0
aI0
aI0
aI0
aI0
aI0
aI0
aI0
aI0
aa(lp1276
I0
aI0
aI0
aI0
aI0
aI0
aI0
aI0
aI0
aI0
aI0
aI0
aaa(lp1277
(lp1278
I0
aI0
aI0
aI0
aI0
aI0
aI0
aI0
aI0
aI0
aI0
aI0
aa(lp1279
I0
aI0
aI0
aI0
aI0
aI0
aI0
aI0
aI0
aI0
aI0
aI0
aa(lp1280
I0
aI0
aI0
aI0
aI0
aI0
aI0
aI0
aI0
aI0
aI0
aI0
aa(lp1281
I0
aI0
aI0
aI0
aI0
aI0
aI0
aI0
aI0
aI0
aI0
aI0
aaa(lp1282
(lp1283
I0
aI0
aI0
aI0
aI0
aI0
aI0
aI0
aI0
aI0
aI0
aI0
aa(lp1284
I0
aI0
aI0
aI0
aI0
aI0
aI0
aI0
aI0
aI0
aI0
aI0
aa(lp1285
I0
aI0
aI0
aI0
aI0
aI0
aI0
aI0
aI0
aI0
aI0
aI0
aa(lp1286
I0
aI0
aI0
aI0
aI0
aI0
aI0
aI0
aI0
aI0
aI0
aI0
aaa(lp1287
(lp1288
I0
aI0
aI0
aI0
aI0
aI0
aI0
aI0
aI0
aI0
aI0
aI0
aa(lp1289
I0
aI0
aI0
aI0
aI0
aI0
aI0
aI0
aI0
aI0
aI0
aI0
aa(lp1290
I0
aI0
aI0
aI0
aI0
aI0
aI0
aI0
aI0
aI0
aI0
aI0
aa(lp1291
I0
aI0
aI0
aI0
aI0
aI0
aI0
aI0
aI0
aI0
aI0
aI0
aaaa(lp1292
(lp1293
I57
aI52
aI40
aI90
aI95
aI0
aI0
aI0
aI0
aI0
aI0
aI0
aa(lp1294
I0
aI0
aI0
aI0
aI0
aI0
aI0
aI0
aI0
aI0
aI0
aI0
aa(lp1295
I0
aI0
aI0
aI0
aI0
aI0
aI0
aI0
aI0
aI0
aI0
aI0
aa(lp1296
I0
aI0
aI0
aI0
aI0
aI0
aI0
aI0
aI0
aI0
aI0
aI0
aaaaI0
aI0
aI0
aI0
aI0
aI0
aI0
aI0
aI0
aI0
aI0
aI0
aI0
aI0
aI0
aI0
aI0
aI0
aI0
aI0
aI0
aI0
aI0
aI0
aI0
aI0
aI0
aI0
aI0
a.