(lp0
(dp1
a(dp2
a(dp3
a(dp4
a(dp5
a(dp6
a(dp7
a(dp8
a(dp9
a(dp10
a(dp11
a(dp12
a(dp13
a(dp14
a(dp15
a(dp16
a(dp17
a(dp18
a(dp19
a(dp20
a(dp21
a(dp22
a(dp23
a(dp24
a(dp25
a(dp26
a(dp27
a(dp28
a(dp29
a(dp30
a(dp31
a(dp32
a(dp33
a(dp34
a(dp35
a(dp36
a(dp37
a(dp38
a(dp39
a(dp40
a(dp41
a(dp42
a(dp43
a(dp44
a(dp45
a(dp46
a(dp47
a(dp48
a(dp49
a(dp50
a(dp51
a(dp52
a(dp53
a(dp54
a(dp55
a(dp56
a(dp57
a(dp58
a(dp59
a(dp60
a(dp61
F67.0
I45
sF60.0
I33
sF63.0
I36
sa(dp62
F58.0
I26
sF62.0
I35
sF55.0
I23
sa(dp63
F56.0
I24
sF60.0
I28
sF63.0
I36
sa(dp64
F60.0
I28
sF68.0
I46
sF63.0
I36
sa(dp65
F67.0
I45
sF70.0
I48
sF63.0
I36
sa(dp66
F56.0
I24
sF67.0
I45
sF63.0
I36
sa(dp67
F65.0
I43
sF58.0
I31
sF62.0
I35
sa(dp68
a(dp69
a(dp70
a(dp71
F67.0
I45
sF60.0
I33
sF63.0
I36
sa(dp72
F56.0
I24
sF60.0
I33
sF63.0
I36
sa(dp73
F63.0
I36
sF60.0
I33
sF55.0
I23
sa(dp74
F58.0
I26
sF60.0
I33
sF63.0
I36
sa(dp75
F60.0
I33
sF68.0
I46
sF63.0
I36
sa(dp76
F67.0
I45
sF60.0
I33
sF63.0
I36
sa(dp77
F65.0
I43
sF60.0
I33
sF63.0
I36
sa(dp78
a(dp79
a(dp80
a(dp81
a(dp82
a(dp83
a(dp84
a(dp85
a(dp86
a(dp87
a(dp88
a(dp89
a(dp90
a(dp91
a(dp92
a(dp93
a(dp94
a(dp95
a(dp96
a(dp97
a(dp98
a(dp99
a(dp100
a.