(lp0
I0
aI0
aI0
aI0
aI0
aI0
aI0
aI0
aI0
aI0
a(lp1
(lp2
(lp3
(lp4
(lp5
F0.0
aI60
aI61
aI0
aS'on'
p6
aa(lp7
F5.9346758609299
aI63
aI93
aI0
aS'on'
p8
aa(lp9
F0.15111653422082
aI60
aI0
aI0
aS'off'
p10
aa(lp11
F1.8999111920766
aI65
aI73
aI0
aS'on'
p12
aa(lp13
F0.075533015425435
aI63
aI0
aI0
aS'off'
p14
aa(lp15
F7.6716440008051
aI65
aI0
aI0
aS'off'
p16
aa(lp17
F0.26711939654206
aI0
aI0
aI0
aS'timeAfterLastHit'
p18
aaa(lp19
(lp20
F0.0
aI65
aI98
aI0
aS'on'
p21
aa(lp22
F5.9869294616665
aI68
aI84
aI0
aS'on'
p23
aa(lp24
F0.15163402407688
aI65
aI0
aI0
aS'off'
p25
aa(lp26
F1.8671154294191
aI70
aI89
aI0
aS'on'
p27
aa(lp28
F0.088136322278615
aI68
aI0
aI0
aS'off'
p29
aa(lp30
F6.1789418135029
aI72
aI102
aI0
aS'on'
p31
aa(lp32
F0.043421239143527
aI70
aI0
aI0
aS'off'
p33
aa(lp34
F0.2067738716687
aI72
aI0
aI0
aS'off'
p35
aa(lp36
F0.04330646441781
aI75
aI88
aI0
aS'on'
p37
aa(lp38
F0.26124434982376
aI75
aI0
aI0
aS'off'
p39
aa(lp40
F0.076575029617288
aI77
aI103
aI0
aS'on'
p41
aa(lp42
F0.23737957813319
aI77
aI0
aI0
aS'off'
p43
aa(lp44
F0.022250519506997
aI80
aI105
aI0
aS'on'
p45
aa(lp46
F0.30432851098908
aI80
aI0
aI0
aS'off'
p47
aa(lp48
F0.064877537061193
aI82
aI119
aI0
aS'on'
p49
aa(lp50
F0.32570298145038
aI82
aI0
aI0
aS'off'
p51
aa(lp52
F0.14138286724415
aI0
aI0
aI0
aS'timeAfterLastHit'
p53
aaaI0
aI0
aa(lp54
(lp55
(lp56
F0.0
aI65
aI96
aI1
aS'on'
p57
aa(lp58
F0.53243221040566
aI65
aI0
aI1
aS'off'
p59
aa(lp60
F0.46756778959434
aI68
aI44
aI1
aS'on'
p61
aa(lp62
F0.47377996111618
aI68
aI0
aI1
aS'off'
p63
aa(lp64
F0.27622003888382
aI70
aI101
aI1
aS'on'
p65
aa(lp66
F0.46281539719166
aI70
aI0
aI1
aS'off'
p67
aa(lp68
F0.28718460280834
aI72
aI49
aI1
aS'on'
p69
aa(lp70
F0.49852953204072
aI72
aI0
aI1
aS'off'
p71
aa(lp72
F0.25147046795928
aI75
aI80
aI1
aS'on'
p73
aa(lp74
F0.43888649083874
aI75
aI0
aI1
aS'off'
p75
aa(lp76
F0.31111350916126
aI77
aI73
aI1
aS'on'
p77
aa(lp78
F0.5672327104644
aI77
aI0
aI1
aS'off'
p79
aa(lp80
F0.1827672895356
aI75
aI44
aI1
aS'on'
p81
aa(lp82
F0.51990647963476
aI75
aI0
aI1
aS'off'
p83
aa(lp84
F0.23009352036524
aI72
aI43
aI1
aS'on'
p85
aa(lp86
F0.55468739409753
aI72
aI0
aI1
aS'off'
p87
aa(lp88
F0.19531260590247
aI70
aI64
aI1
aS'on'
p89
aa(lp90
F0.56585789757082
aI70
aI0
aI1
aS'off'
p91
aa(lp92
F0.43414210242918
aI68
aI87
aI1
aS'on'
p93
aa(lp94
F0.44036509832722
aI68
aI0
aI1
aS'off'
p95
aa(lp96
F0.30963490167278
aI0
aI0
aI0
aS'timeAfterLastHit'
p97
aaa(lp98
(lp99
F0.14879124294384
aI70
aI83
aI1
aS'on'
p100
aa(lp101
F0.52055605936721
aI70
aI0
aI1
aS'off'
p102
aa(lp103
F0.25483319630166
aI72
aI84
aI1
aS'on'
p104
aa(lp105
F0.47476195200397
aI72
aI0
aI1
aS'off'
p106
aa(lp107
F0.28825174534904
aI75
aI71
aI1
aS'on'
p108
aa(lp109
F0.484444098312
aI75
aI0
aI1
aS'off'
p110
aa(lp111
F0.26539891902621
aI77
aI18
aI1
aS'on'
p112
aa(lp113
F0.55717864790086
aI77
aI0
aI1
aS'off'
p114
aa(lp115
F0.27654690028021
aI80
aI70
aI1
aS'on'
p116
aa(lp117
F0.53293372285316
aI80
aI0
aI1
aS'off'
p118
aa(lp119
F0.25545071863417
aI82
aI45
aI1
aS'on'
p120
aa(lp121
F0.58994128843869
aI82
aI0
aI1
aS'off'
p122
aa(lp123
F0.19638516173745
aI80
aI74
aI1
aS'on'
p124
aa(lp125
F0.5681461197014
aI80
aI0
aI1
aS'off'
p126
aa(lp127
F0.22918518672714
aI77
aI29
aI1
aS'on'
p128
aa(lp129
F0.49720897591533
aI77
aI0
aI1
aS'off'
p130
aa(lp131
F0.15113372156065
aI75
aI67
aI1
aS'on'
p132
aa(lp133
F0.61147737314923
aI75
aI0
aI1
aS'off'
p134
aa(lp135
F0.26424219684577
aI72
aI47
aI1
aS'on'
p136
aa(lp137
F0.65929630434493
aI72
aI0
aI1
aS'off'
p138
aa(lp139
F0.17383646860708
aI0
aI0
aI0
aS'timeAfterLastHit'
p140
aaaI0
aI0
aa(lp141
(lp142
(lp143
F0.0
aI41
aI9
aI2
aS'on'
p144
aa(lp145
F0.078317564050849
aI31
aI10
aI2
aS'on'
p146
aa(lp147
F7.1416538750236
aI41
aI0
aI2
aS'off'
p148
aa(lp149
F0.046898447969852
aI31
aI0
aI2
aS'off'
p150
aa(lp151
F0.72838229416357
aI39
aI7
aI2
aS'on'
p152
aa(lp153
F0.10430063778222
aI29
aI26
aI2
aS'on'
p154
aa(lp155
F7.7979187792748
aI39
aI0
aI2
aS'off'
p156
aa(lp157
F0.023129541145863
aI29
aI0
aI2
aS'off'
p158
aa(lp159
F0.079398860589208
aI0
aI0
aI0
aS'timeAfterLastHit'
p160
aaa(lp161
(lp162
F0.0
aI29
aI115
aI2
aS'on'
p163
aa(lp164
F1.695377137632
aI32
aI116
aI2
aS'on'
p165
aa(lp166
F0.010871297194171
aI29
aI0
aI2
aS'off'
p167
aa(lp168
F0.28202323089135
aI34
aI116
aI2
aS'on'
p169
aa(lp170
F0.1187415534132
aI32
aI0
aI2
aS'off'
p171
aa(lp172
F0.62147284940329
aI36
aI121
aI2
aS'on'
p173
aa(lp174
F0.10812776300736
aI34
aI0
aI2
aS'off'
p175
aa(lp176
F0.8467154678583
aI39
aI116
aI2
aS'on'
p177
aa(lp178
F0.13033236016781
aI36
aI0
aI2
aS'off'
p179
aa(lp180
F0.79291776741229
aI41
aI121
aI2
aS'on'
p181
aa(lp182
F0.15192301477509
aI39
aI0
aI2
aS'off'
p183
aa(lp184
F0.83516054753636
aI44
aI117
aI2
aS'on'
p185
aa(lp186
F0.1630223607026
aI41
aI0
aI2
aS'off'
p187
aa(lp188
F0.86983427129599
aI46
aI120
aI2
aS'on'
p189
aa(lp190
F0.064834767674256
aI44
aI0
aI2
aS'off'
p191
aa(lp192
F1.2053164599674
aI50
aI99
aI2
aS'on'
p193
aa(lp194
F0.2492237693732
aI46
aI0
aI2
aS'off'
p195
aa(lp196
F1.779653078358
aI44
aI62
aI2
aS'on'
p197
aa(lp198
F0.18403244554065
aI50
aI0
aI2
aS'off'
p199
aa(lp200
F1.5194188249952
aI46
aI112
aI2
aS'on'
p201
aa(lp202
F0.21745021061906
aI44
aI0
aI2
aS'off'
p203
aa(lp204
F2.0946854248305
aI41
aI103
aI2
aS'on'
p205
aa(lp206
F0.14206011613715
aI46
aI0
aI2
aS'off'
p207
aa(lp208
F0.19350693671004
aI39
aI103
aI2
aS'on'
p209
aa(lp210
F0.032691164991775
aI41
aI0
aI2
aS'off'
p211
aa(lp212
F0.32645951076483
aI36
aI114
aI2
aS'on'
p213
aa(lp214
F0.011029169261747
aI39
aI0
aI2
aS'off'
p215
aa(lp216
F0.21684822397947
aI35
aI111
aI2
aS'on'
p217
aa(lp218
F0.17350339892073
aI36
aI0
aI2
aS'off'
p219
aa(lp220
F0.22856878979474
aI35
aI0
aI2
aS'off'
p221
aa(lp222
F0.010194173013588
aI34
aI115
aI2
aS'on'
p223
aa(lp224
F0.29404897563472
aI32
aI120
aI2
aS'on'
p225
aa(lp226
F0.065442271470602
aI34
aI0
aI2
aS'off'
p227
aa(lp228
F0.26008167220243
aI32
aI0
aI2
aS'off'
p229
aa(lp230
F0.10443099447002
aI0
aI0
aI0
aS'timeAfterLastHit'
p231
aaaI0
aI0
aa(lp232
(lp233
(lp234
F0.0
aI36
aI110
aI3
aS'on'
p235
aa(lp236
F0.11084379336376
aI36
aI0
aI3
aS'off'
p237
aa(lp238
F0.88915620663624
aI38
aI112
aI3
aS'on'
p239
aa(lp240
F0.18630394204251
aI38
aI0
aI3
aS'off'
p241
aa(lp242
F0.81369605795749
aI36
aI107
aI3
aS'on'
p243
aa(lp244
F0.13812222510046
aI36
aI0
aI3
aS'off'
p245
aa(lp246
F0.86187777489954
aI38
aI103
aI3
aS'on'
p247
aa(lp248
F0.11504280335657
aI38
aI0
aI3
aS'off'
p249
aa(lp250
F0.88495719664343
aI36
aI98
aI3
aS'on'
p251
aa(lp252
F0.13863779486201
aI36
aI0
aI3
aS'off'
p253
aa(lp254
F0.86136220513799
aI38
aI99
aI3
aS'on'
p255
aa(lp256
F0.1503529092663
aI38
aI0
aI3
aS'off'
p257
aa(lp258
F0.8496470907337
aI36
aI99
aI3
aS'on'
p259
aa(lp260
F0.15073370615437
aI36
aI0
aI3
aS'off'
p261
aa(lp262
F0.84926629384563
aI38
aI103
aI3
aS'on'
p263
aa(lp264
F0.11584862780842
aI38
aI0
aI3
aS'off'
p265
aa(lp266
F0.88415137219158
aI0
aI0
aI0
aS'timeAfterLastHit'
p267
aaa(lp268
(lp269
F0.5
aI42
aI98
aI3
aS'on'
p270
aa(lp271
F0.15080598954319
aI42
aI0
aI3
aS'off'
p272
aa(lp273
F0.59919401045681
aI44
aI97
aI3
aS'on'
p274
aa(lp275
F0.092536301768632
aI44
aI0
aI3
aS'off'
p276
aa(lp277
F0.40746369823137
aI44
aI95
aI3
aS'on'
p278
aa(lp279
F0.12682515272331
aI44
aI0
aI3
aS'off'
p280
aa(lp281
F0.62317484727669
aI42
aI108
aI3
aS'on'
p282
aa(lp283
F0.16232490744187
aI42
aI0
aI3
aS'off'
p284
aa(lp285
F0.83767509255813
aI44
aI108
aI3
aS'on'
p286
aa(lp287
F0.12723103474195
aI44
aI0
aI3
aS'off'
p288
aa(lp289
F0.37276896525805
aI0
aI0
aI0
aS'timeAfterLastHit'
p290
aaa(lp291
(lp292
F0.97247410366981
aI52
aI99
aI3
aS'on'
p293
aa(lp294
F0.27203972487041
aI52
aI0
aI3
aS'off'
p295
aa(lp296
F0.72687115340523
aI53
aI118
aI3
aS'on'
p297
aa(lp298
F1.6720710572918
aI53
aI0
aI3
aS'off'
p299
aa(lp300
F0.94428698868614
aI52
aI110
aI3
aS'on'
p301
aa(lp302
F0.1954965610912
aI52
aI0
aI3
aS'off'
p303
aa(lp304
F1.1721178036696
aI53
aI118
aI3
aS'on'
p305
aa(lp306
F1.628100460377
aI53
aI0
aI3
aS'off'
p307
aa(lp308
F0.41654214693881
aI0
aI0
aI0
aS'timeAfterLastHit'
p309
aaa(lp310
(lp311
F0.005143224477024
aI36
aI116
aI3
aS'on'
p312
aa(lp313
F0.00020365741875139
aI37
aI112
aI3
aS'on'
p314
aa(lp315
F0.14131478096419
aI37
aI0
aI3
aS'off'
p316
aa(lp317
F0.84442223999304
aI36
aI0
aI3
aS'off'
p318
aa(lp319
F0.61936861012487
aI36
aI124
aI3
aS'on'
p320
aa(lp321
F0.38067164356153
aI40
aI116
aI3
aS'on'
p322
aa(lp323
F0.065046331358417
aI36
aI0
aI3
aS'off'
p324
aa(lp325
F0.85628889631766
aI40
aI0
aI3
aS'off'
p326
aa(lp327
F0.65196638612179
aI36
aI125
aI3
aS'on'
p328
aa(lp329
F0.51946836522734
aI36
aI0
aI3
aS'off'
p330
aa(lp331
F0.9559912998518
aI36
aI121
aI3
aS'on'
p332
aa(lp333
F0.8888820560021
aI40
aI118
aI3
aS'on'
p334
aa(lp335
F0.075507202268909
aI36
aI0
aI3
aS'off'
p336
aa(lp337
F1.0179715155921
aI40
aI0
aI3
aS'off'
p338
aa(lp339
F0.9777537907205
aI0
aI0
aI0
aS'timeAfterLastHit'
p340
aaaaa(lp341
(lp342
(dp343
S'button'
p344
S'50'
p345
sS'playing'
p346
I1
sa(dp347
g344
S'60'
p348
sg346
I1
sa(dp349
a(dp350
aa(lp351
(dp352
g344
S'59'
p353
sg346
I0
sa(dp354
g344
S'69'
p355
sg346
I0
sa(dp356
a(dp357
aa(lp358
(dp359
g344
S'10'
p360
sg346
I0
sa(dp361
g344
S'20'
p362
sg346
I1
sa(dp363
a(dp364
aa(lp365
(dp366
g344
S'19'
p367
sg346
I0
sa(dp368
g344
S'29'
p369
sg346
I0
sa(dp370
g344
S'39'
p371
sg346
I01
sa(dp372
g344
S'49'
p373
sg346
I1
saaa(lp374
I60
aI60
aI36
aI36
aa(lp375
(lp376
I0
aI2
aI3
aI5
aI7
aI8
aI10
aa(lp377
I0
aI2
aI3
aI5
aI7
aI8
aI10
aa(lp378
I0
aI2
aI3
aI5
aI7
aI8
aI10
aa(lp379
I0
aI1
aI2
aI3
aI4
aI5
aI6
aI7
aI8
aI9
aI10
aI11
aaa(lp380
(lp381
(lp382
I1
aI14
aI22
aI34
aI46
aI56
aI66
aI75
aI85
aI96
aI113
aI127
aa(lp383
I0
aI0
aI0
aI0
aI0
aI0
aI0
aI0
aI0
aI0
aI0
aI0
aa(lp384
I0
aI0
aI0
aI0
aI0
aI0
aI0
aI0
aI0
aI0
aI0
aI0
aa(lp385
I0
aI0
aI0
aI0
aI0
aI0
aI0
aI0
aI0
aI0
aI0
aI0
aaa(lp386
(lp387
I0
aI0
aI3
aI10
aI19
aI30
aI44
aI56
aI71
aI96
aI115
aI127
aa(lp388
I0
aI0
aI0
aI0
aI0
aI0
aI0
aI0
aI0
aI0
aI0
aI0
aa(lp389
I0
aI0
aI0
aI0
aI0
aI0
aI0
aI0
aI0
aI0
aI0
aI0
aa(lp390
I0
aI0
aI0
aI0
aI0
aI0
aI0
aI0
aI0
aI0
aI0
aI0
aaa(lp391
(lp392
I1
aI9
aI13
aI25
aI37
aI50
aI63
aI78
aI94
aI108
aI127
aI127
aa(lp393
I0
aI0
aI0
aI0
aI0
aI0
aI0
aI0
aI0
aI0
aI0
aI0
aa(lp394
I0
aI0
aI0
aI0
aI0
aI0
aI0
aI0
aI0
aI0
aI0
aI0
aa(lp395
I0
aI0
aI0
aI0
aI0
aI0
aI0
aI0
aI0
aI0
aI0
aI0
aaa(lp396
(lp397
I0
aI0
aI6
aI20
aI33
aI54
aI72
aI89
aI104
aI126
aI127
aI127
aa(lp398
I0
aI0
aI0
aI0
aI0
aI0
aI0
aI0
aI0
aI0
aI0
aI0
aa(lp399
I0
aI0
aI0
aI0
aI0
aI0
aI0
aI0
aI0
aI0
aI0
aI0
aa(lp400
I0
aI0
aI0
aI0
aI0
aI0
aI0
aI0
aI0
aI0
aI0
aI0
aaaa(lp401
(lp402
I0
aI64
aI75
aI96
aI54
aI0
aI0
aI0
aI0
aI0
aI18
aI4
aa(lp403
I127
aI120
aI104
aI88
aI76
aI70
aI64
aI60
aI52
aI43
aI33
aI17
aa(lp404
I127
aI106
aI93
aI83
aI71
aI58
aI51
aI42
aI36
aI30
aI23
aI12
aa(lp405
I124
aI102
aI85
aI70
aI61
aI54
aI45
aI39
aI34
aI28
aI24
aI16
aaaaI0
aI0
aI0
aI0
aI0
aI0
aI0
aI0
aI0
a(lp406
(lp407
(lp408
(lp409
(lp410
F0.0
aI60
aI103
aI0
aS'on'
p411
aa(lp412
F0.33841775934707
aI60
aI0
aI0
aS'off'
p413
aa(lp414
F0.41158224065293
aI75
aI101
aI0
aS'on'
p415
aa(lp416
F0.24231219552848
aI75
aI0
aI0
aS'off'
p417
aa(lp418
F0.25768780447152
aI60
aI98
aI0
aS'on'
p419
aa(lp420
F0.16119843601814
aI60
aI0
aI0
aS'off'
p421
aa(lp422
F0.08880156398186
aI75
aI115
aI0
aS'on'
p423
aa(lp424
F0.26654188684302
aI75
aI0
aI0
aS'off'
p425
aa(lp426
F0.23345811315698
aI60
aI112
aI0
aS'on'
p427
aa(lp428
F0.35858466563764
aI60
aI0
aI0
aS'off'
p429
aa(lp430
F0.39141533436236
aI75
aI118
aI0
aS'on'
p431
aa(lp432
F0.23110779041986
aI75
aI0
aI0
aS'off'
p433
aa(lp434
F0.26889220958014
aI75
aI116
aI0
aS'on'
p435
aa(lp436
F0.18472542744757
aI75
aI0
aI0
aS'off'
p437
aa(lp438
F0.56527457255243
aI75
aI119
aI0
aS'on'
p439
aa(lp440
F0.21938824675613
aI75
aI0
aI0
aS'off'
p441
aa(lp442
F0.53061175324387
aI75
aI119
aI0
aS'on'
p443
aa(lp444
F0.21999133142822
aI75
aI0
aI0
aS'off'
p445
aa(lp446
F0.53000866857178
aI75
aI119
aI0
aS'on'
p447
aa(lp448
F0.19587320526057
aI75
aI0
aI0
aS'off'
p449
aa(lp450
F0.30412679473943
aI75
aI119
aI0
aS'on'
p451
aa(lp452
F0.20744331062519
aI75
aI0
aI0
aS'off'
p453
aa(lp454
F0.54255668937481
aI75
aI119
aI0
aS'on'
p455
aa(lp456
F0.22036238085002
aI75
aI0
aI0
aS'off'
p457
aa(lp458
F0.52963761914998
aI75
aI123
aI0
aS'on'
p459
aa(lp460
F0.19622545852462
aI75
aI0
aI0
aS'off'
p461
aa(lp462
F0.30377454147538
aI0
aI0
aI0
aS'timeAfterLastHit'
p463
aaa(lp464
(lp465
F0.0
aI77
aI122
aI0
aS'on'
p466
aa(lp467
F0.48095641978671
aI77
aI0
aI0
aS'off'
p468
aa(lp469
F0.21807053216708
aI77
aI112
aI0
aS'on'
p470
aa(lp471
F0.35891732667096
aI77
aI0
aI0
aS'off'
p472
aa(lp473
F0.13912521240172
aI75
aI111
aI0
aS'on'
p474
aa(lp475
F0.27815991798752
aI77
aI100
aI0
aS'on'
p476
aa(lp477
F0.045852424101213
aI75
aI0
aI0
aS'off'
p478
aa(lp479
F0.32332493343029
aI77
aI0
aI0
aS'off'
p480
aa(lp481
F0.21972556481433
aI77
aI121
aI0
aS'on'
p482
aa(lp483
F0.42826682314126
aI77
aI0
aI0
aS'off'
p484
aa(lp485
F0.32348534426319
aI77
aI121
aI0
aS'on'
p486
aa(lp487
F0.40623135768874
aI77
aI0
aI0
aS'off'
p488
aa(lp489
F0.31310990057136
aI77
aI120
aI0
aS'on'
p490
aa(lp491
F0.24170501550498
aI77
aI0
aI0
aS'off'
p492
aa(lp493
F0.23092528857387
aI77
aI120
aI0
aS'on'
p494
aa(lp495
F0.45154493796281
aI77
aI0
aI0
aS'off'
p496
aa(lp497
F0.32388265302234
aI77
aI122
aI0
aS'on'
p498
aa(lp499
F0.39308472348876
aI77
aI0
aI0
aS'off'
p500
aa(lp501
F0.33503762865848
aI77
aI120
aI0
aS'on'
p502
aa(lp503
F0.32331475696947
aI77
aI0
aI0
aS'off'
p504
aa(lp505
F0.16223093107556
aI75
aI119
aI0
aS'on'
p506
aa(lp507
F0.023462978350381
aI76
aI61
aI0
aS'on'
p508
aa(lp509
F0.057487789725201
aI76
aI0
aI0
aS'off'
p510
aa(lp511
F0.32490161263604
aI75
aI0
aI0
aS'off'
p512
aa(lp513
F0.34655101827593
aI75
aI122
aI0
aS'on'
p514
aa(lp515
F0.42909027396627
aI75
aI0
aI0
aS'off'
p516
aa(lp517
F0.26525156157277
aI75
aI123
aI0
aS'on'
p518
aa(lp519
F0.54630307319258
aI75
aI0
aI0
aS'off'
p520
aa(lp521
F0.010000000000218
aI0
aI0
aI0
aS'timeAfterLastHit'
p522
aaaI0
aI0
aa(lp523
(lp524
(lp525
F0.0
aI65
aI96
aI1
ag57
aa(lp526
F0.53243221040566
aI65
aI0
aI1
ag59
aa(lp527
F0.46756778959434
aI68
aI44
aI1
ag61
aa(lp528
F0.47377996111618
aI68
aI0
aI1
ag63
aa(lp529
F0.27622003888382
aI70
aI101
aI1
ag65
aa(lp530
F0.46281539719166
aI70
aI0
aI1
ag67
aa(lp531
F0.28718460280834
aI72
aI49
aI1
ag69
aa(lp532
F0.49852953204072
aI72
aI0
aI1
ag71
aa(lp533
F0.25147046795928
aI75
aI80
aI1
ag73
aa(lp534
F0.43888649083874
aI75
aI0
aI1
ag75
aa(lp535
F0.31111350916126
aI77
aI73
aI1
ag77
aa(lp536
F0.5672327104644
aI77
aI0
aI1
ag79
aa(lp537
F0.1827672895356
aI75
aI44
aI1
ag81
aa(lp538
F0.51990647963476
aI75
aI0
aI1
ag83
aa(lp539
F0.23009352036524
aI72
aI43
aI1
ag85
aa(lp540
F0.55468739409753
aI72
aI0
aI1
ag87
aa(lp541
F0.19531260590247
aI70
aI64
aI1
ag89
aa(lp542
F0.56585789757082
aI70
aI0
aI1
ag91
aa(lp543
F0.43414210242918
aI68
aI87
aI1
ag93
aa(lp544
F0.44036509832722
aI68
aI0
aI1
ag95
aa(lp545
F0.30963490167278
aI0
aI0
aI0
ag97
aaa(lp546
(lp547
F0.14879124294384
aI70
aI83
aI1
ag100
aa(lp548
F0.52055605936721
aI70
aI0
aI1
ag102
aa(lp549
F0.25483319630166
aI72
aI84
aI1
ag104
aa(lp550
F0.47476195200397
aI72
aI0
aI1
ag106
aa(lp551
F0.28825174534904
aI75
aI71
aI1
ag108
aa(lp552
F0.484444098312
aI75
aI0
aI1
ag110
aa(lp553
F0.26539891902621
aI77
aI18
aI1
ag112
aa(lp554
F0.55717864790086
aI77
aI0
aI1
ag114
aa(lp555
F0.27654690028021
aI80
aI70
aI1
ag116
aa(lp556
F0.53293372285316
aI80
aI0
aI1
ag118
aa(lp557
F0.25545071863417
aI82
aI45
aI1
ag120
aa(lp558
F0.58994128843869
aI82
aI0
aI1
ag122
aa(lp559
F0.19638516173745
aI80
aI74
aI1
ag124
aa(lp560
F0.5681461197014
aI80
aI0
aI1
ag126
aa(lp561
F0.22918518672714
aI77
aI29
aI1
ag128
aa(lp562
F0.49720897591533
aI77
aI0
aI1
ag130
aa(lp563
F0.15113372156065
aI75
aI67
aI1
ag132
aa(lp564
F0.61147737314923
aI75
aI0
aI1
ag134
aa(lp565
F0.26424219684577
aI72
aI47
aI1
ag136
aa(lp566
F0.65929630434493
aI72
aI0
aI1
ag138
aa(lp567
F0.17383646860708
aI0
aI0
aI0
ag140
aaaI0
aI0
aa(lp568
(lp569
(lp570
F0.0
aI41
aI9
aI2
ag144
aa(lp571
F0.078317564050849
aI31
aI10
aI2
ag146
aa(lp572
F7.1416538750236
aI41
aI0
aI2
ag148
aa(lp573
F0.046898447969852
aI31
aI0
aI2
ag150
aa(lp574
F0.72838229416357
aI39
aI7
aI2
ag152
aa(lp575
F0.10430063778222
aI29
aI26
aI2
ag154
aa(lp576
F7.7979187792748
aI39
aI0
aI2
ag156
aa(lp577
F0.023129541145863
aI29
aI0
aI2
ag158
aa(lp578
F0.079398860589208
aI0
aI0
aI0
ag160
aaa(lp579
(lp580
F0.0
aI24
aI86
aI2
aS'on'
p581
aa(lp582
F0.44795046054469
aI24
aI0
aI2
aS'off'
p583
aa(lp584
F0.035087234339699
aI27
aI94
aI2
aS'on'
p585
aa(lp586
F0.41689155653603
aI27
aI0
aI2
aS'off'
p587
aa(lp588
F0.081100347899337
aI29
aI72
aI2
aS'on'
p589
aa(lp590
F0.36792911132989
aI29
aI0
aI2
aS'off'
p591
aa(lp592
F0.10504497005104
aI31
aI95
aI2
aS'on'
p593
aa(lp594
F0.30017004621914
aI34
aI104
aI2
aS'on'
p595
aa(lp596
F0.00019672500911838
aI31
aI0
aI2
aS'off'
p597
aa(lp598
F0.3236034880656
aI34
aI0
aI2
aS'off'
p599
aa(lp600
F0.15069417451787
aI36
aI101
aI2
aS'on'
p601
aa(lp602
F0.41801737562264
aI36
aI0
aI2
aS'off'
p603
aa(lp604
F0.12877390739959
aI34
aI111
aI2
aS'on'
p605
aa(lp606
F0.36799194799096
aI34
aI0
aI2
aS'off'
p607
aa(lp608
F0.12664910127569
aI31
aI114
aI2
aS'on'
p609
aa(lp610
F0.16189798920595
aI31
aI0
aI2
aS'off'
p611
aa(lp612
F0.02333782026335
aI29
aI114
aI2
aS'on'
p613
aa(lp614
F0.25402735415992
aI29
aI0
aI2
aS'off'
p615
aa(lp616
F0.2906363895695
aI0
aI0
aI0
aS'timeAfterLastHit'
p617
aaaI0
aI0
aa(lp618
(lp619
(lp620
F0.0
aI36
aI110
aI3
ag235
aa(lp621
F0.11084379336376
aI36
aI0
aI3
ag237
aa(lp622
F0.88915620663624
aI38
aI112
aI3
ag239
aa(lp623
F0.18630394204251
aI38
aI0
aI3
ag241
aa(lp624
F0.81369605795749
aI36
aI107
aI3
ag243
aa(lp625
F0.13812222510046
aI36
aI0
aI3
ag245
aa(lp626
F0.86187777489954
aI38
aI103
aI3
ag247
aa(lp627
F0.11504280335657
aI38
aI0
aI3
ag249
aa(lp628
F0.88495719664343
aI36
aI98
aI3
ag251
aa(lp629
F0.13863779486201
aI36
aI0
aI3
ag253
aa(lp630
F0.86136220513799
aI38
aI99
aI3
ag255
aa(lp631
F0.1503529092663
aI38
aI0
aI3
ag257
aa(lp632
F0.8496470907337
aI36
aI99
aI3
ag259
aa(lp633
F0.15073370615437
aI36
aI0
aI3
ag261
aa(lp634
F0.84926629384563
aI38
aI103
aI3
ag263
aa(lp635
F0.11584862780842
aI38
aI0
aI3
ag265
aa(lp636
F0.88415137219158
aI0
aI0
aI0
ag267
aaa(lp637
(lp638
F0.5
aI42
aI98
aI3
ag270
aa(lp639
F0.15080598954319
aI42
aI0
aI3
ag272
aa(lp640
F0.59919401045681
aI44
aI97
aI3
ag274
aa(lp641
F0.092536301768632
aI44
aI0
aI3
ag276
aa(lp642
F0.40746369823137
aI44
aI95
aI3
ag278
aa(lp643
F0.12682515272331
aI44
aI0
aI3
ag280
aa(lp644
F0.62317484727669
aI42
aI108
aI3
ag282
aa(lp645
F0.16232490744187
aI42
aI0
aI3
ag284
aa(lp646
F0.83767509255813
aI44
aI108
aI3
ag286
aa(lp647
F0.12723103474195
aI44
aI0
aI3
ag288
aa(lp648
F0.37276896525805
aI0
aI0
aI0
ag290
aaa(lp649
(lp650
F0.5
aI43
aI101
aI3
aS'on'
p651
aa(lp652
F0.13960013381347
aI43
aI0
aI3
aS'off'
p653
aa(lp654
F1.8603998661865
aI41
aI110
aI3
aS'on'
p655
aa(lp656
F0.41520583529177
aI41
aI0
aI3
aS'off'
p657
aa(lp658
F1.0847941647082
aI0
aI0
aI0
aS'timeAfterLastHit'
p659
aaa(lp660
(lp661
F0.75
aI48
aI105
aI3
aS'on'
p662
aa(lp663
F0.15085986596523
aI48
aI0
aI3
aS'off'
p664
aa(lp665
F0.34914013403477
aI48
aI108
aI3
aS'on'
p666
aa(lp667
F0.13838531381452
aI48
aI0
aI3
aS'off'
p668
aa(lp669
F0.61161468618548
aI48
aI105
aI3
aS'on'
p670
aa(lp671
F0.12700164422176
aI48
aI0
aI3
aS'off'
p672
aa(lp673
F0.62299835577824
aI48
aI98
aI3
aS'on'
p674
aa(lp675
F0.12655287821599
aI48
aI0
aI3
aS'off'
p676
aa(lp677
F0.62344712178401
aI48
aI109
aI3
aS'on'
p678
aa(lp679
F0.11580968438102
aI48
aI0
aI3
aS'off'
p680
aa(lp681
F0.63419031561898
aI48
aI108
aI3
aS'on'
p682
aa(lp683
F0.12676373130216
aI48
aI0
aI3
aS'off'
p684
aa(lp685
F0.62323626869784
aI48
aI109
aI3
aS'on'
p686
aa(lp687
F0.1389230453517
aI48
aI0
aI3
aS'off'
p688
aa(lp689
F0.6110769546483
aI48
aI105
aI3
aS'on'
p690
aa(lp691
F0.12850425329771
aI48
aI0
aI3
aS'off'
p692
aa(lp693
F0.62149574670229
aI48
aI108
aI3
aS'on'
p694
aa(lp695
F0.11480366758133
aI48
aI0
aI3
aS'off'
p696
aa(lp697
F0.88519633241867
aI48
aI110
aI3
aS'on'
p698
aa(lp699
F0.15085531287241
aI48
aI0
aI3
aS'off'
p700
aa(lp701
F0.59914468712759
aI48
aI101
aI3
aS'on'
p702
aa(lp703
F0.15053405778963
aI48
aI0
aI3
aS'off'
p704
aa(lp705
F0.34946594221037
aI47
aI111
aI3
aS'on'
p706
aa(lp707
F0.13893616064706
aI47
aI0
aI3
aS'off'
p708
aa(lp709
F0.61106383935294
aI47
aI105
aI3
aS'on'
p710
aa(lp711
F0.10390487915265
aI47
aI0
aI3
aS'off'
p712
aa(lp713
F0.64609512084735
aI47
aI105
aI3
aS'on'
p714
aa(lp715
F0.10457980052843
aI47
aI0
aI3
aS'off'
p716
aa(lp717
F0.64542019947157
aI47
aI111
aI3
aS'on'
p718
aa(lp719
F0.11545970655789
aI47
aI0
aI3
aS'off'
p720
aa(lp721
F0.63454029344211
aI47
aI110
aI3
aS'on'
p722
aa(lp723
F0.11598282131808
aI47
aI0
aI3
aS'off'
p724
aa(lp725
F0.63401717868192
aI47
aI107
aI3
aS'on'
p726
aa(lp727
F0.10448925833066
aI47
aI0
aI3
aS'off'
p728
aa(lp729
F0.64551074166934
aI47
aI109
aI3
aS'on'
p730
aa(lp731
F0.10392974536376
aI47
aI0
aI3
aS'off'
p732
aa(lp733
F0.64607025463624
aI47
aI112
aI3
aS'on'
p734
aa(lp735
F0.11598487341644
aI47
aI0
aI3
aS'off'
p736
aa(lp737
F0.63401512658356
aI47
aI109
aI3
aS'on'
p738
aa(lp739
F0.12727870400954
aI47
aI0
aI3
aS'off'
p740
aa(lp741
F0.62272129599046
aI47
aI114
aI3
aS'on'
p742
aa(lp743
F0.16164825018586
aI47
aI0
aI3
aS'off'
p744
aa(lp745
F0.33835174981414
aI0
aI0
aI0
aS'timeAfterLastHit'
p746
aaaaa(lp747
(lp748
(dp749
g344
S'50'
p750
sg346
I1
sa(dp751
g344
S'60'
p752
sg346
I1
sa(dp753
a(dp754
aa(lp755
(dp756
g344
g353
sg346
I0
sa(dp757
g344
g355
sg346
I0
sa(dp758
a(dp759
aa(lp760
(dp761
g344
g360
sg346
I1
sa(dp762
g344
S'20'
p763
sg346
I0
sa(dp764
a(dp765
aa(lp766
(dp767
g344
g367
sg346
I0
sa(dp768
g344
g369
sg346
I1
sa(dp769
g344
S'39'
p770
sg346
I1
sa(dp771
g344
S'49'
p772
sg346
I0
saaa(lp773
I60
aI60
aI36
aI36
aa(lp774
(lp775
I0
aI2
aI3
aI5
aI7
aI8
aI10
aa(lp776
I0
aI2
aI3
aI5
aI7
aI8
aI10
aa(lp777
I0
aI2
aI3
aI5
aI7
aI8
aI10
aa(lp778
I0
aI1
aI2
aI3
aI4
aI5
aI6
aI7
aI8
aI9
aI10
aI11
aaa(lp779
(lp780
(lp781
I1
aI14
aI22
aI34
aI46
aI56
aI66
aI75
aI85
aI96
aI113
aI127
aa(lp782
I0
aI0
aI0
aI0
aI0
aI0
aI0
aI0
aI0
aI0
aI0
aI0
aa(lp783
I0
aI0
aI0
aI0
aI0
aI0
aI0
aI0
aI0
aI0
aI0
aI0
aa(lp784
I0
aI0
aI0
aI0
aI0
aI0
aI0
aI0
aI0
aI0
aI0
aI0
aaa(lp785
(lp786
I0
aI0
aI3
aI10
aI19
aI30
aI44
aI56
aI71
aI96
aI115
aI127
aa(lp787
I0
aI0
aI0
aI0
aI0
aI0
aI0
aI0
aI0
aI0
aI0
aI0
aa(lp788
I0
aI0
aI0
aI0
aI0
aI0
aI0
aI0
aI0
aI0
aI0
aI0
aa(lp789
I0
aI0
aI0
aI0
aI0
aI0
aI0
aI0
aI0
aI0
aI0
aI0
aaa(lp790
(lp791
I1
aI9
aI13
aI25
aI37
aI50
aI63
aI78
aI94
aI108
aI127
aI127
aa(lp792
I0
aI0
aI0
aI0
aI0
aI0
aI0
aI0
aI0
aI0
aI0
aI0
aa(lp793
I0
aI0
aI0
aI0
aI0
aI0
aI0
aI0
aI0
aI0
aI0
aI0
aa(lp794
I0
aI0
aI0
aI0
aI0
aI0
aI0
aI0
aI0
aI0
aI0
aI0
aaa(lp795
(lp796
I0
aI0
aI6
aI20
aI33
aI54
aI72
aI89
aI104
aI126
aI127
aI127
aa(lp797
I0
aI0
aI0
aI0
aI0
aI0
aI0
aI0
aI0
aI0
aI0
aI0
aa(lp798
I0
aI0
aI0
aI0
aI0
aI0
aI0
aI0
aI0
aI0
aI0
aI0
aa(lp799
I0
aI0
aI0
aI0
aI0
aI0
aI0
aI0
aI0
aI0
aI0
aI0
aaaa(lp800
(lp801
I0
aI64
aI75
aI96
aI54
aI0
aI0
aI0
aI0
aI0
aI18
aI4
aa(lp802
I127
aI120
aI104
aI88
aI76
aI70
aI64
aI60
aI52
aI43
aI33
aI17
aa(lp803
I127
aI106
aI93
aI83
aI71
aI58
aI51
aI42
aI36
aI30
aI23
aI12
aa(lp804
I124
aI102
aI85
aI70
aI61
aI54
aI45
aI39
aI34
aI28
aI24
aI16
aaaa(lp805
(lp806
(lp807
(lp808
(lp809
F0.0
aI60
aI61
aI0
ag6
aa(lp810
F5.9346758609299
aI63
aI93
aI0
ag8
aa(lp811
F0.15111653422082
aI60
aI0
aI0
ag10
aa(lp812
F1.8999111920766
aI65
aI73
aI0
ag12
aa(lp813
F0.075533015425435
aI63
aI0
aI0
ag14
aa(lp814
F7.6716440008051
aI65
aI0
aI0
ag16
aa(lp815
F0.26711939654206
aI0
aI0
aI0
ag18
aaa(lp816
(lp817
F0.0
aI65
aI98
aI0
ag21
aa(lp818
F5.9869294616665
aI68
aI84
aI0
ag23
aa(lp819
F0.15163402407688
aI65
aI0
aI0
ag25
aa(lp820
F1.8671154294191
aI70
aI89
aI0
ag27
aa(lp821
F0.088136322278615
aI68
aI0
aI0
ag29
aa(lp822
F6.1789418135029
aI72
aI102
aI0
ag31
aa(lp823
F0.043421239143527
aI70
aI0
aI0
ag33
aa(lp824
F0.2067738716687
aI72
aI0
aI0
ag35
aa(lp825
F0.04330646441781
aI75
aI88
aI0
ag37
aa(lp826
F0.26124434982376
aI75
aI0
aI0
ag39
aa(lp827
F0.076575029617288
aI77
aI103
aI0
ag41
aa(lp828
F0.23737957813319
aI77
aI0
aI0
ag43
aa(lp829
F0.022250519506997
aI80
aI105
aI0
ag45
aa(lp830
F0.30432851098908
aI80
aI0
aI0
ag47
aa(lp831
F0.064877537061193
aI82
aI119
aI0
ag49
aa(lp832
F0.32570298145038
aI82
aI0
aI0
ag51
aa(lp833
F0.14138286724415
aI0
aI0
aI0
ag53
aaaI0
aI0
aa(lp834
(lp835
(lp836
F0.0
aI65
aI96
aI1
ag57
aa(lp837
F0.53243221040566
aI65
aI0
aI1
ag59
aa(lp838
F0.46756778959434
aI68
aI44
aI1
ag61
aa(lp839
F0.47377996111618
aI68
aI0
aI1
ag63
aa(lp840
F0.27622003888382
aI70
aI101
aI1
ag65
aa(lp841
F0.46281539719166
aI70
aI0
aI1
ag67
aa(lp842
F0.28718460280834
aI72
aI49
aI1
ag69
aa(lp843
F0.49852953204072
aI72
aI0
aI1
ag71
aa(lp844
F0.25147046795928
aI75
aI80
aI1
ag73
aa(lp845
F0.43888649083874
aI75
aI0
aI1
ag75
aa(lp846
F0.31111350916126
aI77
aI73
aI1
ag77
aa(lp847
F0.5672327104644
aI77
aI0
aI1
ag79
aa(lp848
F0.1827672895356
aI75
aI44
aI1
ag81
aa(lp849
F0.51990647963476
aI75
aI0
aI1
ag83
aa(lp850
F0.23009352036524
aI72
aI43
aI1
ag85
aa(lp851
F0.55468739409753
aI72
aI0
aI1
ag87
aa(lp852
F0.19531260590247
aI70
aI64
aI1
ag89
aa(lp853
F0.56585789757082
aI70
aI0
aI1
ag91
aa(lp854
F0.43414210242918
aI68
aI87
aI1
ag93
aa(lp855
F0.44036509832722
aI68
aI0
aI1
ag95
aa(lp856
F0.30963490167278
aI0
aI0
aI0
ag97
aaa(lp857
(lp858
F0.14879124294384
aI70
aI83
aI1
ag100
aa(lp859
F0.52055605936721
aI70
aI0
aI1
ag102
aa(lp860
F0.25483319630166
aI72
aI84
aI1
ag104
aa(lp861
F0.47476195200397
aI72
aI0
aI1
ag106
aa(lp862
F0.28825174534904
aI75
aI71
aI1
ag108
aa(lp863
F0.484444098312
aI75
aI0
aI1
ag110
aa(lp864
F0.26539891902621
aI77
aI18
aI1
ag112
aa(lp865
F0.55717864790086
aI77
aI0
aI1
ag114
aa(lp866
F0.27654690028021
aI80
aI70
aI1
ag116
aa(lp867
F0.53293372285316
aI80
aI0
aI1
ag118
aa(lp868
F0.25545071863417
aI82
aI45
aI1
ag120
aa(lp869
F0.58994128843869
aI82
aI0
aI1
ag122
aa(lp870
F0.19638516173745
aI80
aI74
aI1
ag124
aa(lp871
F0.5681461197014
aI80
aI0
aI1
ag126
aa(lp872
F0.22918518672714
aI77
aI29
aI1
ag128
aa(lp873
F0.49720897591533
aI77
aI0
aI1
ag130
aa(lp874
F0.15113372156065
aI75
aI67
aI1
ag132
aa(lp875
F0.61147737314923
aI75
aI0
aI1
ag134
aa(lp876
F0.26424219684577
aI72
aI47
aI1
ag136
aa(lp877
F0.65929630434493
aI72
aI0
aI1
ag138
aa(lp878
F0.17383646860708
aI0
aI0
aI0
ag140
aaaI0
aI0
aa(lp879
(lp880
(lp881
F0.0
aI41
aI9
aI2
ag144
aa(lp882
F0.078317564050849
aI31
aI10
aI2
ag146
aa(lp883
F7.1416538750236
aI41
aI0
aI2
ag148
aa(lp884
F0.046898447969852
aI31
aI0
aI2
ag150
aa(lp885
F0.72838229416357
aI39
aI7
aI2
ag152
aa(lp886
F0.10430063778222
aI29
aI26
aI2
ag154
aa(lp887
F7.7979187792748
aI39
aI0
aI2
ag156
aa(lp888
F0.023129541145863
aI29
aI0
aI2
ag158
aa(lp889
F0.079398860589208
aI0
aI0
aI0
ag160
aaa(lp890
(lp891
F0.0
aI24
aI86
aI2
ag581
aa(lp892
F0.44795046054469
aI24
aI0
aI2
ag583
aa(lp893
F0.035087234339699
aI27
aI94
aI2
ag585
aa(lp894
F0.41689155653603
aI27
aI0
aI2
ag587
aa(lp895
F0.081100347899337
aI29
aI72
aI2
ag589
aa(lp896
F0.36792911132989
aI29
aI0
aI2
ag591
aa(lp897
F0.10504497005104
aI31
aI95
aI2
ag593
aa(lp898
F0.30017004621914
aI34
aI104
aI2
ag595
aa(lp899
F0.00019672500911838
aI31
aI0
aI2
ag597
aa(lp900
F0.3236034880656
aI34
aI0
aI2
ag599
aa(lp901
F0.15069417451787
aI36
aI101
aI2
ag601
aa(lp902
F0.41801737562264
aI36
aI0
aI2
ag603
aa(lp903
F0.12877390739959
aI34
aI111
aI2
ag605
aa(lp904
F0.36799194799096
aI34
aI0
aI2
ag607
aa(lp905
F0.12664910127569
aI31
aI114
aI2
ag609
aa(lp906
F0.16189798920595
aI31
aI0
aI2
ag611
aa(lp907
F0.02333782026335
aI29
aI114
aI2
ag613
aa(lp908
F0.25402735415992
aI29
aI0
aI2
ag615
aa(lp909
F0.2906363895695
aI0
aI0
aI0
ag617
aaaI0
aI0
aa(lp910
(lp911
(lp912
F0.0
aI36
aI110
aI3
ag235
aa(lp913
F0.11084379336376
aI36
aI0
aI3
ag237
aa(lp914
F0.88915620663624
aI38
aI112
aI3
ag239
aa(lp915
F0.18630394204251
aI38
aI0
aI3
ag241
aa(lp916
F0.81369605795749
aI36
aI107
aI3
ag243
aa(lp917
F0.13812222510046
aI36
aI0
aI3
ag245
aa(lp918
F0.86187777489954
aI38
aI103
aI3
ag247
aa(lp919
F0.11504280335657
aI38
aI0
aI3
ag249
aa(lp920
F0.88495719664343
aI36
aI98
aI3
ag251
aa(lp921
F0.13863779486201
aI36
aI0
aI3
ag253
aa(lp922
F0.86136220513799
aI38
aI99
aI3
ag255
aa(lp923
F0.1503529092663
aI38
aI0
aI3
ag257
aa(lp924
F0.8496470907337
aI36
aI99
aI3
ag259
aa(lp925
F0.15073370615437
aI36
aI0
aI3
ag261
aa(lp926
F0.84926629384563
aI38
aI103
aI3
ag263
aa(lp927
F0.11584862780842
aI38
aI0
aI3
ag265
aa(lp928
F0.88415137219158
aI0
aI0
aI0
ag267
aaa(lp929
(lp930
F0.5
aI42
aI98
aI3
ag270
aa(lp931
F0.15080598954319
aI42
aI0
aI3
ag272
aa(lp932
F0.59919401045681
aI44
aI97
aI3
ag274
aa(lp933
F0.092536301768632
aI44
aI0
aI3
ag276
aa(lp934
F0.40746369823137
aI44
aI95
aI3
ag278
aa(lp935
F0.12682515272331
aI44
aI0
aI3
ag280
aa(lp936
F0.62317484727669
aI42
aI108
aI3
ag282
aa(lp937
F0.16232490744187
aI42
aI0
aI3
ag284
aa(lp938
F0.83767509255813
aI44
aI108
aI3
ag286
aa(lp939
F0.12723103474195
aI44
aI0
aI3
ag288
aa(lp940
F0.37276896525805
aI0
aI0
aI0
ag290
aaa(lp941
(lp942
F0.5
aI43
aI101
aI3
ag651
aa(lp943
F0.13960013381347
aI43
aI0
aI3
ag653
aa(lp944
F1.8603998661865
aI41
aI110
aI3
ag655
aa(lp945
F0.41520583529177
aI41
aI0
aI3
ag657
aa(lp946
F1.0847941647082
aI0
aI0
aI0
ag659
aaa(lp947
(lp948
F0.005143224477024
aI36
aI116
aI3
ag312
aa(lp949
F0.00020365741875139
aI37
aI112
aI3
ag314
aa(lp950
F0.14131478096419
aI37
aI0
aI3
ag316
aa(lp951
F0.84442223999304
aI36
aI0
aI3
ag318
aa(lp952
F0.61936861012487
aI36
aI124
aI3
ag320
aa(lp953
F0.38067164356153
aI40
aI116
aI3
ag322
aa(lp954
F0.065046331358417
aI36
aI0
aI3
ag324
aa(lp955
F0.85628889631766
aI40
aI0
aI3
ag326
aa(lp956
F0.65196638612179
aI36
aI125
aI3
ag328
aa(lp957
F0.51946836522734
aI36
aI0
aI3
ag330
aa(lp958
F0.9559912998518
aI36
aI121
aI3
ag332
aa(lp959
F0.8888820560021
aI40
aI118
aI3
ag334
aa(lp960
F0.075507202268909
aI36
aI0
aI3
ag336
aa(lp961
F1.0179715155921
aI40
aI0
aI3
ag338
aa(lp962
F0.9777537907205
aI0
aI0
aI0
ag340
aaaaa(lp963
(lp964
(dp965
g344
g345
sg346
I1
sa(dp966
g344
g348
sg346
I0
sa(dp967
a(dp968
aa(lp969
(dp970
g344
g353
sg346
I0
sa(dp971
g344
g355
sg346
I0
sa(dp972
a(dp973
aa(lp974
(dp975
g344
g360
sg346
I0
sa(dp976
g344
g763
sg346
I0
sa(dp977
a(dp978
aa(lp979
(dp980
g344
g367
sg346
I0
sa(dp981
g344
g369
sg346
I1
sa(dp982
g344
g770
sg346
I1
sa(dp983
g344
g373
sg346
I0
saaa(lp984
I60
aI60
aI36
aI36
aa(lp985
(lp986
I0
aI2
aI3
aI5
aI7
aI8
aI10
aa(lp987
I0
aI2
aI3
aI5
aI7
aI8
aI10
aa(lp988
I0
aI2
aI3
aI5
aI7
aI8
aI10
aa(lp989
I0
aI1
aI2
aI3
aI4
aI5
aI6
aI7
aI8
aI9
aI10
aI11
aaa(lp990
(lp991
(lp992
I1
aI14
aI22
aI34
aI46
aI56
aI66
aI75
aI85
aI96
aI113
aI127
aa(lp993
I0
aI0
aI0
aI0
aI0
aI0
aI0
aI0
aI0
aI0
aI0
aI0
aa(lp994
I0
aI0
aI0
aI0
aI0
aI0
aI0
aI0
aI0
aI0
aI0
aI0
aa(lp995
I0
aI0
aI0
aI0
aI0
aI0
aI0
aI0
aI0
aI0
aI0
aI0
aaa(lp996
(lp997
I0
aI0
aI3
aI10
aI19
aI30
aI44
aI56
aI71
aI96
aI115
aI127
aa(lp998
I0
aI0
aI0
aI0
aI0
aI0
aI0
aI0
aI0
aI0
aI0
aI0
aa(lp999
I0
aI0
aI0
aI0
aI0
aI0
aI0
aI0
aI0
aI0
aI0
aI0
aa(lp1000
I0
aI0
aI0
aI0
aI0
aI0
aI0
aI0
aI0
aI0
aI0
aI0
aaa(lp1001
(lp1002
I1
aI9
aI13
aI25
aI37
aI50
aI63
aI78
aI94
aI108
aI127
aI127
aa(lp1003
I0
aI0
aI0
aI0
aI0
aI0
aI0
aI0
aI0
aI0
aI0
aI0
aa(lp1004
I0
aI0
aI0
aI0
aI0
aI0
aI0
aI0
aI0
aI0
aI0
aI0
aa(lp1005
I0
aI0
aI0
aI0
aI0
aI0
aI0
aI0
aI0
aI0
aI0
aI0
aaa(lp1006
(lp1007
I0
aI0
aI6
aI20
aI33
aI54
aI72
aI89
aI104
aI126
aI127
aI127
aa(lp1008
I0
aI0
aI0
aI0
aI0
aI0
aI0
aI0
aI0
aI0
aI0
aI0
aa(lp1009
I0
aI0
aI0
aI0
aI0
aI0
aI0
aI0
aI0
aI0
aI0
aI0
aa(lp1010
I0
aI0
aI0
aI0
aI0
aI0
aI0
aI0
aI0
aI0
aI0
aI0
aaaa(lp1011
(lp1012
I0
aI64
aI75
aI96
aI54
aI0
aI0
aI0
aI0
aI0
aI18
aI4
aa(lp1013
I127
aI120
aI104
aI88
aI76
aI70
aI64
aI60
aI52
aI43
aI33
aI17
aa(lp1014
I127
aI106
aI93
aI83
aI71
aI58
aI51
aI42
aI36
aI30
aI23
aI12
aa(lp1015
I124
aI102
aI85
aI70
aI61
aI54
aI45
aI39
aI34
aI28
aI24
aI16
aaaaI0
aI0
aI0
aI0
aI0
aI0
aI0
aI0
aI0
aI0
a(lp1016
(lp1017
(lp1018
(lp1019
(lp1020
F0.0
aI60
aI61
aI0
ag6
aa(lp1021
F5.9346758609299
aI63
aI93
aI0
ag8
aa(lp1022
F0.15111653422082
aI60
aI0
aI0
ag10
aa(lp1023
F1.8999111920766
aI65
aI73
aI0
ag12
aa(lp1024
F0.075533015425435
aI63
aI0
aI0
ag14
aa(lp1025
F7.6716440008051
aI65
aI0
aI0
ag16
aa(lp1026
F0.26711939654206
aI0
aI0
aI0
ag18
aaa(lp1027
(lp1028
F0.0
aI65
aI98
aI0
ag21
aa(lp1029
F5.9869294616665
aI68
aI84
aI0
ag23
aa(lp1030
F0.15163402407688
aI65
aI0
aI0
ag25
aa(lp1031
F1.8671154294191
aI70
aI89
aI0
ag27
aa(lp1032
F0.088136322278615
aI68
aI0
aI0
ag29
aa(lp1033
F6.1789418135029
aI72
aI102
aI0
ag31
aa(lp1034
F0.043421239143527
aI70
aI0
aI0
ag33
aa(lp1035
F0.2067738716687
aI72
aI0
aI0
ag35
aa(lp1036
F0.04330646441781
aI75
aI88
aI0
ag37
aa(lp1037
F0.26124434982376
aI75
aI0
aI0
ag39
aa(lp1038
F0.076575029617288
aI77
aI103
aI0
ag41
aa(lp1039
F0.23737957813319
aI77
aI0
aI0
ag43
aa(lp1040
F0.022250519506997
aI80
aI105
aI0
ag45
aa(lp1041
F0.30432851098908
aI80
aI0
aI0
ag47
aa(lp1042
F0.064877537061193
aI82
aI119
aI0
ag49
aa(lp1043
F0.32570298145038
aI82
aI0
aI0
ag51
aa(lp1044
F0.14138286724415
aI0
aI0
aI0
ag53
aaa(lp1045
(lp1046
F0.0
aI79
aI110
aI0
aS'on'
p1047
aa(lp1048
F0.20083876708304
aI84
aI97
aI0
aS'on'
p1049
aa(lp1050
F0.11947080475511
aI79
aI0
aI0
aS'off'
p1051
aa(lp1052
F0.56765019185696
aI84
aI0
aI0
aS'off'
p1053
aa(lp1054
F0.097740191769844
aI80
aI113
aI0
aS'on'
p1055
aa(lp1056
F0.40399610277746
aI80
aI0
aI0
aS'off'
p1057
aa(lp1058
F0.06556435771563
aI86
aI110
aI0
aS'on'
p1059
aa(lp1060
F0.76451551083665
aI80
aI116
aI0
aS'on'
p1061
aa(lp1062
F0.054723505392758
aI86
aI0
aI0
aS'off'
p1063
aa(lp1064
F0.54357898506714
aI80
aI0
aI0
aS'off'
p1065
aa(lp1066
F0.066153682728327
aI86
aI94
aI0
aS'on'
p1067
aa(lp1068
F0.59947925714732
aI79
aI111
aI0
aS'on'
p1069
aa(lp1070
F0.087324166535836
aI86
aI0
aI0
aS'off'
p1071
aa(lp1072
F0.57722317123626
aI84
aI91
aI0
aS'on'
p1073
aa(lp1074
F0.087439718619862
aI79
aI0
aI0
aS'off'
p1075
aa(lp1076
F0.6218816576511
aI79
aI111
aI0
aS'on'
p1077
aa(lp1078
F0.11927362557981
aI84
aI0
aI0
aS'off'
p1079
aa(lp1080
F0.34745945568648
aI79
aI0
aI0
aS'off'
p1081
aa(lp1082
F0.12989606956762
aI86
aI112
aI0
aS'on'
p1083
aa(lp1084
F0.74182130616464
aI80
aI97
aI0
aS'on'
p1085
aa(lp1086
F0.076294191287161
aI86
aI0
aI0
aS'off'
p1087
aa(lp1088
F0.54487348717885
aI86
aI80
aI0
aS'on'
p1089
aa(lp1090
F0.043167796797206
aI80
aI0
aI0
aS'off'
p1091
aa(lp1092
F1.1296339965666
aI86
aI0
aI0
aS'off'
p1093
aa(lp1094
F0.0099999999983993
aI0
aI0
aI0
aS'timeAfterLastHit'
p1095
aaa(lp1096
(lp1097
F0.0
aI89
aI0
aI0
aS'off'
p1098
aa(lp1099
F0.21623324991742
aI84
aI105
aI0
aS'on'
p1100
aa(lp1101
F0.32672001563697
aI89
aI61
aI0
aS'on'
p1102
aa(lp1103
F0.065428863959824
aI84
aI0
aI0
aS'off'
p1104
aa(lp1105
F0.38257572938528
aI89
aI0
aI0
aS'off'
p1106
aa(lp1107
F0.21676842359739
aI89
aI98
aI0
aS'on'
p1108
aa(lp1109
F0.50169044662834
aI89
aI0
aI0
aS'off'
p1110
aa(lp1111
F0.3055467109989
aI84
aI116
aI0
aS'on'
p1112
aa(lp1113
F0.38126557102078
aI89
aI95
aI0
aS'on'
p1114
aa(lp1115
F0.15338569509186
aI84
aI0
aI0
aS'off'
p1116
aa(lp1117
F0.4014032381383
aI89
aI0
aI0
aS'off'
p1118
aa(lp1119
F0.29418751491175
aI89
aI116
aI0
aS'on'
p1120
aa(lp1121
F0.55707484370214
aI89
aI0
aI0
aS'off'
p1122
aa(lp1123
F0.17389364972041
aI84
aI122
aI0
aS'on'
p1124
aa(lp1125
F1.0138260472922
aI84
aI0
aI0
aS'off'
p1126
aa(lp1127
F0.0099999999983993
aI0
aI0
aI0
aS'timeAfterLastHit'
p1128
aaaa(lp1129
(lp1130
(lp1131
F0.0
aI65
aI96
aI1
ag57
aa(lp1132
F0.53243221040566
aI65
aI0
aI1
ag59
aa(lp1133
F0.46756778959434
aI68
aI44
aI1
ag61
aa(lp1134
F0.47377996111618
aI68
aI0
aI1
ag63
aa(lp1135
F0.27622003888382
aI70
aI101
aI1
ag65
aa(lp1136
F0.46281539719166
aI70
aI0
aI1
ag67
aa(lp1137
F0.28718460280834
aI72
aI49
aI1
ag69
aa(lp1138
F0.49852953204072
aI72
aI0
aI1
ag71
aa(lp1139
F0.25147046795928
aI75
aI80
aI1
ag73
aa(lp1140
F0.43888649083874
aI75
aI0
aI1
ag75
aa(lp1141
F0.31111350916126
aI77
aI73
aI1
ag77
aa(lp1142
F0.5672327104644
aI77
aI0
aI1
ag79
aa(lp1143
F0.1827672895356
aI75
aI44
aI1
ag81
aa(lp1144
F0.51990647963476
aI75
aI0
aI1
ag83
aa(lp1145
F0.23009352036524
aI72
aI43
aI1
ag85
aa(lp1146
F0.55468739409753
aI72
aI0
aI1
ag87
aa(lp1147
F0.19531260590247
aI70
aI64
aI1
ag89
aa(lp1148
F0.56585789757082
aI70
aI0
aI1
ag91
aa(lp1149
F0.43414210242918
aI68
aI87
aI1
ag93
aa(lp1150
F0.44036509832722
aI68
aI0
aI1
ag95
aa(lp1151
F0.30963490167278
aI0
aI0
aI0
ag97
aaa(lp1152
(lp1153
F0.14879124294384
aI70
aI83
aI1
ag100
aa(lp1154
F0.52055605936721
aI70
aI0
aI1
ag102
aa(lp1155
F0.25483319630166
aI72
aI84
aI1
ag104
aa(lp1156
F0.47476195200397
aI72
aI0
aI1
ag106
aa(lp1157
F0.28825174534904
aI75
aI71
aI1
ag108
aa(lp1158
F0.484444098312
aI75
aI0
aI1
ag110
aa(lp1159
F0.26539891902621
aI77
aI18
aI1
ag112
aa(lp1160
F0.55717864790086
aI77
aI0
aI1
ag114
aa(lp1161
F0.27654690028021
aI80
aI70
aI1
ag116
aa(lp1162
F0.53293372285316
aI80
aI0
aI1
ag118
aa(lp1163
F0.25545071863417
aI82
aI45
aI1
ag120
aa(lp1164
F0.58994128843869
aI82
aI0
aI1
ag122
aa(lp1165
F0.19638516173745
aI80
aI74
aI1
ag124
aa(lp1166
F0.5681461197014
aI80
aI0
aI1
ag126
aa(lp1167
F0.22918518672714
aI77
aI29
aI1
ag128
aa(lp1168
F0.49720897591533
aI77
aI0
aI1
ag130
aa(lp1169
F0.15113372156065
aI75
aI67
aI1
ag132
aa(lp1170
F0.61147737314923
aI75
aI0
aI1
ag134
aa(lp1171
F0.26424219684577
aI72
aI47
aI1
ag136
aa(lp1172
F0.65929630434493
aI72
aI0
aI1
ag138
aa(lp1173
F0.17383646860708
aI0
aI0
aI0
ag140
aaaI0
aI0
aa(lp1174
(lp1175
(lp1176
F0.0
aI41
aI9
aI2
ag144
aa(lp1177
F0.078317564050849
aI31
aI10
aI2
ag146
aa(lp1178
F7.1416538750236
aI41
aI0
aI2
ag148
aa(lp1179
F0.046898447969852
aI31
aI0
aI2
ag150
aa(lp1180
F0.72838229416357
aI39
aI7
aI2
ag152
aa(lp1181
F0.10430063778222
aI29
aI26
aI2
ag154
aa(lp1182
F7.7979187792748
aI39
aI0
aI2
ag156
aa(lp1183
F0.023129541145863
aI29
aI0
aI2
ag158
aa(lp1184
F0.079398860589208
aI0
aI0
aI0
ag160
aaa(lp1185
(lp1186
F0.0
aI24
aI86
aI2
ag581
aa(lp1187
F0.44795046054469
aI24
aI0
aI2
ag583
aa(lp1188
F0.035087234339699
aI27
aI94
aI2
ag585
aa(lp1189
F0.41689155653603
aI27
aI0
aI2
ag587
aa(lp1190
F0.081100347899337
aI29
aI72
aI2
ag589
aa(lp1191
F0.36792911132989
aI29
aI0
aI2
ag591
aa(lp1192
F0.10504497005104
aI31
aI95
aI2
ag593
aa(lp1193
F0.30017004621914
aI34
aI104
aI2
ag595
aa(lp1194
F0.00019672500911838
aI31
aI0
aI2
ag597
aa(lp1195
F0.3236034880656
aI34
aI0
aI2
ag599
aa(lp1196
F0.15069417451787
aI36
aI101
aI2
ag601
aa(lp1197
F0.41801737562264
aI36
aI0
aI2
ag603
aa(lp1198
F0.12877390739959
aI34
aI111
aI2
ag605
aa(lp1199
F0.36799194799096
aI34
aI0
aI2
ag607
aa(lp1200
F0.12664910127569
aI31
aI114
aI2
ag609
aa(lp1201
F0.16189798920595
aI31
aI0
aI2
ag611
aa(lp1202
F0.02333782026335
aI29
aI114
aI2
ag613
aa(lp1203
F0.25402735415992
aI29
aI0
aI2
ag615
aa(lp1204
F0.2906363895695
aI0
aI0
aI0
ag617
aaaI0
aI0
aa(lp1205
(lp1206
(lp1207
F0.0
aI36
aI110
aI3
ag235
aa(lp1208
F0.11084379336376
aI36
aI0
aI3
ag237
aa(lp1209
F0.88915620663624
aI38
aI112
aI3
ag239
aa(lp1210
F0.18630394204251
aI38
aI0
aI3
ag241
aa(lp1211
F0.81369605795749
aI36
aI107
aI3
ag243
aa(lp1212
F0.13812222510046
aI36
aI0
aI3
ag245
aa(lp1213
F0.86187777489954
aI38
aI103
aI3
ag247
aa(lp1214
F0.11504280335657
aI38
aI0
aI3
ag249
aa(lp1215
F0.88495719664343
aI36
aI98
aI3
ag251
aa(lp1216
F0.13863779486201
aI36
aI0
aI3
ag253
aa(lp1217
F0.86136220513799
aI38
aI99
aI3
ag255
aa(lp1218
F0.1503529092663
aI38
aI0
aI3
ag257
aa(lp1219
F0.8496470907337
aI36
aI99
aI3
ag259
aa(lp1220
F0.15073370615437
aI36
aI0
aI3
ag261
aa(lp1221
F0.84926629384563
aI38
aI103
aI3
ag263
aa(lp1222
F0.11584862780842
aI38
aI0
aI3
ag265
aa(lp1223
F0.88415137219158
aI0
aI0
aI0
ag267
aaa(lp1224
(lp1225
F0.5
aI42
aI98
aI3
ag270
aa(lp1226
F0.15080598954319
aI42
aI0
aI3
ag272
aa(lp1227
F0.59919401045681
aI44
aI97
aI3
ag274
aa(lp1228
F0.092536301768632
aI44
aI0
aI3
ag276
aa(lp1229
F0.40746369823137
aI44
aI95
aI3
ag278
aa(lp1230
F0.12682515272331
aI44
aI0
aI3
ag280
aa(lp1231
F0.62317484727669
aI42
aI108
aI3
ag282
aa(lp1232
F0.16232490744187
aI42
aI0
aI3
ag284
aa(lp1233
F0.83767509255813
aI44
aI108
aI3
ag286
aa(lp1234
F0.12723103474195
aI44
aI0
aI3
ag288
aa(lp1235
F0.37276896525805
aI0
aI0
aI0
ag290
aaa(lp1236
(lp1237
F0.5
aI43
aI101
aI3
ag651
aa(lp1238
F0.13960013381347
aI43
aI0
aI3
ag653
aa(lp1239
F1.8603998661865
aI41
aI110
aI3
ag655
aa(lp1240
F0.41520583529177
aI41
aI0
aI3
ag657
aa(lp1241
F1.0847941647082
aI0
aI0
aI0
ag659
aaa(lp1242
(lp1243
F0.005143224477024
aI36
aI116
aI3
ag312
aa(lp1244
F0.00020365741875139
aI37
aI112
aI3
ag314
aa(lp1245
F0.14131478096419
aI37
aI0
aI3
ag316
aa(lp1246
F0.84442223999304
aI36
aI0
aI3
ag318
aa(lp1247
F0.61936861012487
aI36
aI124
aI3
ag320
aa(lp1248
F0.38067164356153
aI40
aI116
aI3
ag322
aa(lp1249
F0.065046331358417
aI36
aI0
aI3
ag324
aa(lp1250
F0.85628889631766
aI40
aI0
aI3
ag326
aa(lp1251
F0.65196638612179
aI36
aI125
aI3
ag328
aa(lp1252
F0.51946836522734
aI36
aI0
aI3
ag330
aa(lp1253
F0.9559912998518
aI36
aI121
aI3
ag332
aa(lp1254
F0.8888820560021
aI40
aI118
aI3
ag334
aa(lp1255
F0.075507202268909
aI36
aI0
aI3
ag336
aa(lp1256
F1.0179715155921
aI40
aI0
aI3
ag338
aa(lp1257
F0.9777537907205
aI0
aI0
aI0
ag340
aaaaa(lp1258
(lp1259
(dp1260
g344
g345
sg346
I0
sa(dp1261
g344
g348
sg346
I0
sa(dp1262
S'button'
p1263
S'70'
p1264
sS'playing'
p1265
I1
sa(dp1266
g1263
S'80'
p1267
sg1265
I1
saa(lp1268
(dp1269
g344
g353
sg346
I0
sa(dp1270
g344
g355
sg346
I0
sa(dp1271
a(dp1272
aa(lp1273
(dp1274
g344
g360
sg346
I0
sa(dp1275
g344
g763
sg346
I0
sa(dp1276
a(dp1277
aa(lp1278
(dp1279
g344
g367
sg346
I0
sa(dp1280
g344
g369
sg346
I1
sa(dp1281
g344
g770
sg346
I1
sa(dp1282
g344
g373
sg346
I0
saaa(lp1283
I60
aI60
aI36
aI36
aa(lp1284
(lp1285
I0
aI2
aI3
aI5
aI7
aI8
aI10
aa(lp1286
I0
aI2
aI3
aI5
aI7
aI8
aI10
aa(lp1287
I0
aI2
aI3
aI5
aI7
aI8
aI10
aa(lp1288
I0
aI1
aI2
aI3
aI4
aI5
aI6
aI7
aI8
aI9
aI10
aI11
aaa(lp1289
(lp1290
(lp1291
I1
aI14
aI22
aI34
aI46
aI56
aI66
aI75
aI85
aI96
aI113
aI127
aa(lp1292
I0
aI0
aI0
aI0
aI0
aI0
aI0
aI0
aI0
aI0
aI0
aI0
aa(lp1293
I0
aI0
aI0
aI0
aI0
aI0
aI0
aI0
aI0
aI0
aI0
aI0
aa(lp1294
I0
aI0
aI0
aI0
aI0
aI0
aI0
aI0
aI0
aI0
aI0
aI0
aaa(lp1295
(lp1296
I0
aI0
aI3
aI10
aI19
aI30
aI44
aI56
aI71
aI96
aI115
aI127
aa(lp1297
I0
aI0
aI0
aI0
aI0
aI0
aI0
aI0
aI0
aI0
aI0
aI0
aa(lp1298
I0
aI0
aI0
aI0
aI0
aI0
aI0
aI0
aI0
aI0
aI0
aI0
aa(lp1299
I0
aI0
aI0
aI0
aI0
aI0
aI0
aI0
aI0
aI0
aI0
aI0
aaa(lp1300
(lp1301
I1
aI9
aI13
aI25
aI37
aI50
aI63
aI78
aI94
aI108
aI127
aI127
aa(lp1302
I0
aI0
aI0
aI0
aI0
aI0
aI0
aI0
aI0
aI0
aI0
aI0
aa(lp1303
I0
aI0
aI0
aI0
aI0
aI0
aI0
aI0
aI0
aI0
aI0
aI0
aa(lp1304
I0
aI0
aI0
aI0
aI0
aI0
aI0
aI0
aI0
aI0
aI0
aI0
aaa(lp1305
(lp1306
I0
aI0
aI6
aI20
aI33
aI54
aI72
aI89
aI104
aI126
aI127
aI127
aa(lp1307
I0
aI0
aI0
aI0
aI0
aI0
aI0
aI0
aI0
aI0
aI0
aI0
aa(lp1308
I0
aI0
aI0
aI0
aI0
aI0
aI0
aI0
aI0
aI0
aI0
aI0
aa(lp1309
I0
aI0
aI0
aI0
aI0
aI0
aI0
aI0
aI0
aI0
aI0
aI0
aaaa(lp1310
(lp1311
I0
aI64
aI75
aI96
aI54
aI0
aI0
aI0
aI0
aI0
aI18
aI4
aa(lp1312
I127
aI120
aI104
aI88
aI76
aI70
aI64
aI60
aI52
aI43
aI33
aI17
aa(lp1313
I127
aI106
aI93
aI83
aI71
aI58
aI51
aI42
aI36
aI30
aI23
aI12
aa(lp1314
I124
aI102
aI85
aI70
aI61
aI54
aI45
aI39
aI34
aI28
aI24
aI16
aaaaI0
aI0
aI0
aI0
aI0
aI0
aI0
a(lp1315
(lp1316
(lp1317
(lp1318
(lp1319
F0.0
aI60
aI103
aI0
ag411
aa(lp1320
F0.33841775934707
aI60
aI0
aI0
ag413
aa(lp1321
F0.41158224065293
aI75
aI101
aI0
ag415
aa(lp1322
F0.24231219552848
aI75
aI0
aI0
ag417
aa(lp1323
F0.25768780447152
aI60
aI98
aI0
ag419
aa(lp1324
F0.16119843601814
aI60
aI0
aI0
ag421
aa(lp1325
F0.08880156398186
aI75
aI115
aI0
ag423
aa(lp1326
F0.26654188684302
aI75
aI0
aI0
ag425
aa(lp1327
F0.23345811315698
aI60
aI112
aI0
ag427
aa(lp1328
F0.35858466563764
aI60
aI0
aI0
ag429
aa(lp1329
F0.39141533436236
aI75
aI118
aI0
ag431
aa(lp1330
F0.23110779041986
aI75
aI0
aI0
ag433
aa(lp1331
F0.26889220958014
aI75
aI116
aI0
ag435
aa(lp1332
F0.18472542744757
aI75
aI0
aI0
ag437
aa(lp1333
F0.56527457255243
aI75
aI119
aI0
ag439
aa(lp1334
F0.21938824675613
aI75
aI0
aI0
ag441
aa(lp1335
F0.53061175324387
aI75
aI119
aI0
ag443
aa(lp1336
F0.21999133142822
aI75
aI0
aI0
ag445
aa(lp1337
F0.53000866857178
aI75
aI119
aI0
ag447
aa(lp1338
F0.19587320526057
aI75
aI0
aI0
ag449
aa(lp1339
F0.30412679473943
aI75
aI119
aI0
ag451
aa(lp1340
F0.20744331062519
aI75
aI0
aI0
ag453
aa(lp1341
F0.54255668937481
aI75
aI119
aI0
ag455
aa(lp1342
F0.22036238085002
aI75
aI0
aI0
ag457
aa(lp1343
F0.52963761914998
aI75
aI123
aI0
ag459
aa(lp1344
F0.19622545852462
aI75
aI0
aI0
ag461
aa(lp1345
F0.30377454147538
aI0
aI0
aI0
ag463
aaa(lp1346
(lp1347
F0.0
aI77
aI122
aI0
ag466
aa(lp1348
F0.48095641978671
aI77
aI0
aI0
ag468
aa(lp1349
F0.21807053216708
aI77
aI112
aI0
ag470
aa(lp1350
F0.35891732667096
aI77
aI0
aI0
ag472
aa(lp1351
F0.13912521240172
aI75
aI111
aI0
ag474
aa(lp1352
F0.27815991798752
aI77
aI100
aI0
ag476
aa(lp1353
F0.045852424101213
aI75
aI0
aI0
ag478
aa(lp1354
F0.32332493343029
aI77
aI0
aI0
ag480
aa(lp1355
F0.21972556481433
aI77
aI121
aI0
ag482
aa(lp1356
F0.42826682314126
aI77
aI0
aI0
ag484
aa(lp1357
F0.32348534426319
aI77
aI121
aI0
ag486
aa(lp1358
F0.40623135768874
aI77
aI0
aI0
ag488
aa(lp1359
F0.31310990057136
aI77
aI120
aI0
ag490
aa(lp1360
F0.24170501550498
aI77
aI0
aI0
ag492
aa(lp1361
F0.23092528857387
aI77
aI120
aI0
ag494
aa(lp1362
F0.45154493796281
aI77
aI0
aI0
ag496
aa(lp1363
F0.32388265302234
aI77
aI122
aI0
ag498
aa(lp1364
F0.39308472348876
aI77
aI0
aI0
ag500
aa(lp1365
F0.33503762865848
aI77
aI120
aI0
ag502
aa(lp1366
F0.32331475696947
aI77
aI0
aI0
ag504
aa(lp1367
F0.16223093107556
aI75
aI119
aI0
ag506
aa(lp1368
F0.023462978350381
aI76
aI61
aI0
ag508
aa(lp1369
F0.057487789725201
aI76
aI0
aI0
ag510
aa(lp1370
F0.32490161263604
aI75
aI0
aI0
ag512
aa(lp1371
F0.34655101827593
aI75
aI122
aI0
ag514
aa(lp1372
F0.42909027396627
aI75
aI0
aI0
ag516
aa(lp1373
F0.26525156157277
aI75
aI123
aI0
ag518
aa(lp1374
F0.54630307319258
aI75
aI0
aI0
ag520
aa(lp1375
F0.010000000000218
aI0
aI0
aI0
ag522
aaaI0
aI0
aa(lp1376
(lp1377
(lp1378
F0.0
aI65
aI96
aI1
ag57
aa(lp1379
F0.53243221040566
aI65
aI0
aI1
ag59
aa(lp1380
F0.46756778959434
aI68
aI44
aI1
ag61
aa(lp1381
F0.47377996111618
aI68
aI0
aI1
ag63
aa(lp1382
F0.27622003888382
aI70
aI101
aI1
ag65
aa(lp1383
F0.46281539719166
aI70
aI0
aI1
ag67
aa(lp1384
F0.28718460280834
aI72
aI49
aI1
ag69
aa(lp1385
F0.49852953204072
aI72
aI0
aI1
ag71
aa(lp1386
F0.25147046795928
aI75
aI80
aI1
ag73
aa(lp1387
F0.43888649083874
aI75
aI0
aI1
ag75
aa(lp1388
F0.31111350916126
aI77
aI73
aI1
ag77
aa(lp1389
F0.5672327104644
aI77
aI0
aI1
ag79
aa(lp1390
F0.1827672895356
aI75
aI44
aI1
ag81
aa(lp1391
F0.51990647963476
aI75
aI0
aI1
ag83
aa(lp1392
F0.23009352036524
aI72
aI43
aI1
ag85
aa(lp1393
F0.55468739409753
aI72
aI0
aI1
ag87
aa(lp1394
F0.19531260590247
aI70
aI64
aI1
ag89
aa(lp1395
F0.56585789757082
aI70
aI0
aI1
ag91
aa(lp1396
F0.43414210242918
aI68
aI87
aI1
ag93
aa(lp1397
F0.44036509832722
aI68
aI0
aI1
ag95
aa(lp1398
F0.30963490167278
aI0
aI0
aI0
ag97
aaa(lp1399
(lp1400
F0.14879124294384
aI70
aI83
aI1
ag100
aa(lp1401
F0.52055605936721
aI70
aI0
aI1
ag102
aa(lp1402
F0.25483319630166
aI72
aI84
aI1
ag104
aa(lp1403
F0.47476195200397
aI72
aI0
aI1
ag106
aa(lp1404
F0.28825174534904
aI75
aI71
aI1
ag108
aa(lp1405
F0.484444098312
aI75
aI0
aI1
ag110
aa(lp1406
F0.26539891902621
aI77
aI18
aI1
ag112
aa(lp1407
F0.55717864790086
aI77
aI0
aI1
ag114
aa(lp1408
F0.27654690028021
aI80
aI70
aI1
ag116
aa(lp1409
F0.53293372285316
aI80
aI0
aI1
ag118
aa(lp1410
F0.25545071863417
aI82
aI45
aI1
ag120
aa(lp1411
F0.58994128843869
aI82
aI0
aI1
ag122
aa(lp1412
F0.19638516173745
aI80
aI74
aI1
ag124
aa(lp1413
F0.5681461197014
aI80
aI0
aI1
ag126
aa(lp1414
F0.22918518672714
aI77
aI29
aI1
ag128
aa(lp1415
F0.49720897591533
aI77
aI0
aI1
ag130
aa(lp1416
F0.15113372156065
aI75
aI67
aI1
ag132
aa(lp1417
F0.61147737314923
aI75
aI0
aI1
ag134
aa(lp1418
F0.26424219684577
aI72
aI47
aI1
ag136
aa(lp1419
F0.65929630434493
aI72
aI0
aI1
ag138
aa(lp1420
F0.17383646860708
aI0
aI0
aI0
ag140
aaaI0
aI0
aa(lp1421
(lp1422
(lp1423
F0.0
aI41
aI9
aI2
ag144
aa(lp1424
F0.078317564050849
aI31
aI10
aI2
ag146
aa(lp1425
F7.1416538750236
aI41
aI0
aI2
ag148
aa(lp1426
F0.046898447969852
aI31
aI0
aI2
ag150
aa(lp1427
F0.72838229416357
aI39
aI7
aI2
ag152
aa(lp1428
F0.10430063778222
aI29
aI26
aI2
ag154
aa(lp1429
F7.7979187792748
aI39
aI0
aI2
ag156
aa(lp1430
F0.023129541145863
aI29
aI0
aI2
ag158
aa(lp1431
F0.079398860589208
aI0
aI0
aI0
ag160
aaa(lp1432
(lp1433
F0.0
aI29
aI108
aI2
aS'on'
p1434
aa(lp1435
F0.28875988073332
aI29
aI0
aI2
aS'off'
p1436
aa(lp1437
F0.18419862655628
aI32
aI87
aI2
aS'on'
p1438
aa(lp1439
F0.29199382203569
aI32
aI0
aI2
aS'off'
p1440
aa(lp1441
F0.19502480261644
aI34
aI86
aI2
aS'on'
p1442
aa(lp1443
F0.22823507856992
aI34
aI0
aI2
aS'off'
p1444
aa(lp1445
F0.26121930259296
aI36
aI91
aI2
aS'on'
p1446
aa(lp1447
F0.28305993341928
aI36
aI0
aI2
aS'off'
p1448
aa(lp1449
F0.020833400879837
aI39
aI96
aI2
aS'on'
p1450
aa(lp1451
F0.26096340238473
aI39
aI0
aI2
aS'off'
p1452
aa(lp1453
F0.20546854293934
aI41
aI99
aI2
aS'on'
p1454
aa(lp1455
F0.38976362426956
aI41
aI0
aI2
aS'off'
p1456
aa(lp1457
F0.076403588827361
aI39
aI94
aI2
aS'on'
p1458
aa(lp1459
F0.25926980318218
aI39
aI0
aI2
aS'off'
p1460
aa(lp1461
F0.20655149161621
aI36
aI114
aI2
aS'on'
p1462
aa(lp1463
F0.26046924939874
aI34
aI113
aI2
aS'on'
p1464
aa(lp1465
F0.010094704353378
aI36
aI0
aI2
aS'off'
p1466
aa(lp1467
F0.30451994887972
aI34
aI0
aI2
aS'off'
p1468
aa(lp1469
F0.27317079674503
aI0
aI0
aI0
aS'timeAfterLastHit'
p1470
aaaI0
aI0
aa(lp1471
(lp1472
(lp1473
F0.0
aI36
aI110
aI3
ag235
aa(lp1474
F0.11084379336376
aI36
aI0
aI3
ag237
aa(lp1475
F0.88915620663624
aI38
aI112
aI3
ag239
aa(lp1476
F0.18630394204251
aI38
aI0
aI3
ag241
aa(lp1477
F0.81369605795749
aI36
aI107
aI3
ag243
aa(lp1478
F0.13812222510046
aI36
aI0
aI3
ag245
aa(lp1479
F0.86187777489954
aI38
aI103
aI3
ag247
aa(lp1480
F0.11504280335657
aI38
aI0
aI3
ag249
aa(lp1481
F0.88495719664343
aI36
aI98
aI3
ag251
aa(lp1482
F0.13863779486201
aI36
aI0
aI3
ag253
aa(lp1483
F0.86136220513799
aI38
aI99
aI3
ag255
aa(lp1484
F0.1503529092663
aI38
aI0
aI3
ag257
aa(lp1485
F0.8496470907337
aI36
aI99
aI3
ag259
aa(lp1486
F0.15073370615437
aI36
aI0
aI3
ag261
aa(lp1487
F0.84926629384563
aI38
aI103
aI3
ag263
aa(lp1488
F0.11584862780842
aI38
aI0
aI3
ag265
aa(lp1489
F0.88415137219158
aI0
aI0
aI0
ag267
aaa(lp1490
(lp1491
F0.5
aI42
aI98
aI3
ag270
aa(lp1492
F0.15080598954319
aI42
aI0
aI3
ag272
aa(lp1493
F0.59919401045681
aI44
aI97
aI3
ag274
aa(lp1494
F0.092536301768632
aI44
aI0
aI3
ag276
aa(lp1495
F0.40746369823137
aI44
aI95
aI3
ag278
aa(lp1496
F0.12682515272331
aI44
aI0
aI3
ag280
aa(lp1497
F0.62317484727669
aI42
aI108
aI3
ag282
aa(lp1498
F0.16232490744187
aI42
aI0
aI3
ag284
aa(lp1499
F0.83767509255813
aI44
aI108
aI3
ag286
aa(lp1500
F0.12723103474195
aI44
aI0
aI3
ag288
aa(lp1501
F0.37276896525805
aI0
aI0
aI0
ag290
aaa(lp1502
(lp1503
F0.5
aI43
aI101
aI3
ag651
aa(lp1504
F0.13960013381347
aI43
aI0
aI3
ag653
aa(lp1505
F1.8603998661865
aI41
aI110
aI3
ag655
aa(lp1506
F0.41520583529177
aI41
aI0
aI3
ag657
aa(lp1507
F1.0847941647082
aI0
aI0
aI0
ag659
aaa(lp1508
(lp1509
F0.75
aI48
aI105
aI3
ag662
aa(lp1510
F0.15085986596523
aI48
aI0
aI3
ag664
aa(lp1511
F0.34914013403477
aI48
aI108
aI3
ag666
aa(lp1512
F0.13838531381452
aI48
aI0
aI3
ag668
aa(lp1513
F0.61161468618548
aI48
aI105
aI3
ag670
aa(lp1514
F0.12700164422176
aI48
aI0
aI3
ag672
aa(lp1515
F0.62299835577824
aI48
aI98
aI3
ag674
aa(lp1516
F0.12655287821599
aI48
aI0
aI3
ag676
aa(lp1517
F0.62344712178401
aI48
aI109
aI3
ag678
aa(lp1518
F0.11580968438102
aI48
aI0
aI3
ag680
aa(lp1519
F0.63419031561898
aI48
aI108
aI3
ag682
aa(lp1520
F0.12676373130216
aI48
aI0
aI3
ag684
aa(lp1521
F0.62323626869784
aI48
aI109
aI3
ag686
aa(lp1522
F0.1389230453517
aI48
aI0
aI3
ag688
aa(lp1523
F0.6110769546483
aI48
aI105
aI3
ag690
aa(lp1524
F0.12850425329771
aI48
aI0
aI3
ag692
aa(lp1525
F0.62149574670229
aI48
aI108
aI3
ag694
aa(lp1526
F0.11480366758133
aI48
aI0
aI3
ag696
aa(lp1527
F0.88519633241867
aI48
aI110
aI3
ag698
aa(lp1528
F0.15085531287241
aI48
aI0
aI3
ag700
aa(lp1529
F0.59914468712759
aI48
aI101
aI3
ag702
aa(lp1530
F0.15053405778963
aI48
aI0
aI3
ag704
aa(lp1531
F0.34946594221037
aI47
aI111
aI3
ag706
aa(lp1532
F0.13893616064706
aI47
aI0
aI3
ag708
aa(lp1533
F0.61106383935294
aI47
aI105
aI3
ag710
aa(lp1534
F0.10390487915265
aI47
aI0
aI3
ag712
aa(lp1535
F0.64609512084735
aI47
aI105
aI3
ag714
aa(lp1536
F0.10457980052843
aI47
aI0
aI3
ag716
aa(lp1537
F0.64542019947157
aI47
aI111
aI3
ag718
aa(lp1538
F0.11545970655789
aI47
aI0
aI3
ag720
aa(lp1539
F0.63454029344211
aI47
aI110
aI3
ag722
aa(lp1540
F0.11598282131808
aI47
aI0
aI3
ag724
aa(lp1541
F0.63401717868192
aI47
aI107
aI3
ag726
aa(lp1542
F0.10448925833066
aI47
aI0
aI3
ag728
aa(lp1543
F0.64551074166934
aI47
aI109
aI3
ag730
aa(lp1544
F0.10392974536376
aI47
aI0
aI3
ag732
aa(lp1545
F0.64607025463624
aI47
aI112
aI3
ag734
aa(lp1546
F0.11598487341644
aI47
aI0
aI3
ag736
aa(lp1547
F0.63401512658356
aI47
aI109
aI3
ag738
aa(lp1548
F0.12727870400954
aI47
aI0
aI3
ag740
aa(lp1549
F0.62272129599046
aI47
aI114
aI3
ag742
aa(lp1550
F0.16164825018586
aI47
aI0
aI3
ag744
aa(lp1551
F0.33835174981414
aI0
aI0
aI0
ag746
aaaaa(lp1552
(lp1553
(dp1554
g344
g750
sg346
I0
sa(dp1555
g344
g752
sg346
I0
sa(dp1556
a(dp1557
aa(lp1558
(dp1559
g344
g353
sg346
I1
sa(dp1560
g344
g355
sg346
I0
sa(dp1561
a(dp1562
aa(lp1563
(dp1564
g344
g360
sg346
I0
sa(dp1565
g344
S'20'
p1566
sg346
I01
sa(dp1567
a(dp1568
aa(lp1569
(dp1570
g344
g367
sg346
I1
sa(dp1571
g344
g369
sg346
I1
sa(dp1572
g344
g770
sg346
I0
sa(dp1573
g344
g772
sg346
I0
saaa(lp1574
I60
aI60
aI36
aI36
aa(lp1575
(lp1576
I0
aI2
aI3
aI5
aI7
aI8
aI10
aa(lp1577
I0
aI2
aI3
aI5
aI7
aI8
aI10
aa(lp1578
I0
aI2
aI3
aI5
aI7
aI8
aI10
aa(lp1579
I0
aI1
aI2
aI3
aI4
aI5
aI6
aI7
aI8
aI9
aI10
aI11
aaa(lp1580
(lp1581
(lp1582
I1
aI14
aI22
aI34
aI46
aI56
aI66
aI75
aI85
aI96
aI113
aI127
aa(lp1583
I0
aI0
aI0
aI0
aI0
aI0
aI0
aI0
aI0
aI0
aI0
aI0
aa(lp1584
I0
aI0
aI0
aI0
aI0
aI0
aI0
aI0
aI0
aI0
aI0
aI0
aa(lp1585
I0
aI0
aI0
aI0
aI0
aI0
aI0
aI0
aI0
aI0
aI0
aI0
aaa(lp1586
(lp1587
I0
aI0
aI3
aI10
aI19
aI30
aI44
aI56
aI71
aI96
aI115
aI127
aa(lp1588
I0
aI0
aI0
aI0
aI0
aI0
aI0
aI0
aI0
aI0
aI0
aI0
aa(lp1589
I0
aI0
aI0
aI0
aI0
aI0
aI0
aI0
aI0
aI0
aI0
aI0
aa(lp1590
I0
aI0
aI0
aI0
aI0
aI0
aI0
aI0
aI0
aI0
aI0
aI0
aaa(lp1591
(lp1592
I1
aI9
aI13
aI25
aI37
aI50
aI63
aI78
aI94
aI108
aI127
aI127
aa(lp1593
I0
aI0
aI0
aI0
aI0
aI0
aI0
aI0
aI0
aI0
aI0
aI0
aa(lp1594
I0
aI0
aI0
aI0
aI0
aI0
aI0
aI0
aI0
aI0
aI0
aI0
aa(lp1595
I0
aI0
aI0
aI0
aI0
aI0
aI0
aI0
aI0
aI0
aI0
aI0
aaa(lp1596
(lp1597
I0
aI0
aI6
aI20
aI33
aI54
aI72
aI89
aI104
aI126
aI127
aI127
aa(lp1598
I0
aI0
aI0
aI0
aI0
aI0
aI0
aI0
aI0
aI0
aI0
aI0
aa(lp1599
I0
aI0
aI0
aI0
aI0
aI0
aI0
aI0
aI0
aI0
aI0
aI0
aa(lp1600
I0
aI0
aI0
aI0
aI0
aI0
aI0
aI0
aI0
aI0
aI0
aI0
aaaa(lp1601
(lp1602
I0
aI64
aI75
aI96
aI54
aI0
aI0
aI0
aI0
aI0
aI18
aI4
aa(lp1603
I127
aI120
aI104
aI88
aI76
aI70
aI64
aI60
aI52
aI43
aI33
aI17
aa(lp1604
I127
aI106
aI93
aI83
aI71
aI58
aI51
aI42
aI36
aI30
aI23
aI12
aa(lp1605
I124
aI102
aI85
aI70
aI61
aI54
aI45
aI39
aI34
aI28
aI24
aI16
aaaaI0
aI0
aI0
aI0
aI0
aI0
aI0
aI0
aI0
aI0
aI0
aI0
aI0
aI0
aI0
aI0
aI0
aI0
aI0
a(lp1606
(lp1607
(lp1608
(lp1609
(lp1610
F0.0
aI60
aI103
aI0
ag411
aa(lp1611
F0.33841775934707
aI60
aI0
aI0
ag413
aa(lp1612
F0.41158224065293
aI75
aI101
aI0
ag415
aa(lp1613
F0.24231219552848
aI75
aI0
aI0
ag417
aa(lp1614
F0.25768780447152
aI60
aI98
aI0
ag419
aa(lp1615
F0.16119843601814
aI60
aI0
aI0
ag421
aa(lp1616
F0.08880156398186
aI75
aI115
aI0
ag423
aa(lp1617
F0.26654188684302
aI75
aI0
aI0
ag425
aa(lp1618
F0.23345811315698
aI60
aI112
aI0
ag427
aa(lp1619
F0.35858466563764
aI60
aI0
aI0
ag429
aa(lp1620
F0.39141533436236
aI75
aI118
aI0
ag431
aa(lp1621
F0.23110779041986
aI75
aI0
aI0
ag433
aa(lp1622
F0.26889220958014
aI75
aI116
aI0
ag435
aa(lp1623
F0.18472542744757
aI75
aI0
aI0
ag437
aa(lp1624
F0.56527457255243
aI75
aI119
aI0
ag439
aa(lp1625
F0.21938824675613
aI75
aI0
aI0
ag441
aa(lp1626
F0.53061175324387
aI75
aI119
aI0
ag443
aa(lp1627
F0.21999133142822
aI75
aI0
aI0
ag445
aa(lp1628
F0.53000866857178
aI75
aI119
aI0
ag447
aa(lp1629
F0.19587320526057
aI75
aI0
aI0
ag449
aa(lp1630
F0.30412679473943
aI75
aI119
aI0
ag451
aa(lp1631
F0.20744331062519
aI75
aI0
aI0
ag453
aa(lp1632
F0.54255668937481
aI75
aI119
aI0
ag455
aa(lp1633
F0.22036238085002
aI75
aI0
aI0
ag457
aa(lp1634
F0.52963761914998
aI75
aI123
aI0
ag459
aa(lp1635
F0.19622545852462
aI75
aI0
aI0
ag461
aa(lp1636
F0.30377454147538
aI0
aI0
aI0
ag463
aaa(lp1637
(lp1638
F0.0
aI77
aI122
aI0
ag466
aa(lp1639
F0.48095641978671
aI77
aI0
aI0
ag468
aa(lp1640
F0.21807053216708
aI77
aI112
aI0
ag470
aa(lp1641
F0.35891732667096
aI77
aI0
aI0
ag472
aa(lp1642
F0.13912521240172
aI75
aI111
aI0
ag474
aa(lp1643
F0.27815991798752
aI77
aI100
aI0
ag476
aa(lp1644
F0.045852424101213
aI75
aI0
aI0
ag478
aa(lp1645
F0.32332493343029
aI77
aI0
aI0
ag480
aa(lp1646
F0.21972556481433
aI77
aI121
aI0
ag482
aa(lp1647
F0.42826682314126
aI77
aI0
aI0
ag484
aa(lp1648
F0.32348534426319
aI77
aI121
aI0
ag486
aa(lp1649
F0.40623135768874
aI77
aI0
aI0
ag488
aa(lp1650
F0.31310990057136
aI77
aI120
aI0
ag490
aa(lp1651
F0.24170501550498
aI77
aI0
aI0
ag492
aa(lp1652
F0.23092528857387
aI77
aI120
aI0
ag494
aa(lp1653
F0.45154493796281
aI77
aI0
aI0
ag496
aa(lp1654
F0.32388265302234
aI77
aI122
aI0
ag498
aa(lp1655
F0.39308472348876
aI77
aI0
aI0
ag500
aa(lp1656
F0.33503762865848
aI77
aI120
aI0
ag502
aa(lp1657
F0.32331475696947
aI77
aI0
aI0
ag504
aa(lp1658
F0.16223093107556
aI75
aI119
aI0
ag506
aa(lp1659
F0.023462978350381
aI76
aI61
aI0
ag508
aa(lp1660
F0.057487789725201
aI76
aI0
aI0
ag510
aa(lp1661
F0.32490161263604
aI75
aI0
aI0
ag512
aa(lp1662
F0.34655101827593
aI75
aI122
aI0
ag514
aa(lp1663
F0.42909027396627
aI75
aI0
aI0
ag516
aa(lp1664
F0.26525156157277
aI75
aI123
aI0
ag518
aa(lp1665
F0.54630307319258
aI75
aI0
aI0
ag520
aa(lp1666
F0.010000000000218
aI0
aI0
aI0
ag522
aaaI0
aI0
aa(lp1667
(lp1668
(lp1669
F0.0
aI65
aI96
aI1
ag57
aa(lp1670
F0.53243221040566
aI65
aI0
aI1
ag59
aa(lp1671
F0.46756778959434
aI68
aI44
aI1
ag61
aa(lp1672
F0.47377996111618
aI68
aI0
aI1
ag63
aa(lp1673
F0.27622003888382
aI70
aI101
aI1
ag65
aa(lp1674
F0.46281539719166
aI70
aI0
aI1
ag67
aa(lp1675
F0.28718460280834
aI72
aI49
aI1
ag69
aa(lp1676
F0.49852953204072
aI72
aI0
aI1
ag71
aa(lp1677
F0.25147046795928
aI75
aI80
aI1
ag73
aa(lp1678
F0.43888649083874
aI75
aI0
aI1
ag75
aa(lp1679
F0.31111350916126
aI77
aI73
aI1
ag77
aa(lp1680
F0.5672327104644
aI77
aI0
aI1
ag79
aa(lp1681
F0.1827672895356
aI75
aI44
aI1
ag81
aa(lp1682
F0.51990647963476
aI75
aI0
aI1
ag83
aa(lp1683
F0.23009352036524
aI72
aI43
aI1
ag85
aa(lp1684
F0.55468739409753
aI72
aI0
aI1
ag87
aa(lp1685
F0.19531260590247
aI70
aI64
aI1
ag89
aa(lp1686
F0.56585789757082
aI70
aI0
aI1
ag91
aa(lp1687
F0.43414210242918
aI68
aI87
aI1
ag93
aa(lp1688
F0.44036509832722
aI68
aI0
aI1
ag95
aa(lp1689
F0.30963490167278
aI0
aI0
aI0
ag97
aaa(lp1690
(lp1691
F0.14879124294384
aI70
aI83
aI1
ag100
aa(lp1692
F0.52055605936721
aI70
aI0
aI1
ag102
aa(lp1693
F0.25483319630166
aI72
aI84
aI1
ag104
aa(lp1694
F0.47476195200397
aI72
aI0
aI1
ag106
aa(lp1695
F0.28825174534904
aI75
aI71
aI1
ag108
aa(lp1696
F0.484444098312
aI75
aI0
aI1
ag110
aa(lp1697
F0.26539891902621
aI77
aI18
aI1
ag112
aa(lp1698
F0.55717864790086
aI77
aI0
aI1
ag114
aa(lp1699
F0.27654690028021
aI80
aI70
aI1
ag116
aa(lp1700
F0.53293372285316
aI80
aI0
aI1
ag118
aa(lp1701
F0.25545071863417
aI82
aI45
aI1
ag120
aa(lp1702
F0.58994128843869
aI82
aI0
aI1
ag122
aa(lp1703
F0.19638516173745
aI80
aI74
aI1
ag124
aa(lp1704
F0.5681461197014
aI80
aI0
aI1
ag126
aa(lp1705
F0.22918518672714
aI77
aI29
aI1
ag128
aa(lp1706
F0.49720897591533
aI77
aI0
aI1
ag130
aa(lp1707
F0.15113372156065
aI75
aI67
aI1
ag132
aa(lp1708
F0.61147737314923
aI75
aI0
aI1
ag134
aa(lp1709
F0.26424219684577
aI72
aI47
aI1
ag136
aa(lp1710
F0.65929630434493
aI72
aI0
aI1
ag138
aa(lp1711
F0.17383646860708
aI0
aI0
aI0
ag140
aaaI0
aI0
aa(lp1712
(lp1713
(lp1714
F0.0
aI41
aI9
aI2
ag144
aa(lp1715
F0.078317564050849
aI31
aI10
aI2
ag146
aa(lp1716
F7.1416538750236
aI41
aI0
aI2
ag148
aa(lp1717
F0.046898447969852
aI31
aI0
aI2
ag150
aa(lp1718
F0.72838229416357
aI39
aI7
aI2
ag152
aa(lp1719
F0.10430063778222
aI29
aI26
aI2
ag154
aa(lp1720
F7.7979187792748
aI39
aI0
aI2
ag156
aa(lp1721
F0.023129541145863
aI29
aI0
aI2
ag158
aa(lp1722
F0.079398860589208
aI0
aI0
aI0
ag160
aaa(lp1723
(lp1724
F0.0
aI24
aI86
aI2
ag581
aa(lp1725
F0.44795046054469
aI24
aI0
aI2
ag583
aa(lp1726
F0.035087234339699
aI27
aI94
aI2
ag585
aa(lp1727
F0.41689155653603
aI27
aI0
aI2
ag587
aa(lp1728
F0.081100347899337
aI29
aI72
aI2
ag589
aa(lp1729
F0.36792911132989
aI29
aI0
aI2
ag591
aa(lp1730
F0.10504497005104
aI31
aI95
aI2
ag593
aa(lp1731
F0.30017004621914
aI34
aI104
aI2
ag595
aa(lp1732
F0.00019672500911838
aI31
aI0
aI2
ag597
aa(lp1733
F0.3236034880656
aI34
aI0
aI2
ag599
aa(lp1734
F0.15069417451787
aI36
aI101
aI2
ag601
aa(lp1735
F0.41801737562264
aI36
aI0
aI2
ag603
aa(lp1736
F0.12877390739959
aI34
aI111
aI2
ag605
aa(lp1737
F0.36799194799096
aI34
aI0
aI2
ag607
aa(lp1738
F0.12664910127569
aI31
aI114
aI2
ag609
aa(lp1739
F0.16189798920595
aI31
aI0
aI2
ag611
aa(lp1740
F0.02333782026335
aI29
aI114
aI2
ag613
aa(lp1741
F0.25402735415992
aI29
aI0
aI2
ag615
aa(lp1742
F0.2906363895695
aI0
aI0
aI0
ag617
aaaI0
aI0
aa(lp1743
(lp1744
(lp1745
F0.0
aI36
aI110
aI3
ag235
aa(lp1746
F0.11084379336376
aI36
aI0
aI3
ag237
aa(lp1747
F0.88915620663624
aI38
aI112
aI3
ag239
aa(lp1748
F0.18630394204251
aI38
aI0
aI3
ag241
aa(lp1749
F0.81369605795749
aI36
aI107
aI3
ag243
aa(lp1750
F0.13812222510046
aI36
aI0
aI3
ag245
aa(lp1751
F0.86187777489954
aI38
aI103
aI3
ag247
aa(lp1752
F0.11504280335657
aI38
aI0
aI3
ag249
aa(lp1753
F0.88495719664343
aI36
aI98
aI3
ag251
aa(lp1754
F0.13863779486201
aI36
aI0
aI3
ag253
aa(lp1755
F0.86136220513799
aI38
aI99
aI3
ag255
aa(lp1756
F0.1503529092663
aI38
aI0
aI3
ag257
aa(lp1757
F0.8496470907337
aI36
aI99
aI3
ag259
aa(lp1758
F0.15073370615437
aI36
aI0
aI3
ag261
aa(lp1759
F0.84926629384563
aI38
aI103
aI3
ag263
aa(lp1760
F0.11584862780842
aI38
aI0
aI3
ag265
aa(lp1761
F0.88415137219158
aI0
aI0
aI0
ag267
aaa(lp1762
(lp1763
F0.5
aI42
aI98
aI3
ag270
aa(lp1764
F0.15080598954319
aI42
aI0
aI3
ag272
aa(lp1765
F0.59919401045681
aI44
aI97
aI3
ag274
aa(lp1766
F0.092536301768632
aI44
aI0
aI3
ag276
aa(lp1767
F0.40746369823137
aI44
aI95
aI3
ag278
aa(lp1768
F0.12682515272331
aI44
aI0
aI3
ag280
aa(lp1769
F0.62317484727669
aI42
aI108
aI3
ag282
aa(lp1770
F0.16232490744187
aI42
aI0
aI3
ag284
aa(lp1771
F0.83767509255813
aI44
aI108
aI3
ag286
aa(lp1772
F0.12723103474195
aI44
aI0
aI3
ag288
aa(lp1773
F0.37276896525805
aI0
aI0
aI0
ag290
aaa(lp1774
(lp1775
F0.5
aI43
aI101
aI3
ag651
aa(lp1776
F0.13960013381347
aI43
aI0
aI3
ag653
aa(lp1777
F1.8603998661865
aI41
aI110
aI3
ag655
aa(lp1778
F0.41520583529177
aI41
aI0
aI3
ag657
aa(lp1779
F1.0847941647082
aI0
aI0
aI0
ag659
aaa(lp1780
(lp1781
F0.75
aI48
aI105
aI3
ag662
aa(lp1782
F0.15085986596523
aI48
aI0
aI3
ag664
aa(lp1783
F0.34914013403477
aI48
aI108
aI3
ag666
aa(lp1784
F0.13838531381452
aI48
aI0
aI3
ag668
aa(lp1785
F0.61161468618548
aI48
aI105
aI3
ag670
aa(lp1786
F0.12700164422176
aI48
aI0
aI3
ag672
aa(lp1787
F0.62299835577824
aI48
aI98
aI3
ag674
aa(lp1788
F0.12655287821599
aI48
aI0
aI3
ag676
aa(lp1789
F0.62344712178401
aI48
aI109
aI3
ag678
aa(lp1790
F0.11580968438102
aI48
aI0
aI3
ag680
aa(lp1791
F0.63419031561898
aI48
aI108
aI3
ag682
aa(lp1792
F0.12676373130216
aI48
aI0
aI3
ag684
aa(lp1793
F0.62323626869784
aI48
aI109
aI3
ag686
aa(lp1794
F0.1389230453517
aI48
aI0
aI3
ag688
aa(lp1795
F0.6110769546483
aI48
aI105
aI3
ag690
aa(lp1796
F0.12850425329771
aI48
aI0
aI3
ag692
aa(lp1797
F0.62149574670229
aI48
aI108
aI3
ag694
aa(lp1798
F0.11480366758133
aI48
aI0
aI3
ag696
aa(lp1799
F0.88519633241867
aI48
aI110
aI3
ag698
aa(lp1800
F0.15085531287241
aI48
aI0
aI3
ag700
aa(lp1801
F0.59914468712759
aI48
aI101
aI3
ag702
aa(lp1802
F0.15053405778963
aI48
aI0
aI3
ag704
aa(lp1803
F0.34946594221037
aI47
aI111
aI3
ag706
aa(lp1804
F0.13893616064706
aI47
aI0
aI3
ag708
aa(lp1805
F0.61106383935294
aI47
aI105
aI3
ag710
aa(lp1806
F0.10390487915265
aI47
aI0
aI3
ag712
aa(lp1807
F0.64609512084735
aI47
aI105
aI3
ag714
aa(lp1808
F0.10457980052843
aI47
aI0
aI3
ag716
aa(lp1809
F0.64542019947157
aI47
aI111
aI3
ag718
aa(lp1810
F0.11545970655789
aI47
aI0
aI3
ag720
aa(lp1811
F0.63454029344211
aI47
aI110
aI3
ag722
aa(lp1812
F0.11598282131808
aI47
aI0
aI3
ag724
aa(lp1813
F0.63401717868192
aI47
aI107
aI3
ag726
aa(lp1814
F0.10448925833066
aI47
aI0
aI3
ag728
aa(lp1815
F0.64551074166934
aI47
aI109
aI3
ag730
aa(lp1816
F0.10392974536376
aI47
aI0
aI3
ag732
aa(lp1817
F0.64607025463624
aI47
aI112
aI3
ag734
aa(lp1818
F0.11598487341644
aI47
aI0
aI3
ag736
aa(lp1819
F0.63401512658356
aI47
aI109
aI3
ag738
aa(lp1820
F0.12727870400954
aI47
aI0
aI3
ag740
aa(lp1821
F0.62272129599046
aI47
aI114
aI3
ag742
aa(lp1822
F0.16164825018586
aI47
aI0
aI3
ag744
aa(lp1823
F0.33835174981414
aI0
aI0
aI0
ag746
aaaaa(lp1824
(lp1825
(dp1826
g344
g750
sg346
I0
sa(dp1827
g344
g752
sg346
I0
sa(dp1828
a(dp1829
aa(lp1830
(dp1831
g344
g353
sg346
I0
sa(dp1832
g344
g355
sg346
I0
sa(dp1833
a(dp1834
aa(lp1835
(dp1836
g344
g360
sg346
I0
sa(dp1837
g344
g763
sg346
I0
sa(dp1838
a(dp1839
aa(lp1840
(dp1841
g344
g367
sg346
I0
sa(dp1842
g344
g369
sg346
I0
sa(dp1843
g344
g770
sg346
I0
sa(dp1844
g344
g772
sg346
I0
saaa(lp1845
I60
aI60
aI36
aI36
aa(lp1846
(lp1847
I0
aI2
aI3
aI5
aI7
aI8
aI10
aa(lp1848
I0
aI2
aI3
aI5
aI7
aI8
aI10
aa(lp1849
I0
aI2
aI3
aI5
aI7
aI8
aI10
aa(lp1850
I0
aI1
aI2
aI3
aI4
aI5
aI6
aI7
aI8
aI9
aI10
aI11
aaa(lp1851
(lp1852
(lp1853
I1
aI14
aI22
aI34
aI46
aI56
aI66
aI75
aI85
aI96
aI113
aI127
aa(lp1854
I0
aI0
aI0
aI0
aI0
aI0
aI0
aI0
aI0
aI0
aI0
aI0
aa(lp1855
I0
aI0
aI0
aI0
aI0
aI0
aI0
aI0
aI0
aI0
aI0
aI0
aa(lp1856
I0
aI0
aI0
aI0
aI0
aI0
aI0
aI0
aI0
aI0
aI0
aI0
aaa(lp1857
(lp1858
I0
aI0
aI3
aI10
aI19
aI30
aI44
aI56
aI71
aI96
aI115
aI127
aa(lp1859
I0
aI0
aI0
aI0
aI0
aI0
aI0
aI0
aI0
aI0
aI0
aI0
aa(lp1860
I0
aI0
aI0
aI0
aI0
aI0
aI0
aI0
aI0
aI0
aI0
aI0
aa(lp1861
I0
aI0
aI0
aI0
aI0
aI0
aI0
aI0
aI0
aI0
aI0
aI0
aaa(lp1862
(lp1863
I1
aI9
aI13
aI25
aI37
aI50
aI63
aI78
aI94
aI108
aI127
aI127
aa(lp1864
I0
aI0
aI0
aI0
aI0
aI0
aI0
aI0
aI0
aI0
aI0
aI0
aa(lp1865
I0
aI0
aI0
aI0
aI0
aI0
aI0
aI0
aI0
aI0
aI0
aI0
aa(lp1866
I0
aI0
aI0
aI0
aI0
aI0
aI0
aI0
aI0
aI0
aI0
aI0
aaa(lp1867
(lp1868
I0
aI0
aI6
aI20
aI33
aI54
aI72
aI89
aI104
aI126
aI127
aI127
aa(lp1869
I0
aI0
aI0
aI0
aI0
aI0
aI0
aI0
aI0
aI0
aI0
aI0
aa(lp1870
I0
aI0
aI0
aI0
aI0
aI0
aI0
aI0
aI0
aI0
aI0
aI0
aa(lp1871
I0
aI0
aI0
aI0
aI0
aI0
aI0
aI0
aI0
aI0
aI0
aI0
aaaa(lp1872
(lp1873
I0
aI64
aI75
aI96
aI54
aI0
aI0
aI0
aI0
aI0
aI18
aI4
aa(lp1874
I127
aI120
aI104
aI88
aI76
aI70
aI64
aI60
aI52
aI43
aI33
aI17
aa(lp1875
I127
aI106
aI93
aI83
aI71
aI58
aI51
aI42
aI36
aI30
aI23
aI12
aa(lp1876
I124
aI102
aI85
aI70
aI61
aI54
aI45
aI39
aI34
aI28
aI24
aI16
aaaaI0
aI0
aI0
aI0
aI0
a(lp1877
(lp1878
(lp1879
(lp1880
(lp1881
F0.0
aI60
aI103
aI0
ag411
aa(lp1882
F0.33841775934707
aI60
aI0
aI0
ag413
aa(lp1883
F0.41158224065293
aI75
aI101
aI0
ag415
aa(lp1884
F0.24231219552848
aI75
aI0
aI0
ag417
aa(lp1885
F0.25768780447152
aI60
aI98
aI0
ag419
aa(lp1886
F0.16119843601814
aI60
aI0
aI0
ag421
aa(lp1887
F0.08880156398186
aI75
aI115
aI0
ag423
aa(lp1888
F0.26654188684302
aI75
aI0
aI0
ag425
aa(lp1889
F0.23345811315698
aI60
aI112
aI0
ag427
aa(lp1890
F0.35858466563764
aI60
aI0
aI0
ag429
aa(lp1891
F0.39141533436236
aI75
aI118
aI0
ag431
aa(lp1892
F0.23110779041986
aI75
aI0
aI0
ag433
aa(lp1893
F0.26889220958014
aI75
aI116
aI0
ag435
aa(lp1894
F0.18472542744757
aI75
aI0
aI0
ag437
aa(lp1895
F0.56527457255243
aI75
aI119
aI0
ag439
aa(lp1896
F0.21938824675613
aI75
aI0
aI0
ag441
aa(lp1897
F0.53061175324387
aI75
aI119
aI0
ag443
aa(lp1898
F0.21999133142822
aI75
aI0
aI0
ag445
aa(lp1899
F0.53000866857178
aI75
aI119
aI0
ag447
aa(lp1900
F0.19587320526057
aI75
aI0
aI0
ag449
aa(lp1901
F0.30412679473943
aI75
aI119
aI0
ag451
aa(lp1902
F0.20744331062519
aI75
aI0
aI0
ag453
aa(lp1903
F0.54255668937481
aI75
aI119
aI0
ag455
aa(lp1904
F0.22036238085002
aI75
aI0
aI0
ag457
aa(lp1905
F0.52963761914998
aI75
aI123
aI0
ag459
aa(lp1906
F0.19622545852462
aI75
aI0
aI0
ag461
aa(lp1907
F0.30377454147538
aI0
aI0
aI0
ag463
aaa(lp1908
(lp1909
F0.0
aI77
aI122
aI0
ag466
aa(lp1910
F0.48095641978671
aI77
aI0
aI0
ag468
aa(lp1911
F0.21807053216708
aI77
aI112
aI0
ag470
aa(lp1912
F0.35891732667096
aI77
aI0
aI0
ag472
aa(lp1913
F0.13912521240172
aI75
aI111
aI0
ag474
aa(lp1914
F0.27815991798752
aI77
aI100
aI0
ag476
aa(lp1915
F0.045852424101213
aI75
aI0
aI0
ag478
aa(lp1916
F0.32332493343029
aI77
aI0
aI0
ag480
aa(lp1917
F0.21972556481433
aI77
aI121
aI0
ag482
aa(lp1918
F0.42826682314126
aI77
aI0
aI0
ag484
aa(lp1919
F0.32348534426319
aI77
aI121
aI0
ag486
aa(lp1920
F0.40623135768874
aI77
aI0
aI0
ag488
aa(lp1921
F0.31310990057136
aI77
aI120
aI0
ag490
aa(lp1922
F0.24170501550498
aI77
aI0
aI0
ag492
aa(lp1923
F0.23092528857387
aI77
aI120
aI0
ag494
aa(lp1924
F0.45154493796281
aI77
aI0
aI0
ag496
aa(lp1925
F0.32388265302234
aI77
aI122
aI0
ag498
aa(lp1926
F0.39308472348876
aI77
aI0
aI0
ag500
aa(lp1927
F0.33503762865848
aI77
aI120
aI0
ag502
aa(lp1928
F0.32331475696947
aI77
aI0
aI0
ag504
aa(lp1929
F0.16223093107556
aI75
aI119
aI0
ag506
aa(lp1930
F0.023462978350381
aI76
aI61
aI0
ag508
aa(lp1931
F0.057487789725201
aI76
aI0
aI0
ag510
aa(lp1932
F0.32490161263604
aI75
aI0
aI0
ag512
aa(lp1933
F0.34655101827593
aI75
aI122
aI0
ag514
aa(lp1934
F0.42909027396627
aI75
aI0
aI0
ag516
aa(lp1935
F0.26525156157277
aI75
aI123
aI0
ag518
aa(lp1936
F0.54630307319258
aI75
aI0
aI0
ag520
aa(lp1937
F0.010000000000218
aI0
aI0
aI0
ag522
aaaI0
aI0
aa(lp1938
(lp1939
(lp1940
F0.0
aI65
aI96
aI1
ag57
aa(lp1941
F0.53243221040566
aI65
aI0
aI1
ag59
aa(lp1942
F0.46756778959434
aI68
aI44
aI1
ag61
aa(lp1943
F0.47377996111618
aI68
aI0
aI1
ag63
aa(lp1944
F0.27622003888382
aI70
aI101
aI1
ag65
aa(lp1945
F0.46281539719166
aI70
aI0
aI1
ag67
aa(lp1946
F0.28718460280834
aI72
aI49
aI1
ag69
aa(lp1947
F0.49852953204072
aI72
aI0
aI1
ag71
aa(lp1948
F0.25147046795928
aI75
aI80
aI1
ag73
aa(lp1949
F0.43888649083874
aI75
aI0
aI1
ag75
aa(lp1950
F0.31111350916126
aI77
aI73
aI1
ag77
aa(lp1951
F0.5672327104644
aI77
aI0
aI1
ag79
aa(lp1952
F0.1827672895356
aI75
aI44
aI1
ag81
aa(lp1953
F0.51990647963476
aI75
aI0
aI1
ag83
aa(lp1954
F0.23009352036524
aI72
aI43
aI1
ag85
aa(lp1955
F0.55468739409753
aI72
aI0
aI1
ag87
aa(lp1956
F0.19531260590247
aI70
aI64
aI1
ag89
aa(lp1957
F0.56585789757082
aI70
aI0
aI1
ag91
aa(lp1958
F0.43414210242918
aI68
aI87
aI1
ag93
aa(lp1959
F0.44036509832722
aI68
aI0
aI1
ag95
aa(lp1960
F0.30963490167278
aI0
aI0
aI0
ag97
aaa(lp1961
(lp1962
F0.14879124294384
aI70
aI83
aI1
ag100
aa(lp1963
F0.52055605936721
aI70
aI0
aI1
ag102
aa(lp1964
F0.25483319630166
aI72
aI84
aI1
ag104
aa(lp1965
F0.47476195200397
aI72
aI0
aI1
ag106
aa(lp1966
F0.28825174534904
aI75
aI71
aI1
ag108
aa(lp1967
F0.484444098312
aI75
aI0
aI1
ag110
aa(lp1968
F0.26539891902621
aI77
aI18
aI1
ag112
aa(lp1969
F0.55717864790086
aI77
aI0
aI1
ag114
aa(lp1970
F0.27654690028021
aI80
aI70
aI1
ag116
aa(lp1971
F0.53293372285316
aI80
aI0
aI1
ag118
aa(lp1972
F0.25545071863417
aI82
aI45
aI1
ag120
aa(lp1973
F0.58994128843869
aI82
aI0
aI1
ag122
aa(lp1974
F0.19638516173745
aI80
aI74
aI1
ag124
aa(lp1975
F0.5681461197014
aI80
aI0
aI1
ag126
aa(lp1976
F0.22918518672714
aI77
aI29
aI1
ag128
aa(lp1977
F0.49720897591533
aI77
aI0
aI1
ag130
aa(lp1978
F0.15113372156065
aI75
aI67
aI1
ag132
aa(lp1979
F0.61147737314923
aI75
aI0
aI1
ag134
aa(lp1980
F0.26424219684577
aI72
aI47
aI1
ag136
aa(lp1981
F0.65929630434493
aI72
aI0
aI1
ag138
aa(lp1982
F0.17383646860708
aI0
aI0
aI0
ag140
aaaI0
aI0
aa(lp1983
(lp1984
(lp1985
F0.0
aI41
aI9
aI2
ag144
aa(lp1986
F0.078317564050849
aI31
aI10
aI2
ag146
aa(lp1987
F7.1416538750236
aI41
aI0
aI2
ag148
aa(lp1988
F0.046898447969852
aI31
aI0
aI2
ag150
aa(lp1989
F0.72838229416357
aI39
aI7
aI2
ag152
aa(lp1990
F0.10430063778222
aI29
aI26
aI2
ag154
aa(lp1991
F7.7979187792748
aI39
aI0
aI2
ag156
aa(lp1992
F0.023129541145863
aI29
aI0
aI2
ag158
aa(lp1993
F0.079398860589208
aI0
aI0
aI0
ag160
aaa(lp1994
(lp1995
F0.0
aI29
aI108
aI2
ag1434
aa(lp1996
F0.28875988073332
aI29
aI0
aI2
ag1436
aa(lp1997
F0.18419862655628
aI32
aI87
aI2
ag1438
aa(lp1998
F0.29199382203569
aI32
aI0
aI2
ag1440
aa(lp1999
F0.19502480261644
aI34
aI86
aI2
ag1442
aa(lp2000
F0.22823507856992
aI34
aI0
aI2
ag1444
aa(lp2001
F0.26121930259296
aI36
aI91
aI2
ag1446
aa(lp2002
F0.28305993341928
aI36
aI0
aI2
ag1448
aa(lp2003
F0.020833400879837
aI39
aI96
aI2
ag1450
aa(lp2004
F0.26096340238473
aI39
aI0
aI2
ag1452
aa(lp2005
F0.20546854293934
aI41
aI99
aI2
ag1454
aa(lp2006
F0.38976362426956
aI41
aI0
aI2
ag1456
aa(lp2007
F0.076403588827361
aI39
aI94
aI2
ag1458
aa(lp2008
F0.25926980318218
aI39
aI0
aI2
ag1460
aa(lp2009
F0.20655149161621
aI36
aI114
aI2
ag1462
aa(lp2010
F0.26046924939874
aI34
aI113
aI2
ag1464
aa(lp2011
F0.010094704353378
aI36
aI0
aI2
ag1466
aa(lp2012
F0.30451994887972
aI34
aI0
aI2
ag1468
aa(lp2013
F0.27317079674503
aI0
aI0
aI0
ag1470
aaaI0
aI0
aa(lp2014
(lp2015
(lp2016
F0.0
aI36
aI110
aI3
ag235
aa(lp2017
F0.11084379336376
aI36
aI0
aI3
ag237
aa(lp2018
F0.88915620663624
aI38
aI112
aI3
ag239
aa(lp2019
F0.18630394204251
aI38
aI0
aI3
ag241
aa(lp2020
F0.81369605795749
aI36
aI107
aI3
ag243
aa(lp2021
F0.13812222510046
aI36
aI0
aI3
ag245
aa(lp2022
F0.86187777489954
aI38
aI103
aI3
ag247
aa(lp2023
F0.11504280335657
aI38
aI0
aI3
ag249
aa(lp2024
F0.88495719664343
aI36
aI98
aI3
ag251
aa(lp2025
F0.13863779486201
aI36
aI0
aI3
ag253
aa(lp2026
F0.86136220513799
aI38
aI99
aI3
ag255
aa(lp2027
F0.1503529092663
aI38
aI0
aI3
ag257
aa(lp2028
F0.8496470907337
aI36
aI99
aI3
ag259
aa(lp2029
F0.15073370615437
aI36
aI0
aI3
ag261
aa(lp2030
F0.84926629384563
aI38
aI103
aI3
ag263
aa(lp2031
F0.11584862780842
aI38
aI0
aI3
ag265
aa(lp2032
F0.88415137219158
aI0
aI0
aI0
ag267
aaa(lp2033
(lp2034
F0.5
aI42
aI98
aI3
ag270
aa(lp2035
F0.15080598954319
aI42
aI0
aI3
ag272
aa(lp2036
F0.59919401045681
aI44
aI97
aI3
ag274
aa(lp2037
F0.092536301768632
aI44
aI0
aI3
ag276
aa(lp2038
F0.40746369823137
aI44
aI95
aI3
ag278
aa(lp2039
F0.12682515272331
aI44
aI0
aI3
ag280
aa(lp2040
F0.62317484727669
aI42
aI108
aI3
ag282
aa(lp2041
F0.16232490744187
aI42
aI0
aI3
ag284
aa(lp2042
F0.83767509255813
aI44
aI108
aI3
ag286
aa(lp2043
F0.12723103474195
aI44
aI0
aI3
ag288
aa(lp2044
F0.37276896525805
aI0
aI0
aI0
ag290
aaa(lp2045
(lp2046
F0.0
aI36
aI112
aI3
aS'on'
p2047
aa(lp2048
F0.18451314604363
aI36
aI0
aI3
aS'off'
p2049
aa(lp2050
F0.31548685395637
aI42
aI106
aI3
aS'on'
p2051
aa(lp2052
F0.12955019620358
aI42
aI0
aI3
aS'off'
p2053
aa(lp2054
F0.37044980379642
aI36
aI112
aI3
aS'on'
p2055
aa(lp2056
F0.16265311591224
aI36
aI0
aI3
aS'off'
p2057
aa(lp2058
F0.33734688408776
aI42
aI108
aI3
aS'on'
p2059
aa(lp2060
F0.13117883077393
aI42
aI0
aI3
aS'off'
p2061
aa(lp2062
F0.36882116922607
aI36
aI111
aI3
aS'on'
p2063
aa(lp2064
F0.15210116208755
aI36
aI0
aI3
aS'off'
p2065
aa(lp2066
F0.34789883791245
aI42
aI109
aI3
aS'on'
p2067
aa(lp2068
F0.14138117574066
aI42
aI0
aI3
aS'off'
p2069
aa(lp2070
F0.35861882425934
aI36
aI114
aI3
aS'on'
p2071
aa(lp2072
F0.16285837368014
aI36
aI0
aI3
aS'off'
p2073
aa(lp2074
F0.33714162631986
aI42
aI116
aI3
aS'on'
p2075
aa(lp2076
F0.097254165959384
aI42
aI0
aI3
aS'off'
p2077
aa(lp2078
F0.15274583404062
aI42
aI117
aI3
aS'on'
p2079
aa(lp2080
F0.11915943346048
aI42
aI0
aI3
aS'off'
p2081
aa(lp2082
F0.13084056653952
aI0
aI0
aI0
aS'timeAfterLastHit'
p2083
aaa(lp2084
(lp2085
F0.75
aI48
aI105
aI3
ag662
aa(lp2086
F0.15085986596523
aI48
aI0
aI3
ag664
aa(lp2087
F0.34914013403477
aI48
aI108
aI3
ag666
aa(lp2088
F0.13838531381452
aI48
aI0
aI3
ag668
aa(lp2089
F0.61161468618548
aI48
aI105
aI3
ag670
aa(lp2090
F0.12700164422176
aI48
aI0
aI3
ag672
aa(lp2091
F0.62299835577824
aI48
aI98
aI3
ag674
aa(lp2092
F0.12655287821599
aI48
aI0
aI3
ag676
aa(lp2093
F0.62344712178401
aI48
aI109
aI3
ag678
aa(lp2094
F0.11580968438102
aI48
aI0
aI3
ag680
aa(lp2095
F0.63419031561898
aI48
aI108
aI3
ag682
aa(lp2096
F0.12676373130216
aI48
aI0
aI3
ag684
aa(lp2097
F0.62323626869784
aI48
aI109
aI3
ag686
aa(lp2098
F0.1389230453517
aI48
aI0
aI3
ag688
aa(lp2099
F0.6110769546483
aI48
aI105
aI3
ag690
aa(lp2100
F0.12850425329771
aI48
aI0
aI3
ag692
aa(lp2101
F0.62149574670229
aI48
aI108
aI3
ag694
aa(lp2102
F0.11480366758133
aI48
aI0
aI3
ag696
aa(lp2103
F0.88519633241867
aI48
aI110
aI3
ag698
aa(lp2104
F0.15085531287241
aI48
aI0
aI3
ag700
aa(lp2105
F0.59914468712759
aI48
aI101
aI3
ag702
aa(lp2106
F0.15053405778963
aI48
aI0
aI3
ag704
aa(lp2107
F0.34946594221037
aI47
aI111
aI3
ag706
aa(lp2108
F0.13893616064706
aI47
aI0
aI3
ag708
aa(lp2109
F0.61106383935294
aI47
aI105
aI3
ag710
aa(lp2110
F0.10390487915265
aI47
aI0
aI3
ag712
aa(lp2111
F0.64609512084735
aI47
aI105
aI3
ag714
aa(lp2112
F0.10457980052843
aI47
aI0
aI3
ag716
aa(lp2113
F0.64542019947157
aI47
aI111
aI3
ag718
aa(lp2114
F0.11545970655789
aI47
aI0
aI3
ag720
aa(lp2115
F0.63454029344211
aI47
aI110
aI3
ag722
aa(lp2116
F0.11598282131808
aI47
aI0
aI3
ag724
aa(lp2117
F0.63401717868192
aI47
aI107
aI3
ag726
aa(lp2118
F0.10448925833066
aI47
aI0
aI3
ag728
aa(lp2119
F0.64551074166934
aI47
aI109
aI3
ag730
aa(lp2120
F0.10392974536376
aI47
aI0
aI3
ag732
aa(lp2121
F0.64607025463624
aI47
aI112
aI3
ag734
aa(lp2122
F0.11598487341644
aI47
aI0
aI3
ag736
aa(lp2123
F0.63401512658356
aI47
aI109
aI3
ag738
aa(lp2124
F0.12727870400954
aI47
aI0
aI3
ag740
aa(lp2125
F0.62272129599046
aI47
aI114
aI3
ag742
aa(lp2126
F0.16164825018586
aI47
aI0
aI3
ag744
aa(lp2127
F0.33835174981414
aI0
aI0
aI0
ag746
aaaaa(lp2128
(lp2129
(dp2130
g344
g750
sg346
I0
sa(dp2131
g344
g752
sg346
I0
sa(dp2132
a(dp2133
aa(lp2134
(dp2135
g344
g353
sg346
I1
sa(dp2136
g344
g355
sg346
I1
sa(dp2137
a(dp2138
aa(lp2139
(dp2140
g344
g360
sg346
I0
sa(dp2141
g344
g1566
sg346
I1
sa(dp2142
a(dp2143
aa(lp2144
(dp2145
g344
g367
sg346
I0
sa(dp2146
g344
g369
sg346
I1
sa(dp2147
g344
S'39'
p2148
sg346
I1
sa(dp2149
g344
g772
sg346
I1
saaa(lp2150
I60
aI60
aI36
aI36
aa(lp2151
(lp2152
I0
aI2
aI3
aI5
aI7
aI8
aI10
aa(lp2153
I0
aI2
aI3
aI5
aI7
aI8
aI10
aa(lp2154
I0
aI2
aI3
aI5
aI7
aI8
aI10
aa(lp2155
I0
aI1
aI2
aI3
aI4
aI5
aI6
aI7
aI8
aI9
aI10
aI11
aaa(lp2156
(lp2157
(lp2158
I1
aI14
aI22
aI34
aI46
aI56
aI66
aI75
aI85
aI96
aI113
aI127
aa(lp2159
I0
aI0
aI0
aI0
aI0
aI0
aI0
aI0
aI0
aI0
aI0
aI0
aa(lp2160
I0
aI0
aI0
aI0
aI0
aI0
aI0
aI0
aI0
aI0
aI0
aI0
aa(lp2161
I0
aI0
aI0
aI0
aI0
aI0
aI0
aI0
aI0
aI0
aI0
aI0
aaa(lp2162
(lp2163
I0
aI0
aI3
aI10
aI19
aI30
aI44
aI56
aI71
aI96
aI115
aI127
aa(lp2164
I0
aI0
aI0
aI0
aI0
aI0
aI0
aI0
aI0
aI0
aI0
aI0
aa(lp2165
I0
aI0
aI0
aI0
aI0
aI0
aI0
aI0
aI0
aI0
aI0
aI0
aa(lp2166
I0
aI0
aI0
aI0
aI0
aI0
aI0
aI0
aI0
aI0
aI0
aI0
aaa(lp2167
(lp2168
I1
aI9
aI13
aI25
aI37
aI50
aI63
aI78
aI94
aI108
aI127
aI127
aa(lp2169
I0
aI0
aI0
aI0
aI0
aI0
aI0
aI0
aI0
aI0
aI0
aI0
aa(lp2170
I0
aI0
aI0
aI0
aI0
aI0
aI0
aI0
aI0
aI0
aI0
aI0
aa(lp2171
I0
aI0
aI0
aI0
aI0
aI0
aI0
aI0
aI0
aI0
aI0
aI0
aaa(lp2172
(lp2173
I0
aI0
aI6
aI20
aI33
aI54
aI72
aI89
aI104
aI126
aI127
aI127
aa(lp2174
I0
aI0
aI0
aI0
aI0
aI0
aI0
aI0
aI0
aI0
aI0
aI0
aa(lp2175
I0
aI0
aI0
aI0
aI0
aI0
aI0
aI0
aI0
aI0
aI0
aI0
aa(lp2176
I0
aI0
aI0
aI0
aI0
aI0
aI0
aI0
aI0
aI0
aI0
aI0
aaaa(lp2177
(lp2178
I0
aI64
aI75
aI96
aI54
aI0
aI0
aI0
aI0
aI0
aI18
aI4
aa(lp2179
I127
aI120
aI104
aI88
aI76
aI70
aI64
aI60
aI52
aI43
aI33
aI17
aa(lp2180
I127
aI106
aI93
aI83
aI71
aI58
aI51
aI42
aI36
aI30
aI23
aI12
aa(lp2181
I124
aI102
aI85
aI70
aI61
aI54
aI45
aI39
aI34
aI28
aI24
aI16
aaaaI0
aI0
aI0
a(lp2182
(lp2183
(lp2184
(lp2185
(lp2186
F0.0
aI60
aI103
aI0
ag411
aa(lp2187
F0.33841775934707
aI60
aI0
aI0
ag413
aa(lp2188
F0.41158224065293
aI75
aI101
aI0
ag415
aa(lp2189
F0.24231219552848
aI75
aI0
aI0
ag417
aa(lp2190
F0.25768780447152
aI60
aI98
aI0
ag419
aa(lp2191
F0.16119843601814
aI60
aI0
aI0
ag421
aa(lp2192
F0.08880156398186
aI75
aI115
aI0
ag423
aa(lp2193
F0.26654188684302
aI75
aI0
aI0
ag425
aa(lp2194
F0.23345811315698
aI60
aI112
aI0
ag427
aa(lp2195
F0.35858466563764
aI60
aI0
aI0
ag429
aa(lp2196
F0.39141533436236
aI75
aI118
aI0
ag431
aa(lp2197
F0.23110779041986
aI75
aI0
aI0
ag433
aa(lp2198
F0.26889220958014
aI75
aI116
aI0
ag435
aa(lp2199
F0.18472542744757
aI75
aI0
aI0
ag437
aa(lp2200
F0.56527457255243
aI75
aI119
aI0
ag439
aa(lp2201
F0.21938824675613
aI75
aI0
aI0
ag441
aa(lp2202
F0.53061175324387
aI75
aI119
aI0
ag443
aa(lp2203
F0.21999133142822
aI75
aI0
aI0
ag445
aa(lp2204
F0.53000866857178
aI75
aI119
aI0
ag447
aa(lp2205
F0.19587320526057
aI75
aI0
aI0
ag449
aa(lp2206
F0.30412679473943
aI75
aI119
aI0
ag451
aa(lp2207
F0.20744331062519
aI75
aI0
aI0
ag453
aa(lp2208
F0.54255668937481
aI75
aI119
aI0
ag455
aa(lp2209
F0.22036238085002
aI75
aI0
aI0
ag457
aa(lp2210
F0.52963761914998
aI75
aI123
aI0
ag459
aa(lp2211
F0.19622545852462
aI75
aI0
aI0
ag461
aa(lp2212
F0.30377454147538
aI0
aI0
aI0
ag463
aaa(lp2213
(lp2214
F0.0
aI77
aI122
aI0
ag466
aa(lp2215
F0.48095641978671
aI77
aI0
aI0
ag468
aa(lp2216
F0.21807053216708
aI77
aI112
aI0
ag470
aa(lp2217
F0.35891732667096
aI77
aI0
aI0
ag472
aa(lp2218
F0.13912521240172
aI75
aI111
aI0
ag474
aa(lp2219
F0.27815991798752
aI77
aI100
aI0
ag476
aa(lp2220
F0.045852424101213
aI75
aI0
aI0
ag478
aa(lp2221
F0.32332493343029
aI77
aI0
aI0
ag480
aa(lp2222
F0.21972556481433
aI77
aI121
aI0
ag482
aa(lp2223
F0.42826682314126
aI77
aI0
aI0
ag484
aa(lp2224
F0.32348534426319
aI77
aI121
aI0
ag486
aa(lp2225
F0.40623135768874
aI77
aI0
aI0
ag488
aa(lp2226
F0.31310990057136
aI77
aI120
aI0
ag490
aa(lp2227
F0.24170501550498
aI77
aI0
aI0
ag492
aa(lp2228
F0.23092528857387
aI77
aI120
aI0
ag494
aa(lp2229
F0.45154493796281
aI77
aI0
aI0
ag496
aa(lp2230
F0.32388265302234
aI77
aI122
aI0
ag498
aa(lp2231
F0.39308472348876
aI77
aI0
aI0
ag500
aa(lp2232
F0.33503762865848
aI77
aI120
aI0
ag502
aa(lp2233
F0.32331475696947
aI77
aI0
aI0
ag504
aa(lp2234
F0.16223093107556
aI75
aI119
aI0
ag506
aa(lp2235
F0.023462978350381
aI76
aI61
aI0
ag508
aa(lp2236
F0.057487789725201
aI76
aI0
aI0
ag510
aa(lp2237
F0.32490161263604
aI75
aI0
aI0
ag512
aa(lp2238
F0.34655101827593
aI75
aI122
aI0
ag514
aa(lp2239
F0.42909027396627
aI75
aI0
aI0
ag516
aa(lp2240
F0.26525156157277
aI75
aI123
aI0
ag518
aa(lp2241
F0.54630307319258
aI75
aI0
aI0
ag520
aa(lp2242
F0.010000000000218
aI0
aI0
aI0
ag522
aaaI0
aI0
aa(lp2243
(lp2244
(lp2245
F0.0
aI65
aI96
aI1
ag57
aa(lp2246
F0.53243221040566
aI65
aI0
aI1
ag59
aa(lp2247
F0.46756778959434
aI68
aI44
aI1
ag61
aa(lp2248
F0.47377996111618
aI68
aI0
aI1
ag63
aa(lp2249
F0.27622003888382
aI70
aI101
aI1
ag65
aa(lp2250
F0.46281539719166
aI70
aI0
aI1
ag67
aa(lp2251
F0.28718460280834
aI72
aI49
aI1
ag69
aa(lp2252
F0.49852953204072
aI72
aI0
aI1
ag71
aa(lp2253
F0.25147046795928
aI75
aI80
aI1
ag73
aa(lp2254
F0.43888649083874
aI75
aI0
aI1
ag75
aa(lp2255
F0.31111350916126
aI77
aI73
aI1
ag77
aa(lp2256
F0.5672327104644
aI77
aI0
aI1
ag79
aa(lp2257
F0.1827672895356
aI75
aI44
aI1
ag81
aa(lp2258
F0.51990647963476
aI75
aI0
aI1
ag83
aa(lp2259
F0.23009352036524
aI72
aI43
aI1
ag85
aa(lp2260
F0.55468739409753
aI72
aI0
aI1
ag87
aa(lp2261
F0.19531260590247
aI70
aI64
aI1
ag89
aa(lp2262
F0.56585789757082
aI70
aI0
aI1
ag91
aa(lp2263
F0.43414210242918
aI68
aI87
aI1
ag93
aa(lp2264
F0.44036509832722
aI68
aI0
aI1
ag95
aa(lp2265
F0.30963490167278
aI0
aI0
aI0
ag97
aaa(lp2266
(lp2267
F0.14879124294384
aI70
aI83
aI1
ag100
aa(lp2268
F0.52055605936721
aI70
aI0
aI1
ag102
aa(lp2269
F0.25483319630166
aI72
aI84
aI1
ag104
aa(lp2270
F0.47476195200397
aI72
aI0
aI1
ag106
aa(lp2271
F0.28825174534904
aI75
aI71
aI1
ag108
aa(lp2272
F0.484444098312
aI75
aI0
aI1
ag110
aa(lp2273
F0.26539891902621
aI77
aI18
aI1
ag112
aa(lp2274
F0.55717864790086
aI77
aI0
aI1
ag114
aa(lp2275
F0.27654690028021
aI80
aI70
aI1
ag116
aa(lp2276
F0.53293372285316
aI80
aI0
aI1
ag118
aa(lp2277
F0.25545071863417
aI82
aI45
aI1
ag120
aa(lp2278
F0.58994128843869
aI82
aI0
aI1
ag122
aa(lp2279
F0.19638516173745
aI80
aI74
aI1
ag124
aa(lp2280
F0.5681461197014
aI80
aI0
aI1
ag126
aa(lp2281
F0.22918518672714
aI77
aI29
aI1
ag128
aa(lp2282
F0.49720897591533
aI77
aI0
aI1
ag130
aa(lp2283
F0.15113372156065
aI75
aI67
aI1
ag132
aa(lp2284
F0.61147737314923
aI75
aI0
aI1
ag134
aa(lp2285
F0.26424219684577
aI72
aI47
aI1
ag136
aa(lp2286
F0.65929630434493
aI72
aI0
aI1
ag138
aa(lp2287
F0.17383646860708
aI0
aI0
aI0
ag140
aaaI0
aI0
aa(lp2288
(lp2289
(lp2290
F0.0
aI41
aI9
aI2
ag144
aa(lp2291
F0.078317564050849
aI31
aI10
aI2
ag146
aa(lp2292
F7.1416538750236
aI41
aI0
aI2
ag148
aa(lp2293
F0.046898447969852
aI31
aI0
aI2
ag150
aa(lp2294
F0.72838229416357
aI39
aI7
aI2
ag152
aa(lp2295
F0.10430063778222
aI29
aI26
aI2
ag154
aa(lp2296
F7.7979187792748
aI39
aI0
aI2
ag156
aa(lp2297
F0.023129541145863
aI29
aI0
aI2
ag158
aa(lp2298
F0.079398860589208
aI0
aI0
aI0
ag160
aaa(lp2299
(lp2300
F0.0
aI24
aI86
aI2
ag581
aa(lp2301
F0.44795046054469
aI24
aI0
aI2
ag583
aa(lp2302
F0.035087234339699
aI27
aI94
aI2
ag585
aa(lp2303
F0.41689155653603
aI27
aI0
aI2
ag587
aa(lp2304
F0.081100347899337
aI29
aI72
aI2
ag589
aa(lp2305
F0.36792911132989
aI29
aI0
aI2
ag591
aa(lp2306
F0.10504497005104
aI31
aI95
aI2
ag593
aa(lp2307
F0.30017004621914
aI34
aI104
aI2
ag595
aa(lp2308
F0.00019672500911838
aI31
aI0
aI2
ag597
aa(lp2309
F0.3236034880656
aI34
aI0
aI2
ag599
aa(lp2310
F0.15069417451787
aI36
aI101
aI2
ag601
aa(lp2311
F0.41801737562264
aI36
aI0
aI2
ag603
aa(lp2312
F0.12877390739959
aI34
aI111
aI2
ag605
aa(lp2313
F0.36799194799096
aI34
aI0
aI2
ag607
aa(lp2314
F0.12664910127569
aI31
aI114
aI2
ag609
aa(lp2315
F0.16189798920595
aI31
aI0
aI2
ag611
aa(lp2316
F0.02333782026335
aI29
aI114
aI2
ag613
aa(lp2317
F0.25402735415992
aI29
aI0
aI2
ag615
aa(lp2318
F0.2906363895695
aI0
aI0
aI0
ag617
aaaI0
aI0
aa(lp2319
(lp2320
(lp2321
F0.0
aI36
aI110
aI3
ag235
aa(lp2322
F0.11084379336376
aI36
aI0
aI3
ag237
aa(lp2323
F0.88915620663624
aI38
aI112
aI3
ag239
aa(lp2324
F0.18630394204251
aI38
aI0
aI3
ag241
aa(lp2325
F0.81369605795749
aI36
aI107
aI3
ag243
aa(lp2326
F0.13812222510046
aI36
aI0
aI3
ag245
aa(lp2327
F0.86187777489954
aI38
aI103
aI3
ag247
aa(lp2328
F0.11504280335657
aI38
aI0
aI3
ag249
aa(lp2329
F0.88495719664343
aI36
aI98
aI3
ag251
aa(lp2330
F0.13863779486201
aI36
aI0
aI3
ag253
aa(lp2331
F0.86136220513799
aI38
aI99
aI3
ag255
aa(lp2332
F0.1503529092663
aI38
aI0
aI3
ag257
aa(lp2333
F0.8496470907337
aI36
aI99
aI3
ag259
aa(lp2334
F0.15073370615437
aI36
aI0
aI3
ag261
aa(lp2335
F0.84926629384563
aI38
aI103
aI3
ag263
aa(lp2336
F0.11584862780842
aI38
aI0
aI3
ag265
aa(lp2337
F0.88415137219158
aI0
aI0
aI0
ag267
aaa(lp2338
(lp2339
F0.5
aI42
aI98
aI3
ag270
aa(lp2340
F0.15080598954319
aI42
aI0
aI3
ag272
aa(lp2341
F0.59919401045681
aI44
aI97
aI3
ag274
aa(lp2342
F0.092536301768632
aI44
aI0
aI3
ag276
aa(lp2343
F0.40746369823137
aI44
aI95
aI3
ag278
aa(lp2344
F0.12682515272331
aI44
aI0
aI3
ag280
aa(lp2345
F0.62317484727669
aI42
aI108
aI3
ag282
aa(lp2346
F0.16232490744187
aI42
aI0
aI3
ag284
aa(lp2347
F0.83767509255813
aI44
aI108
aI3
ag286
aa(lp2348
F0.12723103474195
aI44
aI0
aI3
ag288
aa(lp2349
F0.37276896525805
aI0
aI0
aI0
ag290
aaa(lp2350
(lp2351
F0.5
aI43
aI101
aI3
ag651
aa(lp2352
F0.13960013381347
aI43
aI0
aI3
ag653
aa(lp2353
F1.8603998661865
aI41
aI110
aI3
ag655
aa(lp2354
F0.41520583529177
aI41
aI0
aI3
ag657
aa(lp2355
F1.0847941647082
aI0
aI0
aI0
ag659
aaa(lp2356
(lp2357
F0.75
aI48
aI105
aI3
ag662
aa(lp2358
F0.15085986596523
aI48
aI0
aI3
ag664
aa(lp2359
F0.34914013403477
aI48
aI108
aI3
ag666
aa(lp2360
F0.13838531381452
aI48
aI0
aI3
ag668
aa(lp2361
F0.61161468618548
aI48
aI105
aI3
ag670
aa(lp2362
F0.12700164422176
aI48
aI0
aI3
ag672
aa(lp2363
F0.62299835577824
aI48
aI98
aI3
ag674
aa(lp2364
F0.12655287821599
aI48
aI0
aI3
ag676
aa(lp2365
F0.62344712178401
aI48
aI109
aI3
ag678
aa(lp2366
F0.11580968438102
aI48
aI0
aI3
ag680
aa(lp2367
F0.63419031561898
aI48
aI108
aI3
ag682
aa(lp2368
F0.12676373130216
aI48
aI0
aI3
ag684
aa(lp2369
F0.62323626869784
aI48
aI109
aI3
ag686
aa(lp2370
F0.1389230453517
aI48
aI0
aI3
ag688
aa(lp2371
F0.6110769546483
aI48
aI105
aI3
ag690
aa(lp2372
F0.12850425329771
aI48
aI0
aI3
ag692
aa(lp2373
F0.62149574670229
aI48
aI108
aI3
ag694
aa(lp2374
F0.11480366758133
aI48
aI0
aI3
ag696
aa(lp2375
F0.88519633241867
aI48
aI110
aI3
ag698
aa(lp2376
F0.15085531287241
aI48
aI0
aI3
ag700
aa(lp2377
F0.59914468712759
aI48
aI101
aI3
ag702
aa(lp2378
F0.15053405778963
aI48
aI0
aI3
ag704
aa(lp2379
F0.34946594221037
aI47
aI111
aI3
ag706
aa(lp2380
F0.13893616064706
aI47
aI0
aI3
ag708
aa(lp2381
F0.61106383935294
aI47
aI105
aI3
ag710
aa(lp2382
F0.10390487915265
aI47
aI0
aI3
ag712
aa(lp2383
F0.64609512084735
aI47
aI105
aI3
ag714
aa(lp2384
F0.10457980052843
aI47
aI0
aI3
ag716
aa(lp2385
F0.64542019947157
aI47
aI111
aI3
ag718
aa(lp2386
F0.11545970655789
aI47
aI0
aI3
ag720
aa(lp2387
F0.63454029344211
aI47
aI110
aI3
ag722
aa(lp2388
F0.11598282131808
aI47
aI0
aI3
ag724
aa(lp2389
F0.63401717868192
aI47
aI107
aI3
ag726
aa(lp2390
F0.10448925833066
aI47
aI0
aI3
ag728
aa(lp2391
F0.64551074166934
aI47
aI109
aI3
ag730
aa(lp2392
F0.10392974536376
aI47
aI0
aI3
ag732
aa(lp2393
F0.64607025463624
aI47
aI112
aI3
ag734
aa(lp2394
F0.11598487341644
aI47
aI0
aI3
ag736
aa(lp2395
F0.63401512658356
aI47
aI109
aI3
ag738
aa(lp2396
F0.12727870400954
aI47
aI0
aI3
ag740
aa(lp2397
F0.62272129599046
aI47
aI114
aI3
ag742
aa(lp2398
F0.16164825018586
aI47
aI0
aI3
ag744
aa(lp2399
F0.33835174981414
aI0
aI0
aI0
ag746
aaaaa(lp2400
(lp2401
(dp2402
g344
g750
sg346
I0
sa(dp2403
g344
g752
sg346
I0
sa(dp2404
a(dp2405
aa(lp2406
(dp2407
g344
g353
sg346
I0
sa(dp2408
g344
g355
sg346
I0
sa(dp2409
a(dp2410
aa(lp2411
(dp2412
g344
g360
sg346
I0
sa(dp2413
g344
g763
sg346
I0
sa(dp2414
a(dp2415
aa(lp2416
(dp2417
g344
g367
sg346
I1
sa(dp2418
g344
g369
sg346
I0
sa(dp2419
g344
g770
sg346
I0
sa(dp2420
g344
g772
sg346
I0
saaa(lp2421
I60
aI60
aI36
aI36
aa(lp2422
(lp2423
I0
aI2
aI3
aI5
aI7
aI8
aI10
aa(lp2424
I0
aI2
aI3
aI5
aI7
aI8
aI10
aa(lp2425
I0
aI2
aI3
aI5
aI7
aI8
aI10
aa(lp2426
I0
aI1
aI2
aI3
aI4
aI5
aI6
aI7
aI8
aI9
aI10
aI11
aaa(lp2427
(lp2428
(lp2429
I1
aI14
aI22
aI34
aI46
aI56
aI66
aI75
aI85
aI96
aI113
aI127
aa(lp2430
I0
aI0
aI0
aI0
aI0
aI0
aI0
aI0
aI0
aI0
aI0
aI0
aa(lp2431
I0
aI0
aI0
aI0
aI0
aI0
aI0
aI0
aI0
aI0
aI0
aI0
aa(lp2432
I0
aI0
aI0
aI0
aI0
aI0
aI0
aI0
aI0
aI0
aI0
aI0
aaa(lp2433
(lp2434
I0
aI0
aI3
aI10
aI19
aI30
aI44
aI56
aI71
aI96
aI115
aI127
aa(lp2435
I0
aI0
aI0
aI0
aI0
aI0
aI0
aI0
aI0
aI0
aI0
aI0
aa(lp2436
I0
aI0
aI0
aI0
aI0
aI0
aI0
aI0
aI0
aI0
aI0
aI0
aa(lp2437
I0
aI0
aI0
aI0
aI0
aI0
aI0
aI0
aI0
aI0
aI0
aI0
aaa(lp2438
(lp2439
I1
aI9
aI13
aI25
aI37
aI50
aI63
aI78
aI94
aI108
aI127
aI127
aa(lp2440
I0
aI0
aI0
aI0
aI0
aI0
aI0
aI0
aI0
aI0
aI0
aI0
aa(lp2441
I0
aI0
aI0
aI0
aI0
aI0
aI0
aI0
aI0
aI0
aI0
aI0
aa(lp2442
I0
aI0
aI0
aI0
aI0
aI0
aI0
aI0
aI0
aI0
aI0
aI0
aaa(lp2443
(lp2444
I0
aI0
aI6
aI20
aI33
aI54
aI72
aI89
aI104
aI126
aI127
aI127
aa(lp2445
I0
aI0
aI0
aI0
aI0
aI0
aI0
aI0
aI0
aI0
aI0
aI0
aa(lp2446
I0
aI0
aI0
aI0
aI0
aI0
aI0
aI0
aI0
aI0
aI0
aI0
aa(lp2447
I0
aI0
aI0
aI0
aI0
aI0
aI0
aI0
aI0
aI0
aI0
aI0
aaaa(lp2448
(lp2449
I0
aI64
aI75
aI96
aI54
aI0
aI0
aI0
aI0
aI0
aI18
aI4
aa(lp2450
I127
aI120
aI104
aI88
aI76
aI70
aI64
aI60
aI52
aI43
aI33
aI17
aa(lp2451
I127
aI106
aI93
aI83
aI71
aI58
aI51
aI42
aI36
aI30
aI23
aI12
aa(lp2452
I124
aI102
aI85
aI70
aI61
aI54
aI45
aI39
aI34
aI28
aI24
aI16
aaaaI0
aI0
aI0
aI0
aI0
aI0
aI0
aI0
aI0
aI0
aI0
aI0
aI0
aI0
aI0
aI0
aI0
aI0
aI0
aI0
aI0
aI0
aI0
aI0
aI0
aI0
aI0
aI0
aI0
a.