(lp0
I0
aI0
aI0
aI0
aI0
aI0
aI0
aI0
aI0
aI0
a(lp1
(lp2
(lp3
I0
aI0
aI0
aI0
aa(lp4
(lp5
(lp6
F0.0055889352456688
aI36
aI75
aI1
aS'on'
p7
aa(lp8
F0.4305494284165
aI36
aI0
aI1
aS'off'
p9
aa(lp10
F0.074686841397124
aI48
aI87
aI1
aS'on'
p11
aa(lp12
F0.11083984112111
aI48
aI0
aI1
aS'off'
p13
aa(lp14
F0.33385937416892
aI46
aI92
aI1
aS'on'
p15
aa(lp16
F0.1187264165776
aI46
aI0
aI1
aS'off'
p17
aa(lp18
F0.1561042647968
aI48
aI104
aI1
aS'on'
p19
aa(lp20
F0.43080227294627
aI48
aI0
aI1
aS'off'
p21
aa(lp22
F0.2670073202471
aI51
aI96
aI1
aS'on'
p23
aa(lp24
F0.096351651351142
aI51
aI0
aI1
aS'off'
p25
aa(lp26
F0.155682507248
aI50
aI58
aI1
aS'on'
p27
aa(lp28
F0.11905003001175
aI50
aI0
aI1
aS'off'
p29
aa(lp30
F0.14902949710381
aI48
aI104
aI1
aS'on'
p31
aa(lp32
F0.096939916446445
aI48
aI0
aI1
aS'off'
p33
aa(lp34
F0.13360272991144
aI46
aI60
aI1
aS'on'
p35
aa(lp36
F0.14862320533416
aI46
aI0
aI1
aS'off'
p37
aa(lp38
F0.11855450417806
aI44
aI101
aI1
aS'on'
p39
aa(lp40
F0.10410830289766
aI44
aI0
aI1
aS'off'
p41
aa(lp42
F0.15585181241704
aI43
aI62
aI1
aS'on'
p43
aa(lp44
F0.13361666403125
aI43
aI0
aI1
aS'off'
p45
aa(lp46
F0.13422965448126
aI41
aI96
aI1
aS'on'
p47
aa(lp48
F0.1187585046946
aI41
aI0
aI1
aS'off'
p49
aa(lp50
F0.09700797866185
aI39
aI72
aI1
aS'on'
p51
aa(lp52
F0.11853720126055
aI39
aI0
aI1
aS'off'
p53
aa(lp54
F0.18635047075509
aI31
aI49
aI1
aS'on'
p55
aa(lp56
F0.42351261546469
aI31
aI0
aI1
aS'off'
p57
aa(lp58
F0.037239873862063
aI43
aI85
aI1
aS'on'
p59
aa(lp60
F0.14879160116948
aI43
aI0
aI1
aS'off'
p61
aa(lp62
F0.3411109248807
aI41
aI89
aI1
aS'on'
p63
aa(lp64
F0.11877586160381
aI41
aI0
aI1
aS'off'
p65
aa(lp66
F0.12615177934413
aI43
aI106
aI1
aS'on'
p67
aa(lp68
F0.47456127317787
aI43
aI0
aI1
aS'off'
p69
aa(lp70
F0.312495589229
aI46
aI104
aI1
aS'on'
p71
aa(lp72
F0.089042738725766
aI46
aI0
aI1
aS'off'
p73
aa(lp74
F0.15645812778848
aI45
aI61
aI1
aS'on'
p75
aa(lp76
F0.12576753181543
aI45
aI0
aI1
aS'off'
p77
aa(lp78
F0.13352350420246
aI43
aI106
aI1
aS'on'
p79
aa(lp80
F0.11161222500141
aI43
aI0
aI1
aS'off'
p81
aa(lp82
F0.12699369174061
aI41
aI60
aI1
aS'on'
p83
aa(lp84
F0.14868336344921
aI41
aI0
aI1
aS'off'
p85
aa(lp86
F0.111593138937
aI39
aI106
aI1
aS'on'
p87
aa(lp88
F0.11838376680839
aI39
aI0
aI1
aS'off'
p89
aa(lp90
F0.14153064453603
aI38
aI68
aI1
aS'on'
p91
aa(lp92
F0.1340801941019
aI38
aI0
aI1
aS'off'
p93
aa(lp94
F0.12655167309777
aI36
aI111
aI1
aS'on'
p95
aa(lp96
F0.13377198250964
aI36
aI0
aI1
aS'off'
p97
aa(lp98
F0.096009949278368
aI34
aI72
aI1
aS'on'
p99
aa(lp100
F0.13354831054517
aI34
aI0
aI1
aS'off'
p101
aa(lp102
F0.13535031302945
aI0
aI0
aI0
aS'timeAfterLastHit'
p103
aaaI0
aI0
aI0
aa(lp104
I0
aI0
aI0
aI0
aa(lp105
(lp106
(lp107
F0.0
aI36
aI78
aI3
aS'on'
p108
aa(lp109
F0.74852806654587
aI36
aI0
aI3
aS'off'
p110
aa(lp111
F0.25147193345413
aI38
aI99
aI3
aS'on'
p112
aa(lp113
F0.31199060490258
aI38
aI0
aI3
aS'off'
p114
aa(lp115
F0.18800939509742
aI36
aI99
aI3
aS'on'
p116
aa(lp117
F0.43137179581936
aI36
aI0
aI3
aS'off'
p118
aa(lp119
F0.31862820418064
aI36
aI106
aI3
aS'on'
p120
aa(lp121
F0.60918132029553
aI36
aI0
aI3
aS'off'
p122
aa(lp123
F0.14081867970447
aI40
aI111
aI3
aS'on'
p124
aa(lp125
F0.53502309453688
aI40
aI0
aI3
aS'off'
p126
aa(lp127
F0.46497690546312
aI36
aI92
aI3
aS'on'
p128
aa(lp129
F0.66883410167543
aI36
aI0
aI3
aS'off'
p130
aa(lp131
F0.33116589832457
aI38
aI108
aI3
aS'on'
p132
aa(lp133
F0.36366882567506
aI38
aI0
aI3
aS'off'
p134
aa(lp135
F0.13633117432494
aI36
aI106
aI3
aS'on'
p136
aa(lp137
F0.40814834365949
aI36
aI0
aI3
aS'off'
p138
aa(lp139
F0.34185165634051
aI36
aI94
aI3
aS'on'
p140
aa(lp141
F0.47604323438873
aI36
aI0
aI3
aS'off'
p142
aa(lp143
F0.27395676561127
aI38
aI118
aI3
aS'on'
p144
aa(lp145
F0.11895540672401
aI38
aI0
aI3
aS'off'
p146
aa(lp147
F0.13104459327599
aI38
aI111
aI3
aS'on'
p148
aa(lp149
F0.14115638262922
aI38
aI0
aI3
aS'off'
p150
aa(lp151
F0.10884361737078
aI38
aI113
aI3
aS'on'
p152
aa(lp153
F0.11929517077931
aI38
aI0
aI3
aS'off'
p154
aa(lp155
F0.13070482922069
aI38
aI108
aI3
aS'on'
p156
aa(lp157
F0.1419342580333
aI38
aI0
aI3
aS'off'
p158
aa(lp159
F0.1080657419667
aI0
aI0
aI0
aS'timeAfterLastHit'
p160
aaaI0
aI0
aI0
aaa(lp161
(lp162
(dp163
a(dp164
a(dp165
a(dp166
aa(lp167
(dp168
S'button'
p169
S'59'
p170
sS'playing'
p171
I1
sa(dp172
a(dp173
a(dp174
aa(lp175
(dp176
a(dp177
a(dp178
a(dp179
aa(lp180
(dp181
g169
S'19'
p182
sg171
I1
sa(dp183
a(dp184
a(dp185
aaa(lp186
I60
aI60
aI36
aI36
aa(lp187
(lp188
I0
aI2
aI3
aI5
aI7
aI8
aI10
aa(lp189
I0
aI2
aI3
aI5
aI7
aI8
aI10
aa(lp190
I0
aI2
aI3
aI5
aI7
aI8
aI10
aa(lp191
I0
aI1
aI2
aI3
aI4
aI5
aI6
aI7
aI8
aI9
aI10
aI11
aaa(lp192
(lp193
(lp194
I0
aI0
aI0
aI0
aI0
aI0
aI0
aI0
aI0
aI0
aI0
aI0
aa(lp195
I0
aI0
aI0
aI0
aI0
aI0
aI0
aI0
aI0
aI0
aI0
aI0
aa(lp196
I0
aI0
aI0
aI0
aI0
aI0
aI0
aI0
aI0
aI0
aI0
aI0
aa(lp197
I0
aI0
aI0
aI0
aI0
aI0
aI0
aI0
aI0
aI0
aI0
aI0
aaa(lp198
(lp199
I0
aI0
aI0
aI0
aI0
aI0
aI0
aI0
aI0
aI0
aI0
aI0
aa(lp200
I0
aI0
aI0
aI0
aI0
aI0
aI0
aI0
aI0
aI0
aI0
aI0
aa(lp201
I0
aI0
aI0
aI0
aI0
aI0
aI0
aI0
aI0
aI0
aI0
aI0
aa(lp202
I0
aI0
aI0
aI0
aI0
aI0
aI0
aI0
aI0
aI0
aI0
aI0
aaa(lp203
(lp204
I0
aI0
aI0
aI0
aI0
aI0
aI0
aI0
aI0
aI0
aI0
aI0
aa(lp205
I0
aI0
aI0
aI0
aI0
aI0
aI0
aI0
aI0
aI0
aI0
aI0
aa(lp206
I0
aI0
aI0
aI0
aI0
aI0
aI0
aI0
aI0
aI0
aI0
aI0
aa(lp207
I0
aI0
aI0
aI0
aI0
aI0
aI0
aI0
aI0
aI0
aI0
aI0
aaa(lp208
(lp209
I0
aI0
aI0
aI0
aI0
aI0
aI0
aI0
aI0
aI0
aI0
aI0
aa(lp210
I0
aI0
aI0
aI0
aI0
aI0
aI0
aI0
aI0
aI0
aI0
aI0
aa(lp211
I0
aI0
aI0
aI0
aI0
aI0
aI0
aI0
aI0
aI0
aI0
aI0
aa(lp212
I0
aI0
aI0
aI0
aI0
aI0
aI0
aI0
aI0
aI0
aI0
aI0
aaaa(lp213
(lp214
I0
aI0
aI0
aI0
aI0
aI0
aI0
aI0
aI0
aI0
aI0
aI0
aa(lp215
I0
aI0
aI0
aI0
aI0
aI0
aI0
aI0
aI0
aI0
aI0
aI0
aa(lp216
I0
aI0
aI0
aI0
aI0
aI0
aI0
aI0
aI0
aI0
aI0
aI0
aa(lp217
I0
aI0
aI0
aI0
aI0
aI0
aI0
aI0
aI0
aI0
aI0
aI0
aaaaI0
aI0
aI0
aI0
aI0
aI0
aI0
aI0
aI0
aI0
aI0
aI0
aI0
aI0
aI0
aI0
aI0
aI0
aI0
aI0
aI0
aI0
aI0
aI0
aI0
aI0
aI0
aI0
aI0
aI0
aI0
aI0
aI0
aI0
aI0
aI0
aI0
aI0
aI0
aI0
aI0
aI0
aI0
aI0
aI0
aI0
aI0
aI0
aI0
aI0
aI0
aI0
aI0
aI0
aI0
aI0
aI0
aI0
aI0
aI0
aI0
aI0
aI0
aI0
aI0
aI0
aI0
aI0
aI0
aI0
aI0
aI0
aI0
aI0
aI0
aI0
aI0
aI0
aI0
aI0
aI0
aI0
aI0
aI0
aI0
aI0
aI0
aI0
aI0
a.