(lp0
I0
aI0
aI0
aI0
aI0
aI0
aI0
aI0
aI0
aI0
a(lp1
(lp2
(lp3
I0
aI0
aI0
aI0
aa(lp4
(lp5
(lp6
F0.0
aI36
aI68
aI1
aS'on'
p7
aa(lp8
F0.38938285533914
aI36
aI0
aI1
aS'off'
p9
aa(lp10
F0.11061714466086
aI48
aI73
aI1
aS'on'
p11
aa(lp12
F0.10403827282698
aI48
aI0
aI1
aS'off'
p13
aa(lp14
F0.39596172717302
aI46
aI89
aI1
aS'on'
p15
aa(lp16
F0.096792901324079
aI46
aI0
aI1
aS'off'
p17
aa(lp18
F0.15320709867592
aI48
aI96
aI1
aS'on'
p19
aa(lp20
F0.43047264370034
aI48
aI0
aI1
aS'off'
p21
aa(lp22
F0.31952735629966
aI51
aI101
aI1
aS'on'
p23
aa(lp24
F0.088411311533491
aI51
aI0
aI1
aS'off'
p25
aa(lp26
F0.16158868846651
aI50
aI34
aI1
aS'on'
p27
aa(lp28
F0.089384349865213
aI50
aI0
aI1
aS'off'
p29
aa(lp30
F0.16061565013479
aI48
aI101
aI1
aS'on'
p31
aa(lp32
F0.067107434641002
aI48
aI0
aI1
aS'off'
p33
aa(lp34
F0.182892565359
aI46
aI67
aI1
aS'on'
p35
aa(lp36
F0.10353138742448
aI46
aI0
aI1
aS'off'
p37
aa(lp38
F0.14646861257552
aI45
aI96
aI1
aS'on'
p39
aa(lp40
F0.07439333543789
aI45
aI0
aI1
aS'off'
p41
aa(lp42
F0.17560666456211
aI43
aI60
aI1
aS'on'
p43
aa(lp44
F0.096575607482009
aI43
aI0
aI1
aS'off'
p45
aa(lp46
F0.15342439251799
aI41
aI106
aI1
aS'on'
p47
aa(lp48
F0.11173222580692
aI41
aI0
aI1
aS'off'
p49
aa(lp50
F0.13826777419308
aI39
aI56
aI1
aS'on'
p51
aa(lp52
F0.089212410471191
aI39
aI0
aI1
aS'off'
p53
aa(lp54
F0.16078758952881
aI31
aI70
aI1
aS'on'
p55
aa(lp56
F0.40829532468342
aI31
aI0
aI1
aS'off'
p57
aa(lp58
F0.091704675316578
aI43
aI111
aI1
aS'on'
p59
aa(lp60
F0.10449205739769
aI43
aI0
aI1
aS'off'
p61
aa(lp62
F0.39550794260231
aI41
aI70
aI1
aS'on'
p63
aa(lp64
F0.11086367561347
aI41
aI0
aI1
aS'off'
p65
aa(lp66
F0.13913632438653
aI43
aI113
aI1
aS'on'
p67
aa(lp68
F0.44596244051354
aI43
aI0
aI1
aS'off'
p69
aa(lp70
F0.30403755948646
aI46
aI111
aI1
aS'on'
p71
aa(lp72
F0.089318333652045
aI46
aI0
aI1
aS'off'
p73
aa(lp74
F0.16068166634795
aI45
aI66
aI1
aS'on'
p75
aa(lp76
F0.10409030661413
aI45
aI0
aI1
aS'off'
p77
aa(lp78
F0.14590969338587
aI43
aI113
aI1
aS'on'
p79
aa(lp80
F0.096725209944452
aI43
aI0
aI1
aS'off'
p81
aa(lp82
F0.15327479005555
aI41
aI57
aI1
aS'on'
p83
aa(lp84
F0.11134329236666
aI41
aI0
aI1
aS'off'
p85
aa(lp86
F0.13865670763334
aI39
aI111
aI1
aS'on'
p87
aa(lp88
F0.089028959477218
aI39
aI0
aI1
aS'off'
p89
aa(lp90
F0.16097104052278
aI38
aI72
aI1
aS'on'
p91
aa(lp92
F0.12687349912267
aI38
aI0
aI1
aS'off'
p93
aa(lp94
F0.12312650087733
aI36
aI106
aI1
aS'on'
p95
aa(lp96
F0.10374908620361
aI36
aI0
aI1
aS'off'
p97
aa(lp98
F0.14625091379639
aI34
aI80
aI1
aS'on'
p99
aa(lp100
F0.11927437971372
aI34
aI0
aI1
aS'off'
p101
aa(lp102
F0.13072562028628
aI0
aI0
aI0
aS'timeAfterLastHit'
p103
aaa(lp104
(lp105
F0.0
aI36
aI80
aI1
aS'on'
p106
aa(lp107
F0.39718249419093
aI36
aI0
aI1
aS'off'
p108
aa(lp109
F0.089122684797985
aI48
aI96
aI1
aS'on'
p110
aa(lp111
F0.10391098740547
aI48
aI0
aI1
aS'off'
p112
aa(lp113
F0.34955784035992
aI46
aI85
aI1
aS'on'
p114
aa(lp115
F0.1116042441754
aI46
aI0
aI1
aS'off'
p116
aa(lp117
F0.13312122060597
aI48
aI106
aI1
aS'on'
p118
aa(lp119
F0.43057920199499
aI48
aI0
aI1
aS'off'
p120
aa(lp121
F0.31969792224845
aI51
aI106
aI1
aS'on'
p122
aa(lp123
F0.10393402196587
aI51
aI0
aI1
aS'off'
p124
aa(lp125
F0.1406512249614
aI50
aI57
aI1
aS'on'
p126
aa(lp127
F0.096715414715618
aI50
aI0
aI1
aS'off'
p128
aa(lp129
F0.1778514916532
aI48
aI94
aI1
aS'on'
p130
aa(lp131
F0.066916507218593
aI48
aI0
aI1
aS'off'
p132
aa(lp133
F0.17882964925138
aI46
aI66
aI1
aS'on'
p134
aa(lp135
F0.10404397037109
aI46
aI0
aI1
aS'off'
p136
aa(lp137
F0.14925343050163
aI45
aI104
aI1
aS'on'
p138
aa(lp139
F0.081886506089177
aI45
aI0
aI1
aS'off'
p140
aa(lp141
F0.12622449052833
aI43
aI68
aI1
aS'on'
p142
aa(lp143
F0.13372831743618
aI43
aI0
aI1
aS'off'
p144
aa(lp145
F0.15613246267094
aI41
aI104
aI1
aS'on'
p146
aa(lp147
F0.12598751671521
aI41
aI0
aI1
aS'off'
p148
aa(lp149
F0.044544471414156
aI39
aI78
aI1
aS'on'
p150
aa(lp151
F0.11897076025707
aI39
aI0
aI1
aS'off'
p152
aa(lp153
F0.23039769428578
aI31
aI96
aI1
aS'on'
p154
aa(lp155
F0.46672963427045
aI31
aI0
aI1
aS'off'
p156
aa(lp157
F0.022222640784094
aI43
aI106
aI1
aS'on'
p158
aa(lp159
F0.13380503679309
aI43
aI0
aI1
aS'off'
p160
aa(lp161
F0.37217254894222
aI41
aI85
aI1
aS'on'
p162
aa(lp163
F0.11194357487784
aI41
aI0
aI1
aS'off'
p164
aa(lp165
F0.16308653334818
aI43
aI111
aI1
aS'on'
p166
aa(lp167
F0.38571119387052
aI43
aI0
aI1
aS'off'
p168
aa(lp169
F0.38596619664895
aI46
aI106
aI1
aS'on'
p170
aa(lp171
F0.089813210162902
aI46
aI0
aI1
aS'off'
p172
aa(lp173
F0.1562341517656
aI45
aI43
aI1
aS'on'
p174
aa(lp175
F0.096368120239276
aI45
aI0
aI1
aS'off'
p176
aa(lp177
F0.17835759275385
aI43
aI89
aI1
aS'on'
p178
aa(lp179
F0.051917509124905
aI43
aI0
aI1
aS'off'
p180
aa(lp181
F0.15550453783271
aI41
aI63
aI1
aS'on'
p182
aa(lp183
F0.11895248690962
aI41
aI0
aI1
aS'off'
p184
aa(lp185
F0.14895420994799
aI39
aI106
aI1
aS'on'
p186
aa(lp187
F0.096358734208479
aI39
aI0
aI1
aS'off'
p188
aa(lp189
F0.14823343644457
aI38
aI70
aI1
aS'on'
p190
aa(lp191
F0.14119500089964
aI38
aI0
aI1
aS'off'
p192
aa(lp193
F0.097059194047688
aI36
aI101
aI1
aS'on'
p194
aa(lp195
F0.10439860487531
aI36
aI0
aI1
aS'off'
p196
aa(lp197
F0.10396850845245
aI34
aI71
aI1
aS'on'
p198
aa(lp199
F0.118763989115
aI34
aI0
aI1
aS'off'
p200
aa(lp201
F0.1814388278699
aI0
aI0
aI0
aS'timeAfterLastHit'
p202
aaa(lp203
(lp204
F0.0
aI36
aI64
aI1
aS'on'
p205
aa(lp206
F0.42199926171907
aI36
aI0
aI1
aS'off'
p207
aa(lp208
F0.078000738280934
aI48
aI99
aI1
aS'on'
p209
aa(lp210
F0.11131335113168
aI48
aI0
aI1
aS'off'
p211
aa(lp212
F0.38868664886832
aI46
aI82
aI1
aS'on'
p213
aa(lp214
F0.12626675465981
aI46
aI0
aI1
aS'off'
p215
aa(lp216
F0.20706657867352
aI48
aI111
aI1
aS'on'
p217
aa(lp218
F0.40955256677444
aI48
aI0
aI1
aS'off'
p219
aa(lp220
F0.25711409989223
aI51
aI108
aI1
aS'on'
p221
aa(lp222
F0.096588798507582
aI51
aI0
aI1
aS'off'
p223
aa(lp224
F0.15341120149242
aI50
aI47
aI1
aS'on'
p225
aa(lp226
F0.10398371990141
aI50
aI0
aI1
aS'off'
p227
aa(lp228
F0.14601628009859
aI48
aI101
aI1
aS'on'
p229
aa(lp230
F0.081727497705288
aI48
aI0
aI1
aS'off'
p231
aa(lp232
F0.16827250229471
aI46
aI49
aI1
aS'on'
p233
aa(lp234
F0.11869441655108
aI46
aI0
aI1
aS'off'
p235
aa(lp236
F0.13130558344892
aI45
aI99
aI1
aS'on'
p237
aa(lp238
F0.095965512692601
aI45
aI0
aI1
aS'off'
p239
aa(lp240
F0.1540344873074
aI43
aI32
aI1
aS'on'
p241
aa(lp242
F0.11896441054887
aI43
aI0
aI1
aS'off'
p243
aa(lp244
F0.13103558945113
aI41
aI111
aI1
aS'on'
p245
aa(lp246
F0.13482802312774
aI41
aI0
aI1
aS'off'
p247
aa(lp248
F0.031838643538928
aI39
aI59
aI1
aS'on'
p249
aa(lp250
F0.088596866779881
aI39
aI0
aI1
aS'off'
p251
aa(lp252
F0.24473646655345
aI31
aI101
aI1
aS'on'
p253
aa(lp254
F0.4460435388828
aI31
aI0
aI1
aS'off'
p255
aa(lp256
F0.053956461117195
aI43
aI113
aI1
aS'on'
p257
aa(lp258
F0.10389961931105
aI43
aI0
aI1
aS'off'
p259
aa(lp260
F0.39610038068895
aI41
aI78
aI1
aS'on'
p261
aa(lp262
F0.12652617765252
aI41
aI0
aI1
aS'off'
p263
aa(lp264
F0.20680715568081
aI43
aI118
aI1
aS'on'
p265
aa(lp266
F0.37110780571493
aI43
aI0
aI1
aS'off'
p267
aa(lp268
F0.29555886095174
aI46
aI111
aI1
aS'on'
p269
aa(lp270
F0.088795971103536
aI46
aI0
aI1
aS'off'
p271
aa(lp272
F0.16120402889646
aI45
aI39
aI1
aS'on'
p273
aa(lp274
F0.11169400252766
aI45
aI0
aI1
aS'off'
p275
aa(lp276
F0.13830599747234
aI43
aI111
aI1
aS'on'
p277
aa(lp278
F0.088824173240027
aI43
aI0
aI1
aS'off'
p279
aa(lp280
F0.16117582675997
aI41
aI59
aI1
aS'on'
p281
aa(lp282
F0.14059130412534
aI41
aI0
aI1
aS'off'
p283
aa(lp284
F0.10940869587466
aI39
aI113
aI1
aS'on'
p285
aa(lp286
F0.096059668525413
aI39
aI0
aI1
aS'off'
p287
aa(lp288
F0.15394033147459
aI38
aI72
aI1
aS'on'
p289
aa(lp290
F0.12653570008206
aI38
aI0
aI1
aS'off'
p291
aa(lp292
F0.12346429991794
aI36
aI108
aI1
aS'on'
p293
aa(lp294
F0.11136117498427
aI36
aI0
aI1
aS'off'
p295
aa(lp296
F0.13863882501573
aI34
aI89
aI1
aS'on'
p297
aa(lp298
F0.12620982752014
aI34
aI0
aI1
aS'off'
p299
aa(lp300
F0.12379017247986
aI0
aI0
aI0
aS'timeAfterLastHit'
p301
aaaI0
aa(lp302
(lp303
(lp304
F0.0
aI36
aI85
aI2
aS'on'
p305
aa(lp306
F0.53878120621266
aI36
aI0
aI2
aS'off'
p307
aa(lp308
F0.46121879378734
aI36
aI73
aI2
aS'on'
p309
aa(lp310
F0.66853917345998
aI36
aI0
aI2
aS'off'
p311
aa(lp312
F0.33146082654002
aI36
aI72
aI2
aS'on'
p313
aa(lp314
F0.54307235407487
aI36
aI0
aI2
aS'off'
p315
aa(lp316
F0.20692764592513
aI36
aI38
aI2
aS'on'
p317
aa(lp318
F0.12681654214703
aI36
aI0
aI2
aS'off'
p319
aa(lp320
F0.12318345785297
aI39
aI73
aI2
aS'on'
p321
aa(lp322
F0.11843683496136
aI39
aI0
aI2
aS'off'
p323
aa(lp324
F0.13156316503864
aI36
aI46
aI2
aS'on'
p325
aa(lp326
F0.13385448466215
aI36
aI0
aI2
aS'off'
p327
aa(lp328
F0.11614551533785
aI34
aI96
aI2
aS'on'
p329
aa(lp330
F0.5
aI31
aI66
aI2
aS'on'
p331
aa(lp332
F0.049734665000869
aI34
aI0
aI2
aS'off'
p333
aa(lp334
F0.45389595289089
aI31
aI0
aI2
aS'off'
p335
aa(lp336
F0.49636938210824
aI31
aI80
aI2
aS'on'
p337
aa(lp338
F0.63934880920351
aI31
aI0
aI2
aS'off'
p339
aa(lp340
F0.36065119079649
aI31
aI85
aI2
aS'on'
p341
aa(lp342
F0.52075540685109
aI31
aI0
aI2
aS'off'
p343
aa(lp344
F0.22924459314891
aI31
aI58
aI2
aS'on'
p345
aa(lp346
F0.12623056459415
aI31
aI0
aI2
aS'off'
p347
aa(lp348
F0.12376943540585
aI34
aI72
aI2
aS'on'
p349
aa(lp350
F0.11868081490593
aI34
aI0
aI2
aS'off'
p351
aa(lp352
F0.13131918509407
aI31
aI94
aI2
aS'on'
p353
aa(lp354
F0.15640518040618
aI31
aI0
aI2
aS'off'
p355
aa(lp356
F0.093594819593818
aI39
aI104
aI2
aS'on'
p357
aa(lp358
F0.5
aI36
aI94
aI2
aS'on'
p359
aa(lp360
F0.058699687628177
aI39
aI0
aI2
aS'off'
p361
aa(lp362
F0.43096196157694
aI36
aI0
aI2
aS'off'
p363
aa(lp364
F0.51033835079488
aI36
aI101
aI2
aS'on'
p365
aa(lp366
F0.57294566781093
aI36
aI0
aI2
aS'off'
p367
aa(lp368
F0.42705433218907
aI36
aI85
aI2
aS'on'
p369
aa(lp370
F0.51962284721321
aI36
aI0
aI2
aS'off'
p371
aa(lp372
F0.23037715278679
aI36
aI80
aI2
aS'on'
p373
aa(lp374
F0.1192970150214
aI36
aI0
aI2
aS'off'
p375
aa(lp376
F0.1307029849786
aI39
aI78
aI2
aS'on'
p377
aa(lp378
F0.11073310806478
aI39
aI0
aI2
aS'off'
p379
aa(lp380
F0.13926689193522
aI36
aI67
aI2
aS'on'
p381
aa(lp382
F0.14143787117519
aI36
aI0
aI2
aS'off'
p383
aa(lp384
F0.10856212882481
aI34
aI89
aI2
aS'on'
p385
aa(lp386
F0.5
aI31
aI68
aI2
aS'on'
p387
aa(lp388
F0.064561513416265
aI34
aI0
aI2
aS'off'
p389
aa(lp390
F0.47862786765927
aI31
aI0
aI2
aS'off'
p391
aa(lp392
F0.45681061892446
aI31
aI89
aI2
aS'on'
p393
aa(lp394
F0.50573291100227
aI31
aI0
aI2
aS'off'
p395
aa(lp396
F0.49426708899773
aI26
aI73
aI2
aS'on'
p397
aa(lp398
F0.24650080407719
aI26
aI0
aI2
aS'off'
p399
aa(lp400
F0.0034991959228137
aI29
aI53
aI2
aS'on'
p401
aa(lp402
F0.25
aI31
aI101
aI2
aS'on'
p403
aa(lp404
F0.10025711380149
aI29
aI0
aI2
aS'off'
p405
aa(lp406
F0.14974288619851
aI34
aI99
aI2
aS'on'
p407
aa(lp408
F0.11442266624999
aI31
aI0
aI2
aS'off'
p409
aa(lp410
F0.38557733375001
aI31
aI73
aI2
aS'on'
p411
aa(lp412
F0.057677066448377
aI34
aI0
aI2
aS'off'
p413
aa(lp414
F0.19232293355162
aI34
aI63
aI2
aS'on'
p415
aa(lp416
F0.061363420320049
aI31
aI0
aI2
aS'off'
p417
aa(lp418
F0.10530324634662
aI36
aI45
aI2
aS'on'
p419
aa(lp420
F0.15911469312353
aI34
aI0
aI2
aS'off'
p421
aa(lp422
F0.15246152435035
aI36
aI0
aI2
aS'off'
p423
aa(lp424
F0.021757115859449
aI0
aI0
aI0
aS'timeAfterLastHit'
p425
aaaI0
aI0
aI0
aa(lp426
(lp427
(lp428
F0.0
aI36
aI78
aI3
aS'on'
p429
aa(lp430
F0.74852806654587
aI36
aI0
aI3
aS'off'
p431
aa(lp432
F0.25147193345413
aI38
aI99
aI3
aS'on'
p433
aa(lp434
F0.31199060490258
aI38
aI0
aI3
aS'off'
p435
aa(lp436
F0.18800939509742
aI36
aI99
aI3
aS'on'
p437
aa(lp438
F0.43137179581936
aI36
aI0
aI3
aS'off'
p439
aa(lp440
F0.31862820418064
aI36
aI106
aI3
aS'on'
p441
aa(lp442
F0.60918132029553
aI36
aI0
aI3
aS'off'
p443
aa(lp444
F0.14081867970447
aI40
aI111
aI3
aS'on'
p445
aa(lp446
F0.53502309453688
aI40
aI0
aI3
aS'off'
p447
aa(lp448
F0.46497690546312
aI36
aI92
aI3
aS'on'
p449
aa(lp450
F0.66883410167543
aI36
aI0
aI3
aS'off'
p451
aa(lp452
F0.33116589832457
aI38
aI108
aI3
aS'on'
p453
aa(lp454
F0.36366882567506
aI38
aI0
aI3
aS'off'
p455
aa(lp456
F0.13633117432494
aI36
aI106
aI3
aS'on'
p457
aa(lp458
F0.40814834365949
aI36
aI0
aI3
aS'off'
p459
aa(lp460
F0.34185165634051
aI36
aI94
aI3
aS'on'
p461
aa(lp462
F0.47604323438873
aI36
aI0
aI3
aS'off'
p463
aa(lp464
F0.27395676561127
aI38
aI118
aI3
aS'on'
p465
aa(lp466
F0.11895540672401
aI38
aI0
aI3
aS'off'
p467
aa(lp468
F0.13104459327599
aI38
aI111
aI3
aS'on'
p469
aa(lp470
F0.14115638262922
aI38
aI0
aI3
aS'off'
p471
aa(lp472
F0.10884361737078
aI38
aI113
aI3
aS'on'
p473
aa(lp474
F0.11929517077931
aI38
aI0
aI3
aS'off'
p475
aa(lp476
F0.13070482922069
aI38
aI108
aI3
aS'on'
p477
aa(lp478
F0.1419342580333
aI38
aI0
aI3
aS'off'
p479
aa(lp480
F0.1080657419667
aI0
aI0
aI0
aS'timeAfterLastHit'
p481
aaa(lp482
(lp483
F1.5133146867443
aI37
aI101
aI3
aS'on'
p484
aa(lp485
F0.35557484822493
aI37
aI0
aI3
aS'off'
p486
aa(lp487
F2.3973945874441
aI37
aI111
aI3
aS'on'
p488
aa(lp489
F0.28148913899668
aI37
aI0
aI3
aS'off'
p490
aa(lp491
F4.9740521401732
aI37
aI111
aI3
aS'on'
p492
aa(lp493
F0.45247705999736
aI37
aI0
aI3
aS'off'
p494
aa(lp495
F3.4961566731236
aI37
aI108
aI3
aS'on'
p496
aa(lp497
F0.39328548846652
aI37
aI0
aI3
aS'off'
p498
aa(lp499
F3.3784337774523
aI37
aI106
aI3
aS'on'
p500
aa(lp501
F0.35648410531576
aI37
aI0
aI3
aS'off'
p502
aa(lp503
F2.8734196578903
aI37
aI106
aI3
aS'on'
p504
aa(lp505
F0.31881119958598
aI37
aI0
aI3
aS'off'
p506
aa(lp507
F0.20910663658515
aI0
aI0
aI0
aS'timeAfterLastHit'
p508
aaa(lp509
(lp510
F0.24707084389775
aI37
aI115
aI3
aS'on'
p511
aa(lp512
F0.37113271435828
aI37
aI0
aI3
aS'off'
p513
aa(lp514
F3.6157444050077
aI37
aI113
aI3
aS'on'
p515
aa(lp516
F0.3782309641756
aI37
aI0
aI3
aS'off'
p517
aa(lp518
F4.6381900776259
aI37
aI118
aI3
aS'on'
p519
aa(lp520
F0.43028078847328
aI37
aI0
aI3
aS'off'
p521
aa(lp522
F1.590010969956
aI37
aI108
aI3
aS'on'
p523
aa(lp524
F0.4238138209239
aI37
aI0
aI3
aS'off'
p525
aa(lp526
F2.0198520912672
aI37
aI115
aI3
aS'on'
p527
aa(lp528
F0.37155907398846
aI37
aI0
aI3
aS'off'
p529
aa(lp530
F3.1772285090547
aI37
aI106
aI3
aS'on'
p531
aa(lp532
F0.33524474281603
aI37
aI0
aI3
aS'off'
p533
aa(lp534
F3.6966215434577
aI37
aI113
aI3
aS'on'
p535
aa(lp536
F0.32713057105138
aI37
aI0
aI3
aS'off'
p537
aa(lp538
F2.844100235011
aI37
aI111
aI3
aS'on'
p539
aa(lp540
F0.3566741518207
aI37
aI0
aI3
aS'off'
p541
aa(lp542
F8.6870745093147
aI37
aI106
aI3
aS'on'
p543
aa(lp544
F0.41608130082477
aI37
aI0
aI3
aS'off'
p545
aa(lp546
F6.4933568306205
aI37
aI108
aI3
aS'on'
p547
aa(lp548
F0.39300267712497
aI37
aI0
aI3
aS'off'
p549
aa(lp550
F2.477052701398
aI37
aI118
aI3
aS'on'
p551
aa(lp552
F0.42289615675872
aI37
aI0
aI3
aS'off'
p553
aa(lp554
F0.28765032107276
aI0
aI0
aI0
aS'timeAfterLastHit'
p555
aaaI0
aaa(lp556
(lp557
(dp558
a(dp559
a(dp560
a(dp561
aa(lp562
(dp563
S'button'
p564
S'59'
p565
sS'playing'
p566
I1
sa(dp567
g564
S'69'
p568
sg566
I0
sa(dp569
g564
S'79'
p570
sg566
I0
sa(dp571
aa(lp572
(dp573
g564
S'10'
p574
sg566
I01
sa(dp575
a(dp576
a(dp577
aa(lp578
(dp579
g564
S'19'
p580
sg566
I1
sa(dp581
g564
S'29'
p582
sg566
I0
sa(dp583
g564
S'39'
p584
sg566
I0
sa(dp585
aaa(lp586
I60
aI60
aI36
aI36
aa(lp587
(lp588
I0
aI2
aI3
aI5
aI7
aI8
aI10
aa(lp589
I0
aI2
aI3
aI5
aI7
aI8
aI10
aa(lp590
I0
aI2
aI3
aI5
aI7
aI8
aI10
aa(lp591
I0
aI1
aI2
aI3
aI4
aI5
aI6
aI7
aI8
aI9
aI10
aI11
aaa(lp592
(lp593
(lp594
I0
aI0
aI0
aI0
aI0
aI0
aI0
aI0
aI0
aI0
aI0
aI0
aa(lp595
I0
aI0
aI0
aI0
aI0
aI0
aI0
aI0
aI0
aI0
aI0
aI0
aa(lp596
I0
aI0
aI0
aI0
aI0
aI0
aI0
aI0
aI0
aI0
aI0
aI0
aa(lp597
I0
aI0
aI0
aI0
aI0
aI0
aI0
aI0
aI0
aI0
aI0
aI0
aaa(lp598
(lp599
I0
aI0
aI0
aI0
aI0
aI0
aI0
aI0
aI0
aI0
aI0
aI0
aa(lp600
I0
aI0
aI0
aI0
aI0
aI0
aI0
aI0
aI0
aI0
aI0
aI0
aa(lp601
I0
aI0
aI0
aI0
aI0
aI0
aI0
aI0
aI0
aI0
aI0
aI0
aa(lp602
I0
aI0
aI0
aI0
aI0
aI0
aI0
aI0
aI0
aI0
aI0
aI0
aaa(lp603
(lp604
I0
aI0
aI0
aI0
aI0
aI0
aI0
aI0
aI0
aI0
aI0
aI0
aa(lp605
I0
aI0
aI0
aI0
aI0
aI0
aI0
aI0
aI0
aI0
aI0
aI0
aa(lp606
I0
aI0
aI0
aI0
aI0
aI0
aI0
aI0
aI0
aI0
aI0
aI0
aa(lp607
I0
aI0
aI0
aI0
aI0
aI0
aI0
aI0
aI0
aI0
aI0
aI0
aaa(lp608
(lp609
I0
aI0
aI0
aI0
aI0
aI0
aI0
aI0
aI0
aI0
aI0
aI0
aa(lp610
I0
aI0
aI0
aI0
aI0
aI0
aI0
aI0
aI0
aI0
aI0
aI0
aa(lp611
I0
aI0
aI0
aI0
aI0
aI0
aI0
aI0
aI0
aI0
aI0
aI0
aa(lp612
I0
aI0
aI0
aI0
aI0
aI0
aI0
aI0
aI0
aI0
aI0
aI0
aaaa(lp613
(lp614
I0
aI0
aI0
aI0
aI0
aI0
aI0
aI0
aI0
aI0
aI0
aI0
aa(lp615
I0
aI0
aI0
aI0
aI0
aI0
aI0
aI0
aI0
aI0
aI0
aI0
aa(lp616
I0
aI0
aI0
aI0
aI0
aI0
aI0
aI0
aI0
aI0
aI0
aI0
aa(lp617
I0
aI0
aI0
aI0
aI0
aI0
aI0
aI0
aI0
aI0
aI0
aI0
aaaa(lp618
(lp619
(lp620
I0
aI0
aI0
aI0
aa(lp621
(lp622
(lp623
F0.0055889352456688
aI36
aI75
aI1
aS'on'
p624
aa(lp625
F0.4305494284165
aI36
aI0
aI1
aS'off'
p626
aa(lp627
F0.074686841397124
aI48
aI87
aI1
aS'on'
p628
aa(lp629
F0.11083984112111
aI48
aI0
aI1
aS'off'
p630
aa(lp631
F0.33385937416892
aI46
aI92
aI1
aS'on'
p632
aa(lp633
F0.1187264165776
aI46
aI0
aI1
aS'off'
p634
aa(lp635
F0.1561042647968
aI48
aI104
aI1
aS'on'
p636
aa(lp637
F0.43080227294627
aI48
aI0
aI1
aS'off'
p638
aa(lp639
F0.2670073202471
aI51
aI96
aI1
aS'on'
p640
aa(lp641
F0.096351651351142
aI51
aI0
aI1
aS'off'
p642
aa(lp643
F0.155682507248
aI50
aI58
aI1
aS'on'
p644
aa(lp645
F0.11905003001175
aI50
aI0
aI1
aS'off'
p646
aa(lp647
F0.14902949710381
aI48
aI104
aI1
aS'on'
p648
aa(lp649
F0.096939916446445
aI48
aI0
aI1
aS'off'
p650
aa(lp651
F0.13360272991144
aI46
aI60
aI1
aS'on'
p652
aa(lp653
F0.14862320533416
aI46
aI0
aI1
aS'off'
p654
aa(lp655
F0.11855450417806
aI44
aI101
aI1
aS'on'
p656
aa(lp657
F0.10410830289766
aI44
aI0
aI1
aS'off'
p658
aa(lp659
F0.15585181241704
aI43
aI62
aI1
aS'on'
p660
aa(lp661
F0.13361666403125
aI43
aI0
aI1
aS'off'
p662
aa(lp663
F0.13422965448126
aI41
aI96
aI1
aS'on'
p664
aa(lp665
F0.1187585046946
aI41
aI0
aI1
aS'off'
p666
aa(lp667
F0.09700797866185
aI39
aI72
aI1
aS'on'
p668
aa(lp669
F0.11853720126055
aI39
aI0
aI1
aS'off'
p670
aa(lp671
F0.18635047075509
aI31
aI49
aI1
aS'on'
p672
aa(lp673
F0.42351261546469
aI31
aI0
aI1
aS'off'
p674
aa(lp675
F0.037239873862063
aI43
aI85
aI1
aS'on'
p676
aa(lp677
F0.14879160116948
aI43
aI0
aI1
aS'off'
p678
aa(lp679
F0.3411109248807
aI41
aI89
aI1
aS'on'
p680
aa(lp681
F0.11877586160381
aI41
aI0
aI1
aS'off'
p682
aa(lp683
F0.12615177934413
aI43
aI106
aI1
aS'on'
p684
aa(lp685
F0.47456127317787
aI43
aI0
aI1
aS'off'
p686
aa(lp687
F0.312495589229
aI46
aI104
aI1
aS'on'
p688
aa(lp689
F0.089042738725766
aI46
aI0
aI1
aS'off'
p690
aa(lp691
F0.15645812778848
aI45
aI61
aI1
aS'on'
p692
aa(lp693
F0.12576753181543
aI45
aI0
aI1
aS'off'
p694
aa(lp695
F0.13352350420246
aI43
aI106
aI1
aS'on'
p696
aa(lp697
F0.11161222500141
aI43
aI0
aI1
aS'off'
p698
aa(lp699
F0.12699369174061
aI41
aI60
aI1
aS'on'
p700
aa(lp701
F0.14868336344921
aI41
aI0
aI1
aS'off'
p702
aa(lp703
F0.111593138937
aI39
aI106
aI1
aS'on'
p704
aa(lp705
F0.11838376680839
aI39
aI0
aI1
aS'off'
p706
aa(lp707
F0.14153064453603
aI38
aI68
aI1
aS'on'
p708
aa(lp709
F0.1340801941019
aI38
aI0
aI1
aS'off'
p710
aa(lp711
F0.12655167309777
aI36
aI111
aI1
aS'on'
p712
aa(lp713
F0.13377198250964
aI36
aI0
aI1
aS'off'
p714
aa(lp715
F0.096009949278368
aI34
aI72
aI1
aS'on'
p716
aa(lp717
F0.13354831054517
aI34
aI0
aI1
aS'off'
p718
aa(lp719
F0.13535031302945
aI0
aI0
aI0
aS'timeAfterLastHit'
p720
aaaI0
aI0
aI0
aa(lp721
(lp722
(lp723
F0.0
aI36
aI96
aI2
aS'on'
p724
aa(lp725
F0.54912335911968
aI36
aI0
aI2
aS'off'
p726
aa(lp727
F0.43101273115371
aI36
aI85
aI2
aS'on'
p728
aa(lp729
F0.5660612506822
aI36
aI0
aI2
aS'off'
p730
aa(lp731
F0.43039949347894
aI36
aI69
aI2
aS'on'
p732
aa(lp733
F0.47449117490714
aI36
aI0
aI2
aS'off'
p734
aa(lp735
F0.23727510670233
aI36
aI85
aI2
aS'on'
p736
aa(lp737
F0.12633309766579
aI36
aI0
aI2
aS'off'
p738
aa(lp739
F0.12624746115307
aI39
aI71
aI2
aS'on'
p740
aa(lp741
F0.081901028434913
aI39
aI0
aI2
aS'off'
p742
aa(lp743
F0.11216106621305
aI36
aI73
aI2
aS'on'
p744
aa(lp745
F0.17080115236058
aI36
aI0
aI2
aS'off'
p746
aa(lp747
F0.15565555828789
aI34
aI94
aI2
aS'on'
p748
aa(lp749
F0.49794341545476
aI31
aI85
aI2
aS'on'
p750
aa(lp751
F0.014508658305658
aI34
aI0
aI2
aS'off'
p752
aa(lp753
F0.47608233432175
aI31
aI0
aI2
aS'off'
p754
aa(lp755
F0.46038894477215
aI31
aI73
aI2
aS'on'
p756
aa(lp757
F0.56344123972985
aI31
aI0
aI2
aS'off'
p758
aa(lp759
F0.4678081979514
aI31
aI73
aI2
aS'on'
p760
aa(lp761
F0.38626002513729
aI31
aI0
aI2
aS'off'
p762
aa(lp763
F0.39303108528111
aI31
aI72
aI2
aS'on'
p764
aa(lp765
F0.14833351715561
aI31
aI0
aI2
aS'off'
p766
aa(lp767
F0.1265720137585
aI34
aI73
aI2
aS'on'
p768
aa(lp769
F0.11923380637563
aI34
aI0
aI2
aS'off'
p770
aa(lp771
F0.11092727498817
aI31
aI70
aI2
aS'on'
p772
aa(lp773
F0.14121206227537
aI31
aI0
aI2
aS'off'
p774
aa(lp775
F0.11926901180323
aI39
aI68
aI2
aS'on'
p776
aa(lp777
F0.51246700246384
aI36
aI106
aI2
aS'on'
p778
aa(lp779
F0.00024388901283601
aI39
aI0
aI2
aS'off'
p780
aa(lp781
F0.48293460081777
aI36
aI0
aI2
aS'off'
p782
aa(lp783
F0.50427773251431
aI36
aI68
aI2
aS'on'
p784
aa(lp785
F0.49875203486681
aI36
aI0
aI2
aS'off'
p786
aa(lp787
F0.48294524002404
aI36
aI72
aI2
aS'on'
p788
aa(lp789
F0.49812803863642
aI36
aI0
aI2
aS'off'
p790
aa(lp791
F0.20004584931212
aI36
aI65
aI2
aS'on'
p792
aa(lp793
F0.14876155479078
aI36
aI0
aI2
aS'off'
p794
aa(lp795
F0.12583324112938
aI39
aI70
aI2
aS'on'
p796
aa(lp797
F0.11142615967356
aI39
aI0
aI2
aS'off'
p798
aa(lp799
F0.074591288883767
aI36
aI51
aI2
aS'on'
p800
aa(lp801
F0.14811395424385
aI36
aI0
aI2
aS'off'
p802
aa(lp803
F0.17835908036704
aI34
aI51
aI2
aS'on'
p804
aa(lp805
F0.52715787137504
aI31
aI72
aI2
aS'on'
p806
aa(lp807
F0.03004037540768
aI34
aI0
aI2
aS'off'
p808
aa(lp809
F0.45360724826332
aI31
aI0
aI2
aS'off'
p810
aa(lp811
F0.48247796747592
aI31
aI89
aI2
aS'on'
p812
aa(lp813
F0.53484146931578
aI31
aI0
aI2
aS'off'
p814
aa(lp815
F0.47469934699257
aI31
aI82
aI2
aS'on'
p816
aa(lp817
F0.45348507784456
aI31
aI0
aI2
aS'off'
p818
aa(lp819
F0.31152963233308
aI31
aI80
aI2
aS'on'
p820
aa(lp821
F0.14863572572449
aI31
aI0
aI2
aS'off'
p822
aa(lp823
F0.13383919506532
aI34
aI62
aI2
aS'on'
p824
aa(lp825
F0.10357755174573
aI34
aI0
aI2
aS'off'
p826
aa(lp827
F0.097248326955651
aI31
aI75
aI2
aS'on'
p828
aa(lp829
F0.11853429849634
aI31
aI0
aI2
aS'off'
p830
aa(lp831
F0.11926734658573
aI34
aI62
aI2
aS'on'
p832
aa(lp833
F0.26791528437843
aI36
aI28
aI2
aS'on'
p834
aa(lp835
F0.066561406680648
aI34
aI0
aI2
aS'off'
p836
aa(lp837
F0.20846796697424
aI36
aI0
aI2
aS'off'
p838
aa(lp839
F0.014760174179173
aI0
aI0
aI0
aS'timeAfterLastHit'
p840
aaaI0
aI0
aI0
aa(lp841
(lp842
(lp843
F0.0
aI36
aI78
aI3
ag429
aa(lp844
F0.74852806654587
aI36
aI0
aI3
ag431
aa(lp845
F0.25147193345413
aI38
aI99
aI3
ag433
aa(lp846
F0.31199060490258
aI38
aI0
aI3
ag435
aa(lp847
F0.18800939509742
aI36
aI99
aI3
ag437
aa(lp848
F0.43137179581936
aI36
aI0
aI3
ag439
aa(lp849
F0.31862820418064
aI36
aI106
aI3
ag441
aa(lp850
F0.60918132029553
aI36
aI0
aI3
ag443
aa(lp851
F0.14081867970447
aI40
aI111
aI3
ag445
aa(lp852
F0.53502309453688
aI40
aI0
aI3
ag447
aa(lp853
F0.46497690546312
aI36
aI92
aI3
ag449
aa(lp854
F0.66883410167543
aI36
aI0
aI3
ag451
aa(lp855
F0.33116589832457
aI38
aI108
aI3
ag453
aa(lp856
F0.36366882567506
aI38
aI0
aI3
ag455
aa(lp857
F0.13633117432494
aI36
aI106
aI3
ag457
aa(lp858
F0.40814834365949
aI36
aI0
aI3
ag459
aa(lp859
F0.34185165634051
aI36
aI94
aI3
ag461
aa(lp860
F0.47604323438873
aI36
aI0
aI3
ag463
aa(lp861
F0.27395676561127
aI38
aI118
aI3
ag465
aa(lp862
F0.11895540672401
aI38
aI0
aI3
ag467
aa(lp863
F0.13104459327599
aI38
aI111
aI3
ag469
aa(lp864
F0.14115638262922
aI38
aI0
aI3
ag471
aa(lp865
F0.10884361737078
aI38
aI113
aI3
ag473
aa(lp866
F0.11929517077931
aI38
aI0
aI3
ag475
aa(lp867
F0.13070482922069
aI38
aI108
aI3
ag477
aa(lp868
F0.1419342580333
aI38
aI0
aI3
ag479
aa(lp869
F0.1080657419667
aI0
aI0
aI0
ag481
aaa(lp870
(lp871
F1.5133146867443
aI37
aI101
aI3
ag484
aa(lp872
F0.35557484822493
aI37
aI0
aI3
ag486
aa(lp873
F2.3973945874441
aI37
aI111
aI3
ag488
aa(lp874
F0.28148913899668
aI37
aI0
aI3
ag490
aa(lp875
F4.9740521401732
aI37
aI111
aI3
ag492
aa(lp876
F0.45247705999736
aI37
aI0
aI3
ag494
aa(lp877
F3.4961566731236
aI37
aI108
aI3
ag496
aa(lp878
F0.39328548846652
aI37
aI0
aI3
ag498
aa(lp879
F3.3784337774523
aI37
aI106
aI3
ag500
aa(lp880
F0.35648410531576
aI37
aI0
aI3
ag502
aa(lp881
F2.8734196578903
aI37
aI106
aI3
ag504
aa(lp882
F0.31881119958598
aI37
aI0
aI3
ag506
aa(lp883
F0.20910663658515
aI0
aI0
aI0
ag508
aaa(lp884
(lp885
F0.24707084389775
aI37
aI115
aI3
ag511
aa(lp886
F0.37113271435828
aI37
aI0
aI3
ag513
aa(lp887
F3.6157444050077
aI37
aI113
aI3
ag515
aa(lp888
F0.3782309641756
aI37
aI0
aI3
ag517
aa(lp889
F4.6381900776259
aI37
aI118
aI3
ag519
aa(lp890
F0.43028078847328
aI37
aI0
aI3
ag521
aa(lp891
F1.590010969956
aI37
aI108
aI3
ag523
aa(lp892
F0.4238138209239
aI37
aI0
aI3
ag525
aa(lp893
F2.0198520912672
aI37
aI115
aI3
ag527
aa(lp894
F0.37155907398846
aI37
aI0
aI3
ag529
aa(lp895
F3.1772285090547
aI37
aI106
aI3
ag531
aa(lp896
F0.33524474281603
aI37
aI0
aI3
ag533
aa(lp897
F3.6966215434577
aI37
aI113
aI3
ag535
aa(lp898
F0.32713057105138
aI37
aI0
aI3
ag537
aa(lp899
F2.844100235011
aI37
aI111
aI3
ag539
aa(lp900
F0.3566741518207
aI37
aI0
aI3
ag541
aa(lp901
F8.6870745093147
aI37
aI106
aI3
ag543
aa(lp902
F0.41608130082477
aI37
aI0
aI3
ag545
aa(lp903
F6.4933568306205
aI37
aI108
aI3
ag547
aa(lp904
F0.39300267712497
aI37
aI0
aI3
ag549
aa(lp905
F2.477052701398
aI37
aI118
aI3
ag551
aa(lp906
F0.42289615675872
aI37
aI0
aI3
ag553
aa(lp907
F0.28765032107276
aI0
aI0
aI0
ag555
aaaI0
aaa(lp908
(lp909
(dp910
a(dp911
a(dp912
a(dp913
aa(lp914
(dp915
g564
S'59'
p916
sg566
I1
sa(dp917
a(dp918
a(dp919
aa(lp920
(dp921
g564
S'10'
p922
sg566
I1
sa(dp923
a(dp924
a(dp925
aa(lp926
(dp927
g564
g580
sg566
I1
sa(dp928
g564
g582
sg566
I0
sa(dp929
g564
g584
sg566
I1
sa(dp930
aaa(lp931
I60
aI60
aI36
aI36
aa(lp932
(lp933
I0
aI2
aI3
aI5
aI7
aI8
aI10
aa(lp934
I0
aI2
aI3
aI5
aI7
aI8
aI10
aa(lp935
I0
aI2
aI3
aI5
aI7
aI8
aI10
aa(lp936
I0
aI1
aI2
aI3
aI4
aI5
aI6
aI7
aI8
aI9
aI10
aI11
aaa(lp937
(lp938
(lp939
I0
aI0
aI0
aI0
aI0
aI0
aI0
aI0
aI0
aI0
aI0
aI0
aa(lp940
I0
aI0
aI0
aI0
aI0
aI0
aI0
aI0
aI0
aI0
aI0
aI0
aa(lp941
I0
aI0
aI0
aI0
aI0
aI0
aI0
aI0
aI0
aI0
aI0
aI0
aa(lp942
I0
aI0
aI0
aI0
aI0
aI0
aI0
aI0
aI0
aI0
aI0
aI0
aaa(lp943
(lp944
I0
aI0
aI0
aI0
aI0
aI0
aI0
aI0
aI0
aI0
aI0
aI0
aa(lp945
I0
aI0
aI0
aI0
aI0
aI0
aI0
aI0
aI0
aI0
aI0
aI0
aa(lp946
I0
aI0
aI0
aI0
aI0
aI0
aI0
aI0
aI0
aI0
aI0
aI0
aa(lp947
I0
aI0
aI0
aI0
aI0
aI0
aI0
aI0
aI0
aI0
aI0
aI0
aaa(lp948
(lp949
I0
aI0
aI0
aI0
aI0
aI0
aI0
aI0
aI0
aI0
aI0
aI0
aa(lp950
I0
aI0
aI0
aI0
aI0
aI0
aI0
aI0
aI0
aI0
aI0
aI0
aa(lp951
I0
aI0
aI0
aI0
aI0
aI0
aI0
aI0
aI0
aI0
aI0
aI0
aa(lp952
I0
aI0
aI0
aI0
aI0
aI0
aI0
aI0
aI0
aI0
aI0
aI0
aaa(lp953
(lp954
I0
aI0
aI0
aI0
aI0
aI0
aI0
aI0
aI0
aI0
aI0
aI0
aa(lp955
I0
aI0
aI0
aI0
aI0
aI0
aI0
aI0
aI0
aI0
aI0
aI0
aa(lp956
I0
aI0
aI0
aI0
aI0
aI0
aI0
aI0
aI0
aI0
aI0
aI0
aa(lp957
I0
aI0
aI0
aI0
aI0
aI0
aI0
aI0
aI0
aI0
aI0
aI0
aaaa(lp958
(lp959
I0
aI0
aI0
aI0
aI0
aI0
aI0
aI0
aI0
aI0
aI0
aI0
aa(lp960
I0
aI0
aI0
aI0
aI0
aI0
aI0
aI0
aI0
aI0
aI0
aI0
aa(lp961
I0
aI0
aI0
aI0
aI0
aI0
aI0
aI0
aI0
aI0
aI0
aI0
aa(lp962
I0
aI0
aI0
aI0
aI0
aI0
aI0
aI0
aI0
aI0
aI0
aI0
aaaa(lp963
(lp964
(lp965
I0
aI0
aI0
aI0
aa(lp966
(lp967
(lp968
F0.0
aI36
aI68
aI1
ag7
aa(lp969
F0.38938285533914
aI36
aI0
aI1
ag9
aa(lp970
F0.11061714466086
aI48
aI73
aI1
ag11
aa(lp971
F0.10403827282698
aI48
aI0
aI1
ag13
aa(lp972
F0.39596172717302
aI46
aI89
aI1
ag15
aa(lp973
F0.096792901324079
aI46
aI0
aI1
ag17
aa(lp974
F0.15320709867592
aI48
aI96
aI1
ag19
aa(lp975
F0.43047264370034
aI48
aI0
aI1
ag21
aa(lp976
F0.31952735629966
aI51
aI101
aI1
ag23
aa(lp977
F0.088411311533491
aI51
aI0
aI1
ag25
aa(lp978
F0.16158868846651
aI50
aI34
aI1
ag27
aa(lp979
F0.089384349865213
aI50
aI0
aI1
ag29
aa(lp980
F0.16061565013479
aI48
aI101
aI1
ag31
aa(lp981
F0.067107434641002
aI48
aI0
aI1
ag33
aa(lp982
F0.182892565359
aI46
aI67
aI1
ag35
aa(lp983
F0.10353138742448
aI46
aI0
aI1
ag37
aa(lp984
F0.14646861257552
aI45
aI96
aI1
ag39
aa(lp985
F0.07439333543789
aI45
aI0
aI1
ag41
aa(lp986
F0.17560666456211
aI43
aI60
aI1
ag43
aa(lp987
F0.096575607482009
aI43
aI0
aI1
ag45
aa(lp988
F0.15342439251799
aI41
aI106
aI1
ag47
aa(lp989
F0.11173222580692
aI41
aI0
aI1
ag49
aa(lp990
F0.13826777419308
aI39
aI56
aI1
ag51
aa(lp991
F0.089212410471191
aI39
aI0
aI1
ag53
aa(lp992
F0.16078758952881
aI31
aI70
aI1
ag55
aa(lp993
F0.40829532468342
aI31
aI0
aI1
ag57
aa(lp994
F0.091704675316578
aI43
aI111
aI1
ag59
aa(lp995
F0.10449205739769
aI43
aI0
aI1
ag61
aa(lp996
F0.39550794260231
aI41
aI70
aI1
ag63
aa(lp997
F0.11086367561347
aI41
aI0
aI1
ag65
aa(lp998
F0.13913632438653
aI43
aI113
aI1
ag67
aa(lp999
F0.44596244051354
aI43
aI0
aI1
ag69
aa(lp1000
F0.30403755948646
aI46
aI111
aI1
ag71
aa(lp1001
F0.089318333652045
aI46
aI0
aI1
ag73
aa(lp1002
F0.16068166634795
aI45
aI66
aI1
ag75
aa(lp1003
F0.10409030661413
aI45
aI0
aI1
ag77
aa(lp1004
F0.14590969338587
aI43
aI113
aI1
ag79
aa(lp1005
F0.096725209944452
aI43
aI0
aI1
ag81
aa(lp1006
F0.15327479005555
aI41
aI57
aI1
ag83
aa(lp1007
F0.11134329236666
aI41
aI0
aI1
ag85
aa(lp1008
F0.13865670763334
aI39
aI111
aI1
ag87
aa(lp1009
F0.089028959477218
aI39
aI0
aI1
ag89
aa(lp1010
F0.16097104052278
aI38
aI72
aI1
ag91
aa(lp1011
F0.12687349912267
aI38
aI0
aI1
ag93
aa(lp1012
F0.12312650087733
aI36
aI106
aI1
ag95
aa(lp1013
F0.10374908620361
aI36
aI0
aI1
ag97
aa(lp1014
F0.14625091379639
aI34
aI80
aI1
ag99
aa(lp1015
F0.11927437971372
aI34
aI0
aI1
ag101
aa(lp1016
F0.13072562028628
aI0
aI0
aI0
ag103
aaa(lp1017
(lp1018
F0.0
aI36
aI80
aI1
ag106
aa(lp1019
F0.39718249419093
aI36
aI0
aI1
ag108
aa(lp1020
F0.089122684797985
aI48
aI96
aI1
ag110
aa(lp1021
F0.10391098740547
aI48
aI0
aI1
ag112
aa(lp1022
F0.34955784035992
aI46
aI85
aI1
ag114
aa(lp1023
F0.1116042441754
aI46
aI0
aI1
ag116
aa(lp1024
F0.13312122060597
aI48
aI106
aI1
ag118
aa(lp1025
F0.43057920199499
aI48
aI0
aI1
ag120
aa(lp1026
F0.31969792224845
aI51
aI106
aI1
ag122
aa(lp1027
F0.10393402196587
aI51
aI0
aI1
ag124
aa(lp1028
F0.1406512249614
aI50
aI57
aI1
ag126
aa(lp1029
F0.096715414715618
aI50
aI0
aI1
ag128
aa(lp1030
F0.1778514916532
aI48
aI94
aI1
ag130
aa(lp1031
F0.066916507218593
aI48
aI0
aI1
ag132
aa(lp1032
F0.17882964925138
aI46
aI66
aI1
ag134
aa(lp1033
F0.10404397037109
aI46
aI0
aI1
ag136
aa(lp1034
F0.14925343050163
aI45
aI104
aI1
ag138
aa(lp1035
F0.081886506089177
aI45
aI0
aI1
ag140
aa(lp1036
F0.12622449052833
aI43
aI68
aI1
ag142
aa(lp1037
F0.13372831743618
aI43
aI0
aI1
ag144
aa(lp1038
F0.15613246267094
aI41
aI104
aI1
ag146
aa(lp1039
F0.12598751671521
aI41
aI0
aI1
ag148
aa(lp1040
F0.044544471414156
aI39
aI78
aI1
ag150
aa(lp1041
F0.11897076025707
aI39
aI0
aI1
ag152
aa(lp1042
F0.23039769428578
aI31
aI96
aI1
ag154
aa(lp1043
F0.46672963427045
aI31
aI0
aI1
ag156
aa(lp1044
F0.022222640784094
aI43
aI106
aI1
ag158
aa(lp1045
F0.13380503679309
aI43
aI0
aI1
ag160
aa(lp1046
F0.37217254894222
aI41
aI85
aI1
ag162
aa(lp1047
F0.11194357487784
aI41
aI0
aI1
ag164
aa(lp1048
F0.16308653334818
aI43
aI111
aI1
ag166
aa(lp1049
F0.38571119387052
aI43
aI0
aI1
ag168
aa(lp1050
F0.38596619664895
aI46
aI106
aI1
ag170
aa(lp1051
F0.089813210162902
aI46
aI0
aI1
ag172
aa(lp1052
F0.1562341517656
aI45
aI43
aI1
ag174
aa(lp1053
F0.096368120239276
aI45
aI0
aI1
ag176
aa(lp1054
F0.17835759275385
aI43
aI89
aI1
ag178
aa(lp1055
F0.051917509124905
aI43
aI0
aI1
ag180
aa(lp1056
F0.15550453783271
aI41
aI63
aI1
ag182
aa(lp1057
F0.11895248690962
aI41
aI0
aI1
ag184
aa(lp1058
F0.14895420994799
aI39
aI106
aI1
ag186
aa(lp1059
F0.096358734208479
aI39
aI0
aI1
ag188
aa(lp1060
F0.14823343644457
aI38
aI70
aI1
ag190
aa(lp1061
F0.14119500089964
aI38
aI0
aI1
ag192
aa(lp1062
F0.097059194047688
aI36
aI101
aI1
ag194
aa(lp1063
F0.10439860487531
aI36
aI0
aI1
ag196
aa(lp1064
F0.10396850845245
aI34
aI71
aI1
ag198
aa(lp1065
F0.118763989115
aI34
aI0
aI1
ag200
aa(lp1066
F0.1814388278699
aI0
aI0
aI0
ag202
aaa(lp1067
(lp1068
F0.0
aI36
aI64
aI1
ag205
aa(lp1069
F0.42199926171907
aI36
aI0
aI1
ag207
aa(lp1070
F0.078000738280934
aI48
aI99
aI1
ag209
aa(lp1071
F0.11131335113168
aI48
aI0
aI1
ag211
aa(lp1072
F0.38868664886832
aI46
aI82
aI1
ag213
aa(lp1073
F0.12626675465981
aI46
aI0
aI1
ag215
aa(lp1074
F0.20706657867352
aI48
aI111
aI1
ag217
aa(lp1075
F0.40955256677444
aI48
aI0
aI1
ag219
aa(lp1076
F0.25711409989223
aI51
aI108
aI1
ag221
aa(lp1077
F0.096588798507582
aI51
aI0
aI1
ag223
aa(lp1078
F0.15341120149242
aI50
aI47
aI1
ag225
aa(lp1079
F0.10398371990141
aI50
aI0
aI1
ag227
aa(lp1080
F0.14601628009859
aI48
aI101
aI1
ag229
aa(lp1081
F0.081727497705288
aI48
aI0
aI1
ag231
aa(lp1082
F0.16827250229471
aI46
aI49
aI1
ag233
aa(lp1083
F0.11869441655108
aI46
aI0
aI1
ag235
aa(lp1084
F0.13130558344892
aI45
aI99
aI1
ag237
aa(lp1085
F0.095965512692601
aI45
aI0
aI1
ag239
aa(lp1086
F0.1540344873074
aI43
aI32
aI1
ag241
aa(lp1087
F0.11896441054887
aI43
aI0
aI1
ag243
aa(lp1088
F0.13103558945113
aI41
aI111
aI1
ag245
aa(lp1089
F0.13482802312774
aI41
aI0
aI1
ag247
aa(lp1090
F0.031838643538928
aI39
aI59
aI1
ag249
aa(lp1091
F0.088596866779881
aI39
aI0
aI1
ag251
aa(lp1092
F0.24473646655345
aI31
aI101
aI1
ag253
aa(lp1093
F0.4460435388828
aI31
aI0
aI1
ag255
aa(lp1094
F0.053956461117195
aI43
aI113
aI1
ag257
aa(lp1095
F0.10389961931105
aI43
aI0
aI1
ag259
aa(lp1096
F0.39610038068895
aI41
aI78
aI1
ag261
aa(lp1097
F0.12652617765252
aI41
aI0
aI1
ag263
aa(lp1098
F0.20680715568081
aI43
aI118
aI1
ag265
aa(lp1099
F0.37110780571493
aI43
aI0
aI1
ag267
aa(lp1100
F0.29555886095174
aI46
aI111
aI1
ag269
aa(lp1101
F0.088795971103536
aI46
aI0
aI1
ag271
aa(lp1102
F0.16120402889646
aI45
aI39
aI1
ag273
aa(lp1103
F0.11169400252766
aI45
aI0
aI1
ag275
aa(lp1104
F0.13830599747234
aI43
aI111
aI1
ag277
aa(lp1105
F0.088824173240027
aI43
aI0
aI1
ag279
aa(lp1106
F0.16117582675997
aI41
aI59
aI1
ag281
aa(lp1107
F0.14059130412534
aI41
aI0
aI1
ag283
aa(lp1108
F0.10940869587466
aI39
aI113
aI1
ag285
aa(lp1109
F0.096059668525413
aI39
aI0
aI1
ag287
aa(lp1110
F0.15394033147459
aI38
aI72
aI1
ag289
aa(lp1111
F0.12653570008206
aI38
aI0
aI1
ag291
aa(lp1112
F0.12346429991794
aI36
aI108
aI1
ag293
aa(lp1113
F0.11136117498427
aI36
aI0
aI1
ag295
aa(lp1114
F0.13863882501573
aI34
aI89
aI1
ag297
aa(lp1115
F0.12620982752014
aI34
aI0
aI1
ag299
aa(lp1116
F0.12379017247986
aI0
aI0
aI0
ag301
aaaI0
aa(lp1117
(lp1118
(lp1119
F0.0
aI36
aI96
aI2
ag724
aa(lp1120
F0.54912335911968
aI36
aI0
aI2
ag726
aa(lp1121
F0.43101273115371
aI36
aI85
aI2
ag728
aa(lp1122
F0.5660612506822
aI36
aI0
aI2
ag730
aa(lp1123
F0.43039949347894
aI36
aI69
aI2
ag732
aa(lp1124
F0.47449117490714
aI36
aI0
aI2
ag734
aa(lp1125
F0.23727510670233
aI36
aI85
aI2
ag736
aa(lp1126
F0.12633309766579
aI36
aI0
aI2
ag738
aa(lp1127
F0.12624746115307
aI39
aI71
aI2
ag740
aa(lp1128
F0.081901028434913
aI39
aI0
aI2
ag742
aa(lp1129
F0.11216106621305
aI36
aI73
aI2
ag744
aa(lp1130
F0.17080115236058
aI36
aI0
aI2
ag746
aa(lp1131
F0.15565555828789
aI34
aI94
aI2
ag748
aa(lp1132
F0.49794341545476
aI31
aI85
aI2
ag750
aa(lp1133
F0.014508658305658
aI34
aI0
aI2
ag752
aa(lp1134
F0.47608233432175
aI31
aI0
aI2
ag754
aa(lp1135
F0.46038894477215
aI31
aI73
aI2
ag756
aa(lp1136
F0.56344123972985
aI31
aI0
aI2
ag758
aa(lp1137
F0.4678081979514
aI31
aI73
aI2
ag760
aa(lp1138
F0.38626002513729
aI31
aI0
aI2
ag762
aa(lp1139
F0.39303108528111
aI31
aI72
aI2
ag764
aa(lp1140
F0.14833351715561
aI31
aI0
aI2
ag766
aa(lp1141
F0.1265720137585
aI34
aI73
aI2
ag768
aa(lp1142
F0.11923380637563
aI34
aI0
aI2
ag770
aa(lp1143
F0.11092727498817
aI31
aI70
aI2
ag772
aa(lp1144
F0.14121206227537
aI31
aI0
aI2
ag774
aa(lp1145
F0.11926901180323
aI39
aI68
aI2
ag776
aa(lp1146
F0.51246700246384
aI36
aI106
aI2
ag778
aa(lp1147
F0.00024388901283601
aI39
aI0
aI2
ag780
aa(lp1148
F0.48293460081777
aI36
aI0
aI2
ag782
aa(lp1149
F0.50427773251431
aI36
aI68
aI2
ag784
aa(lp1150
F0.49875203486681
aI36
aI0
aI2
ag786
aa(lp1151
F0.48294524002404
aI36
aI72
aI2
ag788
aa(lp1152
F0.49812803863642
aI36
aI0
aI2
ag790
aa(lp1153
F0.20004584931212
aI36
aI65
aI2
ag792
aa(lp1154
F0.14876155479078
aI36
aI0
aI2
ag794
aa(lp1155
F0.12583324112938
aI39
aI70
aI2
ag796
aa(lp1156
F0.11142615967356
aI39
aI0
aI2
ag798
aa(lp1157
F0.074591288883767
aI36
aI51
aI2
ag800
aa(lp1158
F0.14811395424385
aI36
aI0
aI2
ag802
aa(lp1159
F0.17835908036704
aI34
aI51
aI2
ag804
aa(lp1160
F0.52715787137504
aI31
aI72
aI2
ag806
aa(lp1161
F0.03004037540768
aI34
aI0
aI2
ag808
aa(lp1162
F0.45360724826332
aI31
aI0
aI2
ag810
aa(lp1163
F0.48247796747592
aI31
aI89
aI2
ag812
aa(lp1164
F0.53484146931578
aI31
aI0
aI2
ag814
aa(lp1165
F0.47469934699257
aI31
aI82
aI2
ag816
aa(lp1166
F0.45348507784456
aI31
aI0
aI2
ag818
aa(lp1167
F0.31152963233308
aI31
aI80
aI2
ag820
aa(lp1168
F0.14863572572449
aI31
aI0
aI2
ag822
aa(lp1169
F0.13383919506532
aI34
aI62
aI2
ag824
aa(lp1170
F0.10357755174573
aI34
aI0
aI2
ag826
aa(lp1171
F0.097248326955651
aI31
aI75
aI2
ag828
aa(lp1172
F0.11853429849634
aI31
aI0
aI2
ag830
aa(lp1173
F0.11926734658573
aI34
aI62
aI2
ag832
aa(lp1174
F0.26791528437843
aI36
aI28
aI2
ag834
aa(lp1175
F0.066561406680648
aI34
aI0
aI2
ag836
aa(lp1176
F0.20846796697424
aI36
aI0
aI2
ag838
aa(lp1177
F0.014760174179173
aI0
aI0
aI0
ag840
aaaI0
aI0
aI0
aa(lp1178
(lp1179
(lp1180
F0.0
aI36
aI78
aI3
ag429
aa(lp1181
F0.74852806654587
aI36
aI0
aI3
ag431
aa(lp1182
F0.25147193345413
aI38
aI99
aI3
ag433
aa(lp1183
F0.31199060490258
aI38
aI0
aI3
ag435
aa(lp1184
F0.18800939509742
aI36
aI99
aI3
ag437
aa(lp1185
F0.43137179581936
aI36
aI0
aI3
ag439
aa(lp1186
F0.31862820418064
aI36
aI106
aI3
ag441
aa(lp1187
F0.60918132029553
aI36
aI0
aI3
ag443
aa(lp1188
F0.14081867970447
aI40
aI111
aI3
ag445
aa(lp1189
F0.53502309453688
aI40
aI0
aI3
ag447
aa(lp1190
F0.46497690546312
aI36
aI92
aI3
ag449
aa(lp1191
F0.66883410167543
aI36
aI0
aI3
ag451
aa(lp1192
F0.33116589832457
aI38
aI108
aI3
ag453
aa(lp1193
F0.36366882567506
aI38
aI0
aI3
ag455
aa(lp1194
F0.13633117432494
aI36
aI106
aI3
ag457
aa(lp1195
F0.40814834365949
aI36
aI0
aI3
ag459
aa(lp1196
F0.34185165634051
aI36
aI94
aI3
ag461
aa(lp1197
F0.47604323438873
aI36
aI0
aI3
ag463
aa(lp1198
F0.27395676561127
aI38
aI118
aI3
ag465
aa(lp1199
F0.11895540672401
aI38
aI0
aI3
ag467
aa(lp1200
F0.13104459327599
aI38
aI111
aI3
ag469
aa(lp1201
F0.14115638262922
aI38
aI0
aI3
ag471
aa(lp1202
F0.10884361737078
aI38
aI113
aI3
ag473
aa(lp1203
F0.11929517077931
aI38
aI0
aI3
ag475
aa(lp1204
F0.13070482922069
aI38
aI108
aI3
ag477
aa(lp1205
F0.1419342580333
aI38
aI0
aI3
ag479
aa(lp1206
F0.1080657419667
aI0
aI0
aI0
ag481
aaa(lp1207
(lp1208
F1.5133146867443
aI37
aI101
aI3
ag484
aa(lp1209
F0.35557484822493
aI37
aI0
aI3
ag486
aa(lp1210
F2.3973945874441
aI37
aI111
aI3
ag488
aa(lp1211
F0.28148913899668
aI37
aI0
aI3
ag490
aa(lp1212
F4.9740521401732
aI37
aI111
aI3
ag492
aa(lp1213
F0.45247705999736
aI37
aI0
aI3
ag494
aa(lp1214
F3.4961566731236
aI37
aI108
aI3
ag496
aa(lp1215
F0.39328548846652
aI37
aI0
aI3
ag498
aa(lp1216
F3.3784337774523
aI37
aI106
aI3
ag500
aa(lp1217
F0.35648410531576
aI37
aI0
aI3
ag502
aa(lp1218
F2.8734196578903
aI37
aI106
aI3
ag504
aa(lp1219
F0.31881119958598
aI37
aI0
aI3
ag506
aa(lp1220
F0.20910663658515
aI0
aI0
aI0
ag508
aaa(lp1221
(lp1222
F0.24707084389775
aI37
aI115
aI3
ag511
aa(lp1223
F0.37113271435828
aI37
aI0
aI3
ag513
aa(lp1224
F3.6157444050077
aI37
aI113
aI3
ag515
aa(lp1225
F0.3782309641756
aI37
aI0
aI3
ag517
aa(lp1226
F4.6381900776259
aI37
aI118
aI3
ag519
aa(lp1227
F0.43028078847328
aI37
aI0
aI3
ag521
aa(lp1228
F1.590010969956
aI37
aI108
aI3
ag523
aa(lp1229
F0.4238138209239
aI37
aI0
aI3
ag525
aa(lp1230
F2.0198520912672
aI37
aI115
aI3
ag527
aa(lp1231
F0.37155907398846
aI37
aI0
aI3
ag529
aa(lp1232
F3.1772285090547
aI37
aI106
aI3
ag531
aa(lp1233
F0.33524474281603
aI37
aI0
aI3
ag533
aa(lp1234
F3.6966215434577
aI37
aI113
aI3
ag535
aa(lp1235
F0.32713057105138
aI37
aI0
aI3
ag537
aa(lp1236
F2.844100235011
aI37
aI111
aI3
ag539
aa(lp1237
F0.3566741518207
aI37
aI0
aI3
ag541
aa(lp1238
F8.6870745093147
aI37
aI106
aI3
ag543
aa(lp1239
F0.41608130082477
aI37
aI0
aI3
ag545
aa(lp1240
F6.4933568306205
aI37
aI108
aI3
ag547
aa(lp1241
F0.39300267712497
aI37
aI0
aI3
ag549
aa(lp1242
F2.477052701398
aI37
aI118
aI3
ag551
aa(lp1243
F0.42289615675872
aI37
aI0
aI3
ag553
aa(lp1244
F0.28765032107276
aI0
aI0
aI0
ag555
aaaI0
aaa(lp1245
(lp1246
(dp1247
a(dp1248
a(dp1249
a(dp1250
aa(lp1251
(dp1252
g564
g565
sg566
I01
sa(dp1253
g564
g568
sg566
I0
sa(dp1254
g564
g570
sg566
I0
sa(dp1255
aa(lp1256
(dp1257
g564
g922
sg566
I1
sa(dp1258
a(dp1259
a(dp1260
aa(lp1261
(dp1262
g564
g580
sg566
I1
sa(dp1263
g564
g582
sg566
I0
sa(dp1264
g564
g584
sg566
I1
sa(dp1265
aaa(lp1266
I60
aI60
aI36
aI36
aa(lp1267
(lp1268
I0
aI2
aI3
aI5
aI7
aI8
aI10
aa(lp1269
I0
aI2
aI3
aI5
aI7
aI8
aI10
aa(lp1270
I0
aI2
aI3
aI5
aI7
aI8
aI10
aa(lp1271
I0
aI1
aI2
aI3
aI4
aI5
aI6
aI7
aI8
aI9
aI10
aI11
aaa(lp1272
(lp1273
(lp1274
I0
aI0
aI0
aI0
aI0
aI0
aI0
aI0
aI0
aI0
aI0
aI0
aa(lp1275
I0
aI0
aI0
aI0
aI0
aI0
aI0
aI0
aI0
aI0
aI0
aI0
aa(lp1276
I0
aI0
aI0
aI0
aI0
aI0
aI0
aI0
aI0
aI0
aI0
aI0
aa(lp1277
I0
aI0
aI0
aI0
aI0
aI0
aI0
aI0
aI0
aI0
aI0
aI0
aaa(lp1278
(lp1279
I0
aI0
aI0
aI0
aI0
aI0
aI0
aI0
aI0
aI0
aI0
aI0
aa(lp1280
I0
aI0
aI0
aI0
aI0
aI0
aI0
aI0
aI0
aI0
aI0
aI0
aa(lp1281
I0
aI0
aI0
aI0
aI0
aI0
aI0
aI0
aI0
aI0
aI0
aI0
aa(lp1282
I0
aI0
aI0
aI0
aI0
aI0
aI0
aI0
aI0
aI0
aI0
aI0
aaa(lp1283
(lp1284
I0
aI0
aI0
aI0
aI0
aI0
aI0
aI0
aI0
aI0
aI0
aI0
aa(lp1285
I0
aI0
aI0
aI0
aI0
aI0
aI0
aI0
aI0
aI0
aI0
aI0
aa(lp1286
I0
aI0
aI0
aI0
aI0
aI0
aI0
aI0
aI0
aI0
aI0
aI0
aa(lp1287
I0
aI0
aI0
aI0
aI0
aI0
aI0
aI0
aI0
aI0
aI0
aI0
aaa(lp1288
(lp1289
I0
aI0
aI0
aI0
aI0
aI0
aI0
aI0
aI0
aI0
aI0
aI0
aa(lp1290
I0
aI0
aI0
aI0
aI0
aI0
aI0
aI0
aI0
aI0
aI0
aI0
aa(lp1291
I0
aI0
aI0
aI0
aI0
aI0
aI0
aI0
aI0
aI0
aI0
aI0
aa(lp1292
I0
aI0
aI0
aI0
aI0
aI0
aI0
aI0
aI0
aI0
aI0
aI0
aaaa(lp1293
(lp1294
I0
aI0
aI0
aI0
aI0
aI0
aI0
aI0
aI0
aI0
aI0
aI0
aa(lp1295
I0
aI0
aI0
aI0
aI0
aI0
aI0
aI0
aI0
aI0
aI0
aI0
aa(lp1296
I0
aI0
aI0
aI0
aI0
aI0
aI0
aI0
aI0
aI0
aI0
aI0
aa(lp1297
I0
aI0
aI0
aI0
aI0
aI0
aI0
aI0
aI0
aI0
aI0
aI0
aaaaI0
aI0
aI0
aI0
aI0
aI0
aI0
aI0
aI0
aI0
aI0
aI0
aI0
aI0
aI0
aI0
aI0
aI0
aI0
aI0
aI0
aI0
aI0
aI0
aI0
aI0
aI0
aI0
aI0
aI0
aI0
aI0
aI0
aI0
aI0
aI0
aI0
aI0
aI0
aI0
aI0
aI0
aI0
aI0
aI0
aI0
aI0
aI0
aI0
aI0
aI0
aI0
aI0
aI0
aI0
aI0
aI0
aI0
aI0
aI0
aI0
aI0
aI0
aI0
aI0
aI0
aI0
aI0
aI0
aI0
aI0
aI0
aI0
aI0
aI0
aI0
aI0
aI0
aI0
aI0
aI0
aI0
aI0
aI0
aI0
aI0
aI0
a.