(lp0
I0
aI0
aI0
aI0
aI0
aI0
aI0
aI0
aI0
aI0
a(lp1
(lp2
(lp3
I0
aI0
aI0
aI0
aa(lp4
(lp5
(lp6
F0.0
aI36
aI68
aI1
aS'on'
p7
aa(lp8
F0.38938285533914
aI36
aI0
aI1
aS'off'
p9
aa(lp10
F0.11061714466086
aI48
aI73
aI1
aS'on'
p11
aa(lp12
F0.10403827282698
aI48
aI0
aI1
aS'off'
p13
aa(lp14
F0.39596172717302
aI46
aI89
aI1
aS'on'
p15
aa(lp16
F0.096792901324079
aI46
aI0
aI1
aS'off'
p17
aa(lp18
F0.15320709867592
aI48
aI96
aI1
aS'on'
p19
aa(lp20
F0.43047264370034
aI48
aI0
aI1
aS'off'
p21
aa(lp22
F0.31952735629966
aI51
aI101
aI1
aS'on'
p23
aa(lp24
F0.088411311533491
aI51
aI0
aI1
aS'off'
p25
aa(lp26
F0.16158868846651
aI50
aI34
aI1
aS'on'
p27
aa(lp28
F0.089384349865213
aI50
aI0
aI1
aS'off'
p29
aa(lp30
F0.16061565013479
aI48
aI101
aI1
aS'on'
p31
aa(lp32
F0.067107434641002
aI48
aI0
aI1
aS'off'
p33
aa(lp34
F0.182892565359
aI46
aI67
aI1
aS'on'
p35
aa(lp36
F0.10353138742448
aI46
aI0
aI1
aS'off'
p37
aa(lp38
F0.14646861257552
aI45
aI96
aI1
aS'on'
p39
aa(lp40
F0.07439333543789
aI45
aI0
aI1
aS'off'
p41
aa(lp42
F0.17560666456211
aI43
aI60
aI1
aS'on'
p43
aa(lp44
F0.096575607482009
aI43
aI0
aI1
aS'off'
p45
aa(lp46
F0.15342439251799
aI41
aI106
aI1
aS'on'
p47
aa(lp48
F0.11173222580692
aI41
aI0
aI1
aS'off'
p49
aa(lp50
F0.13826777419308
aI39
aI56
aI1
aS'on'
p51
aa(lp52
F0.089212410471191
aI39
aI0
aI1
aS'off'
p53
aa(lp54
F0.16078758952881
aI31
aI70
aI1
aS'on'
p55
aa(lp56
F0.40829532468342
aI31
aI0
aI1
aS'off'
p57
aa(lp58
F0.091704675316578
aI43
aI111
aI1
aS'on'
p59
aa(lp60
F0.10449205739769
aI43
aI0
aI1
aS'off'
p61
aa(lp62
F0.39550794260231
aI41
aI70
aI1
aS'on'
p63
aa(lp64
F0.11086367561347
aI41
aI0
aI1
aS'off'
p65
aa(lp66
F0.13913632438653
aI43
aI113
aI1
aS'on'
p67
aa(lp68
F0.44596244051354
aI43
aI0
aI1
aS'off'
p69
aa(lp70
F0.30403755948646
aI46
aI111
aI1
aS'on'
p71
aa(lp72
F0.089318333652045
aI46
aI0
aI1
aS'off'
p73
aa(lp74
F0.16068166634795
aI45
aI66
aI1
aS'on'
p75
aa(lp76
F0.10409030661413
aI45
aI0
aI1
aS'off'
p77
aa(lp78
F0.14590969338587
aI43
aI113
aI1
aS'on'
p79
aa(lp80
F0.096725209944452
aI43
aI0
aI1
aS'off'
p81
aa(lp82
F0.15327479005555
aI41
aI57
aI1
aS'on'
p83
aa(lp84
F0.11134329236666
aI41
aI0
aI1
aS'off'
p85
aa(lp86
F0.13865670763334
aI39
aI111
aI1
aS'on'
p87
aa(lp88
F0.089028959477218
aI39
aI0
aI1
aS'off'
p89
aa(lp90
F0.16097104052278
aI38
aI72
aI1
aS'on'
p91
aa(lp92
F0.12687349912267
aI38
aI0
aI1
aS'off'
p93
aa(lp94
F0.12312650087733
aI36
aI106
aI1
aS'on'
p95
aa(lp96
F0.10374908620361
aI36
aI0
aI1
aS'off'
p97
aa(lp98
F0.14625091379639
aI34
aI80
aI1
aS'on'
p99
aa(lp100
F0.11927437971372
aI34
aI0
aI1
aS'off'
p101
aa(lp102
F0.13072562028628
aI0
aI0
aI0
aS'timeAfterLastHit'
p103
aaa(lp104
(lp105
F0.0
aI36
aI80
aI1
aS'on'
p106
aa(lp107
F0.39718249419093
aI36
aI0
aI1
aS'off'
p108
aa(lp109
F0.089122684797985
aI48
aI96
aI1
aS'on'
p110
aa(lp111
F0.10391098740547
aI48
aI0
aI1
aS'off'
p112
aa(lp113
F0.34955784035992
aI46
aI85
aI1
aS'on'
p114
aa(lp115
F0.1116042441754
aI46
aI0
aI1
aS'off'
p116
aa(lp117
F0.13312122060597
aI48
aI106
aI1
aS'on'
p118
aa(lp119
F0.43057920199499
aI48
aI0
aI1
aS'off'
p120
aa(lp121
F0.31969792224845
aI51
aI106
aI1
aS'on'
p122
aa(lp123
F0.10393402196587
aI51
aI0
aI1
aS'off'
p124
aa(lp125
F0.1406512249614
aI50
aI57
aI1
aS'on'
p126
aa(lp127
F0.096715414715618
aI50
aI0
aI1
aS'off'
p128
aa(lp129
F0.1778514916532
aI48
aI94
aI1
aS'on'
p130
aa(lp131
F0.066916507218593
aI48
aI0
aI1
aS'off'
p132
aa(lp133
F0.17882964925138
aI46
aI66
aI1
aS'on'
p134
aa(lp135
F0.10404397037109
aI46
aI0
aI1
aS'off'
p136
aa(lp137
F0.14925343050163
aI45
aI104
aI1
aS'on'
p138
aa(lp139
F0.081886506089177
aI45
aI0
aI1
aS'off'
p140
aa(lp141
F0.12622449052833
aI43
aI68
aI1
aS'on'
p142
aa(lp143
F0.13372831743618
aI43
aI0
aI1
aS'off'
p144
aa(lp145
F0.15613246267094
aI41
aI104
aI1
aS'on'
p146
aa(lp147
F0.12598751671521
aI41
aI0
aI1
aS'off'
p148
aa(lp149
F0.044544471414156
aI39
aI78
aI1
aS'on'
p150
aa(lp151
F0.11897076025707
aI39
aI0
aI1
aS'off'
p152
aa(lp153
F0.23039769428578
aI31
aI96
aI1
aS'on'
p154
aa(lp155
F0.46672963427045
aI31
aI0
aI1
aS'off'
p156
aa(lp157
F0.022222640784094
aI43
aI106
aI1
aS'on'
p158
aa(lp159
F0.13380503679309
aI43
aI0
aI1
aS'off'
p160
aa(lp161
F0.37217254894222
aI41
aI85
aI1
aS'on'
p162
aa(lp163
F0.11194357487784
aI41
aI0
aI1
aS'off'
p164
aa(lp165
F0.16308653334818
aI43
aI111
aI1
aS'on'
p166
aa(lp167
F0.38571119387052
aI43
aI0
aI1
aS'off'
p168
aa(lp169
F0.38596619664895
aI46
aI106
aI1
aS'on'
p170
aa(lp171
F0.089813210162902
aI46
aI0
aI1
aS'off'
p172
aa(lp173
F0.1562341517656
aI45
aI43
aI1
aS'on'
p174
aa(lp175
F0.096368120239276
aI45
aI0
aI1
aS'off'
p176
aa(lp177
F0.17835759275385
aI43
aI89
aI1
aS'on'
p178
aa(lp179
F0.051917509124905
aI43
aI0
aI1
aS'off'
p180
aa(lp181
F0.15550453783271
aI41
aI63
aI1
aS'on'
p182
aa(lp183
F0.11895248690962
aI41
aI0
aI1
aS'off'
p184
aa(lp185
F0.14895420994799
aI39
aI106
aI1
aS'on'
p186
aa(lp187
F0.096358734208479
aI39
aI0
aI1
aS'off'
p188
aa(lp189
F0.14823343644457
aI38
aI70
aI1
aS'on'
p190
aa(lp191
F0.14119500089964
aI38
aI0
aI1
aS'off'
p192
aa(lp193
F0.097059194047688
aI36
aI101
aI1
aS'on'
p194
aa(lp195
F0.10439860487531
aI36
aI0
aI1
aS'off'
p196
aa(lp197
F0.10396850845245
aI34
aI71
aI1
aS'on'
p198
aa(lp199
F0.118763989115
aI34
aI0
aI1
aS'off'
p200
aa(lp201
F0.1814388278699
aI0
aI0
aI0
aS'timeAfterLastHit'
p202
aaa(lp203
(lp204
F0.0
aI36
aI64
aI1
aS'on'
p205
aa(lp206
F0.42199926171907
aI36
aI0
aI1
aS'off'
p207
aa(lp208
F0.078000738280934
aI48
aI99
aI1
aS'on'
p209
aa(lp210
F0.11131335113168
aI48
aI0
aI1
aS'off'
p211
aa(lp212
F0.38868664886832
aI46
aI82
aI1
aS'on'
p213
aa(lp214
F0.12626675465981
aI46
aI0
aI1
aS'off'
p215
aa(lp216
F0.20706657867352
aI48
aI111
aI1
aS'on'
p217
aa(lp218
F0.40955256677444
aI48
aI0
aI1
aS'off'
p219
aa(lp220
F0.25711409989223
aI51
aI108
aI1
aS'on'
p221
aa(lp222
F0.096588798507582
aI51
aI0
aI1
aS'off'
p223
aa(lp224
F0.15341120149242
aI50
aI47
aI1
aS'on'
p225
aa(lp226
F0.10398371990141
aI50
aI0
aI1
aS'off'
p227
aa(lp228
F0.14601628009859
aI48
aI101
aI1
aS'on'
p229
aa(lp230
F0.081727497705288
aI48
aI0
aI1
aS'off'
p231
aa(lp232
F0.16827250229471
aI46
aI49
aI1
aS'on'
p233
aa(lp234
F0.11869441655108
aI46
aI0
aI1
aS'off'
p235
aa(lp236
F0.13130558344892
aI45
aI99
aI1
aS'on'
p237
aa(lp238
F0.095965512692601
aI45
aI0
aI1
aS'off'
p239
aa(lp240
F0.1540344873074
aI43
aI32
aI1
aS'on'
p241
aa(lp242
F0.11896441054887
aI43
aI0
aI1
aS'off'
p243
aa(lp244
F0.13103558945113
aI41
aI111
aI1
aS'on'
p245
aa(lp246
F0.13482802312774
aI41
aI0
aI1
aS'off'
p247
aa(lp248
F0.031838643538928
aI39
aI59
aI1
aS'on'
p249
aa(lp250
F0.088596866779881
aI39
aI0
aI1
aS'off'
p251
aa(lp252
F0.24473646655345
aI31
aI101
aI1
aS'on'
p253
aa(lp254
F0.4460435388828
aI31
aI0
aI1
aS'off'
p255
aa(lp256
F0.053956461117195
aI43
aI113
aI1
aS'on'
p257
aa(lp258
F0.10389961931105
aI43
aI0
aI1
aS'off'
p259
aa(lp260
F0.39610038068895
aI41
aI78
aI1
aS'on'
p261
aa(lp262
F0.12652617765252
aI41
aI0
aI1
aS'off'
p263
aa(lp264
F0.20680715568081
aI43
aI118
aI1
aS'on'
p265
aa(lp266
F0.37110780571493
aI43
aI0
aI1
aS'off'
p267
aa(lp268
F0.29555886095174
aI46
aI111
aI1
aS'on'
p269
aa(lp270
F0.088795971103536
aI46
aI0
aI1
aS'off'
p271
aa(lp272
F0.16120402889646
aI45
aI39
aI1
aS'on'
p273
aa(lp274
F0.11169400252766
aI45
aI0
aI1
aS'off'
p275
aa(lp276
F0.13830599747234
aI43
aI111
aI1
aS'on'
p277
aa(lp278
F0.088824173240027
aI43
aI0
aI1
aS'off'
p279
aa(lp280
F0.16117582675997
aI41
aI59
aI1
aS'on'
p281
aa(lp282
F0.14059130412534
aI41
aI0
aI1
aS'off'
p283
aa(lp284
F0.10940869587466
aI39
aI113
aI1
aS'on'
p285
aa(lp286
F0.096059668525413
aI39
aI0
aI1
aS'off'
p287
aa(lp288
F0.15394033147459
aI38
aI72
aI1
aS'on'
p289
aa(lp290
F0.12653570008206
aI38
aI0
aI1
aS'off'
p291
aa(lp292
F0.12346429991794
aI36
aI108
aI1
aS'on'
p293
aa(lp294
F0.11136117498427
aI36
aI0
aI1
aS'off'
p295
aa(lp296
F0.13863882501573
aI34
aI89
aI1
aS'on'
p297
aa(lp298
F0.12620982752014
aI34
aI0
aI1
aS'off'
p299
aa(lp300
F0.12379017247986
aI0
aI0
aI0
aS'timeAfterLastHit'
p301
aaaI0
aa(lp302
(lp303
(lp304
F0.0
aI36
aI85
aI2
aS'on'
p305
aa(lp306
F0.53878120621266
aI36
aI0
aI2
aS'off'
p307
aa(lp308
F0.46121879378734
aI36
aI73
aI2
aS'on'
p309
aa(lp310
F0.66853917345998
aI36
aI0
aI2
aS'off'
p311
aa(lp312
F0.33146082654002
aI36
aI72
aI2
aS'on'
p313
aa(lp314
F0.54307235407487
aI36
aI0
aI2
aS'off'
p315
aa(lp316
F0.20692764592513
aI36
aI38
aI2
aS'on'
p317
aa(lp318
F0.12681654214703
aI36
aI0
aI2
aS'off'
p319
aa(lp320
F0.12318345785297
aI39
aI73
aI2
aS'on'
p321
aa(lp322
F0.11843683496136
aI39
aI0
aI2
aS'off'
p323
aa(lp324
F0.13156316503864
aI36
aI46
aI2
aS'on'
p325
aa(lp326
F0.13385448466215
aI36
aI0
aI2
aS'off'
p327
aa(lp328
F0.11614551533785
aI34
aI96
aI2
aS'on'
p329
aa(lp330
F0.5
aI31
aI66
aI2
aS'on'
p331
aa(lp332
F0.049734665000869
aI34
aI0
aI2
aS'off'
p333
aa(lp334
F0.45389595289089
aI31
aI0
aI2
aS'off'
p335
aa(lp336
F0.49636938210824
aI31
aI80
aI2
aS'on'
p337
aa(lp338
F0.63934880920351
aI31
aI0
aI2
aS'off'
p339
aa(lp340
F0.36065119079649
aI31
aI85
aI2
aS'on'
p341
aa(lp342
F0.52075540685109
aI31
aI0
aI2
aS'off'
p343
aa(lp344
F0.22924459314891
aI31
aI58
aI2
aS'on'
p345
aa(lp346
F0.12623056459415
aI31
aI0
aI2
aS'off'
p347
aa(lp348
F0.12376943540585
aI34
aI72
aI2
aS'on'
p349
aa(lp350
F0.11868081490593
aI34
aI0
aI2
aS'off'
p351
aa(lp352
F0.13131918509407
aI31
aI94
aI2
aS'on'
p353
aa(lp354
F0.15640518040618
aI31
aI0
aI2
aS'off'
p355
aa(lp356
F0.093594819593818
aI39
aI104
aI2
aS'on'
p357
aa(lp358
F0.5
aI36
aI94
aI2
aS'on'
p359
aa(lp360
F0.058699687628177
aI39
aI0
aI2
aS'off'
p361
aa(lp362
F0.43096196157694
aI36
aI0
aI2
aS'off'
p363
aa(lp364
F0.51033835079488
aI36
aI101
aI2
aS'on'
p365
aa(lp366
F0.57294566781093
aI36
aI0
aI2
aS'off'
p367
aa(lp368
F0.42705433218907
aI36
aI85
aI2
aS'on'
p369
aa(lp370
F0.51962284721321
aI36
aI0
aI2
aS'off'
p371
aa(lp372
F0.23037715278679
aI36
aI80
aI2
aS'on'
p373
aa(lp374
F0.1192970150214
aI36
aI0
aI2
aS'off'
p375
aa(lp376
F0.1307029849786
aI39
aI78
aI2
aS'on'
p377
aa(lp378
F0.11073310806478
aI39
aI0
aI2
aS'off'
p379
aa(lp380
F0.13926689193522
aI36
aI67
aI2
aS'on'
p381
aa(lp382
F0.14143787117519
aI36
aI0
aI2
aS'off'
p383
aa(lp384
F0.10856212882481
aI34
aI89
aI2
aS'on'
p385
aa(lp386
F0.5
aI31
aI68
aI2
aS'on'
p387
aa(lp388
F0.064561513416265
aI34
aI0
aI2
aS'off'
p389
aa(lp390
F0.47862786765927
aI31
aI0
aI2
aS'off'
p391
aa(lp392
F0.45681061892446
aI31
aI89
aI2
aS'on'
p393
aa(lp394
F0.50573291100227
aI31
aI0
aI2
aS'off'
p395
aa(lp396
F0.49426708899773
aI26
aI73
aI2
aS'on'
p397
aa(lp398
F0.24650080407719
aI26
aI0
aI2
aS'off'
p399
aa(lp400
F0.0034991959228137
aI29
aI53
aI2
aS'on'
p401
aa(lp402
F0.25
aI31
aI101
aI2
aS'on'
p403
aa(lp404
F0.10025711380149
aI29
aI0
aI2
aS'off'
p405
aa(lp406
F0.14974288619851
aI34
aI99
aI2
aS'on'
p407
aa(lp408
F0.11442266624999
aI31
aI0
aI2
aS'off'
p409
aa(lp410
F0.38557733375001
aI31
aI73
aI2
aS'on'
p411
aa(lp412
F0.057677066448377
aI34
aI0
aI2
aS'off'
p413
aa(lp414
F0.19232293355162
aI34
aI63
aI2
aS'on'
p415
aa(lp416
F0.061363420320049
aI31
aI0
aI2
aS'off'
p417
aa(lp418
F0.10530324634662
aI36
aI45
aI2
aS'on'
p419
aa(lp420
F0.15911469312353
aI34
aI0
aI2
aS'off'
p421
aa(lp422
F0.15246152435035
aI36
aI0
aI2
aS'off'
p423
aa(lp424
F0.021757115859449
aI0
aI0
aI0
aS'timeAfterLastHit'
p425
aaaI0
aI0
aI0
aa(lp426
(lp427
(lp428
F0.0
aI36
aI78
aI3
aS'on'
p429
aa(lp430
F0.74852806654587
aI36
aI0
aI3
aS'off'
p431
aa(lp432
F0.25147193345413
aI38
aI99
aI3
aS'on'
p433
aa(lp434
F0.31199060490258
aI38
aI0
aI3
aS'off'
p435
aa(lp436
F0.18800939509742
aI36
aI99
aI3
aS'on'
p437
aa(lp438
F0.43137179581936
aI36
aI0
aI3
aS'off'
p439
aa(lp440
F0.31862820418064
aI36
aI106
aI3
aS'on'
p441
aa(lp442
F0.60918132029553
aI36
aI0
aI3
aS'off'
p443
aa(lp444
F0.14081867970447
aI40
aI111
aI3
aS'on'
p445
aa(lp446
F0.53502309453688
aI40
aI0
aI3
aS'off'
p447
aa(lp448
F0.46497690546312
aI36
aI92
aI3
aS'on'
p449
aa(lp450
F0.66883410167543
aI36
aI0
aI3
aS'off'
p451
aa(lp452
F0.33116589832457
aI38
aI108
aI3
aS'on'
p453
aa(lp454
F0.36366882567506
aI38
aI0
aI3
aS'off'
p455
aa(lp456
F0.13633117432494
aI36
aI106
aI3
aS'on'
p457
aa(lp458
F0.40814834365949
aI36
aI0
aI3
aS'off'
p459
aa(lp460
F0.34185165634051
aI36
aI94
aI3
aS'on'
p461
aa(lp462
F0.47604323438873
aI36
aI0
aI3
aS'off'
p463
aa(lp464
F0.27395676561127
aI38
aI118
aI3
aS'on'
p465
aa(lp466
F0.11895540672401
aI38
aI0
aI3
aS'off'
p467
aa(lp468
F0.13104459327599
aI38
aI111
aI3
aS'on'
p469
aa(lp470
F0.14115638262922
aI38
aI0
aI3
aS'off'
p471
aa(lp472
F0.10884361737078
aI38
aI113
aI3
aS'on'
p473
aa(lp474
F0.11929517077931
aI38
aI0
aI3
aS'off'
p475
aa(lp476
F0.13070482922069
aI38
aI108
aI3
aS'on'
p477
aa(lp478
F0.1419342580333
aI38
aI0
aI3
aS'off'
p479
aa(lp480
F0.1080657419667
aI0
aI0
aI0
aS'timeAfterLastHit'
p481
aaa(lp482
(lp483
F0.5
aI37
aI113
aI3
aS'on'
p484
aa(lp485
F0.14129695000884
aI37
aI0
aI3
aS'off'
p486
aa(lp487
F0.60870304999116
aI40
aI118
aI3
aS'on'
p488
aa(lp489
F0.32023817167646
aI40
aI0
aI3
aS'off'
p490
aa(lp491
F2.6797618283235
aI40
aI118
aI3
aS'on'
p492
aa(lp493
F0.14823458163482
aI40
aI0
aI3
aS'off'
p494
aa(lp495
F1.1017654183652
aI37
aI99
aI3
aS'on'
p496
aa(lp497
F0.26056305904604
aI37
aI0
aI3
aS'off'
p498
aa(lp499
F2.739436940954
aI37
aI115
aI3
aS'on'
p500
aa(lp501
F0.22257264094333
aI37
aI0
aI3
aS'off'
p502
aa(lp503
F0.52742735905667
aI40
aI122
aI3
aS'on'
p504
aa(lp505
F0.3713139317988
aI40
aI0
aI3
aS'off'
p506
aa(lp507
F2.8786860682012
aI37
aI113
aI3
aS'on'
p508
aa(lp509
F0.13342006605853
aI37
aI0
aI3
aS'off'
p510
aa(lp511
F3.6165799339415
aI40
aI118
aI3
aS'on'
p512
aa(lp513
F0.16323781381652
aI40
aI0
aI3
aS'off'
p514
aa(lp515
F1.0867621861835
aI37
aI111
aI3
aS'on'
p516
aa(lp517
F0.35607607302336
aI37
aI0
aI3
aS'off'
p518
aa(lp519
F2.3939239269766
aI37
aI108
aI3
aS'on'
p520
aa(lp521
F0.25243610688085
aI37
aI0
aI3
aS'off'
p522
aa(lp523
F2.9975638931191
aI37
aI113
aI3
aS'on'
p524
aa(lp525
F0.31965196820966
aI37
aI0
aI3
aS'off'
p526
aa(lp527
F0.68034803179034
aI40
aI115
aI3
aS'on'
p528
aa(lp529
F0.11134762733127
aI40
aI0
aI3
aS'off'
p530
aa(lp531
F0.63865237266873
aI37
aI118
aI3
aS'on'
p532
aa(lp533
F0.096868684349829
aI37
aI0
aI3
aS'off'
p534
aa(lp535
F3.1531313156502
aI37
aI106
aI3
aS'on'
p536
aa(lp537
F0.13251384244904
aI37
aI0
aI3
aS'off'
p538
aa(lp539
F0.36748615755096
aI0
aI0
aI0
aS'timeAfterLastHit'
p540
aaa(lp541
(lp542
F0.0
aI50
aI113
aI3
aS'on'
p543
aa(lp544
F0.097908355492109
aI50
aI0
aI3
aS'off'
p545
aa(lp546
F4.4020916445079
aI51
aI11
aI3
aS'on'
p547
aa(lp548
F0.059431128420329
aI51
aI0
aI3
aS'off'
p549
aa(lp550
F4.9405688715797
aI49
aI8
aI3
aS'on'
p551
aa(lp552
F0.036725710948303
aI49
aI0
aI3
aS'off'
p553
aa(lp554
F0.7132742890517
aI51
aI45
aI3
aS'on'
p555
aa(lp556
F0.081812376913149
aI51
aI0
aI3
aS'off'
p557
aa(lp558
F3.1681876230869
aI49
aI36
aI3
aS'on'
p559
aa(lp560
F0.03690305946111
aI49
aI0
aI3
aS'off'
p561
aa(lp562
F2.4630969405389
aI50
aI101
aI3
aS'on'
p563
aa(lp564
F0.10423679176711
aI50
aI0
aI3
aS'off'
p565
aa(lp566
F0.89576320823289
aI0
aI0
aI0
aS'timeAfterLastHit'
p567
aaaI0
aaa(lp568
(lp569
(dp570
a(dp571
a(dp572
a(dp573
aa(lp574
(dp575
S'button'
p576
S'59'
p577
sS'playing'
p578
I1
sa(dp579
g576
S'69'
p580
sg578
I0
sa(dp581
g576
S'79'
p582
sg578
I0
sa(dp583
aa(lp584
(dp585
g576
S'10'
p586
sg578
I01
sa(dp587
a(dp588
a(dp589
aa(lp590
(dp591
g576
S'19'
p592
sg578
I1
sa(dp593
g576
S'29'
p594
sg578
I1
sa(dp595
g576
S'39'
p596
sg578
I0
sa(dp597
aaa(lp598
I60
aI60
aI36
aI36
aa(lp599
(lp600
I0
aI2
aI3
aI5
aI7
aI8
aI10
aa(lp601
I0
aI2
aI3
aI5
aI7
aI8
aI10
aa(lp602
I0
aI2
aI3
aI5
aI7
aI8
aI10
aa(lp603
I0
aI1
aI2
aI3
aI4
aI5
aI6
aI7
aI8
aI9
aI10
aI11
aaa(lp604
(lp605
(lp606
I0
aI0
aI0
aI0
aI0
aI0
aI0
aI0
aI0
aI0
aI0
aI0
aa(lp607
I0
aI0
aI0
aI0
aI0
aI0
aI0
aI0
aI0
aI0
aI0
aI0
aa(lp608
I0
aI0
aI0
aI0
aI0
aI0
aI0
aI0
aI0
aI0
aI0
aI0
aa(lp609
I0
aI0
aI0
aI0
aI0
aI0
aI0
aI0
aI0
aI0
aI0
aI0
aaa(lp610
(lp611
I0
aI0
aI0
aI0
aI0
aI0
aI0
aI0
aI0
aI0
aI0
aI0
aa(lp612
I0
aI0
aI0
aI0
aI0
aI0
aI0
aI0
aI0
aI0
aI0
aI0
aa(lp613
I0
aI0
aI0
aI0
aI0
aI0
aI0
aI0
aI0
aI0
aI0
aI0
aa(lp614
I0
aI0
aI0
aI0
aI0
aI0
aI0
aI0
aI0
aI0
aI0
aI0
aaa(lp615
(lp616
I0
aI0
aI0
aI0
aI0
aI0
aI0
aI0
aI0
aI0
aI0
aI0
aa(lp617
I0
aI0
aI0
aI0
aI0
aI0
aI0
aI0
aI0
aI0
aI0
aI0
aa(lp618
I0
aI0
aI0
aI0
aI0
aI0
aI0
aI0
aI0
aI0
aI0
aI0
aa(lp619
I0
aI0
aI0
aI0
aI0
aI0
aI0
aI0
aI0
aI0
aI0
aI0
aaa(lp620
(lp621
I0
aI0
aI0
aI0
aI0
aI0
aI0
aI0
aI0
aI0
aI0
aI0
aa(lp622
I0
aI0
aI0
aI0
aI0
aI0
aI0
aI0
aI0
aI0
aI0
aI0
aa(lp623
I0
aI0
aI0
aI0
aI0
aI0
aI0
aI0
aI0
aI0
aI0
aI0
aa(lp624
I0
aI0
aI0
aI0
aI0
aI0
aI0
aI0
aI0
aI0
aI0
aI0
aaaa(lp625
(lp626
I0
aI0
aI0
aI0
aI0
aI0
aI0
aI0
aI0
aI0
aI0
aI0
aa(lp627
I0
aI0
aI0
aI0
aI0
aI0
aI0
aI0
aI0
aI0
aI0
aI0
aa(lp628
I0
aI0
aI0
aI0
aI0
aI0
aI0
aI0
aI0
aI0
aI0
aI0
aa(lp629
I0
aI0
aI0
aI0
aI0
aI0
aI0
aI0
aI0
aI0
aI0
aI0
aaaa(lp630
(lp631
(lp632
I0
aI0
aI0
aI0
aa(lp633
(lp634
(lp635
F0.0
aI36
aI68
aI1
ag7
aa(lp636
F0.38938285533914
aI36
aI0
aI1
ag9
aa(lp637
F0.11061714466086
aI48
aI73
aI1
ag11
aa(lp638
F0.10403827282698
aI48
aI0
aI1
ag13
aa(lp639
F0.39596172717302
aI46
aI89
aI1
ag15
aa(lp640
F0.096792901324079
aI46
aI0
aI1
ag17
aa(lp641
F0.15320709867592
aI48
aI96
aI1
ag19
aa(lp642
F0.43047264370034
aI48
aI0
aI1
ag21
aa(lp643
F0.31952735629966
aI51
aI101
aI1
ag23
aa(lp644
F0.088411311533491
aI51
aI0
aI1
ag25
aa(lp645
F0.16158868846651
aI50
aI34
aI1
ag27
aa(lp646
F0.089384349865213
aI50
aI0
aI1
ag29
aa(lp647
F0.16061565013479
aI48
aI101
aI1
ag31
aa(lp648
F0.067107434641002
aI48
aI0
aI1
ag33
aa(lp649
F0.182892565359
aI46
aI67
aI1
ag35
aa(lp650
F0.10353138742448
aI46
aI0
aI1
ag37
aa(lp651
F0.14646861257552
aI45
aI96
aI1
ag39
aa(lp652
F0.07439333543789
aI45
aI0
aI1
ag41
aa(lp653
F0.17560666456211
aI43
aI60
aI1
ag43
aa(lp654
F0.096575607482009
aI43
aI0
aI1
ag45
aa(lp655
F0.15342439251799
aI41
aI106
aI1
ag47
aa(lp656
F0.11173222580692
aI41
aI0
aI1
ag49
aa(lp657
F0.13826777419308
aI39
aI56
aI1
ag51
aa(lp658
F0.089212410471191
aI39
aI0
aI1
ag53
aa(lp659
F0.16078758952881
aI31
aI70
aI1
ag55
aa(lp660
F0.40829532468342
aI31
aI0
aI1
ag57
aa(lp661
F0.091704675316578
aI43
aI111
aI1
ag59
aa(lp662
F0.10449205739769
aI43
aI0
aI1
ag61
aa(lp663
F0.39550794260231
aI41
aI70
aI1
ag63
aa(lp664
F0.11086367561347
aI41
aI0
aI1
ag65
aa(lp665
F0.13913632438653
aI43
aI113
aI1
ag67
aa(lp666
F0.44596244051354
aI43
aI0
aI1
ag69
aa(lp667
F0.30403755948646
aI46
aI111
aI1
ag71
aa(lp668
F0.089318333652045
aI46
aI0
aI1
ag73
aa(lp669
F0.16068166634795
aI45
aI66
aI1
ag75
aa(lp670
F0.10409030661413
aI45
aI0
aI1
ag77
aa(lp671
F0.14590969338587
aI43
aI113
aI1
ag79
aa(lp672
F0.096725209944452
aI43
aI0
aI1
ag81
aa(lp673
F0.15327479005555
aI41
aI57
aI1
ag83
aa(lp674
F0.11134329236666
aI41
aI0
aI1
ag85
aa(lp675
F0.13865670763334
aI39
aI111
aI1
ag87
aa(lp676
F0.089028959477218
aI39
aI0
aI1
ag89
aa(lp677
F0.16097104052278
aI38
aI72
aI1
ag91
aa(lp678
F0.12687349912267
aI38
aI0
aI1
ag93
aa(lp679
F0.12312650087733
aI36
aI106
aI1
ag95
aa(lp680
F0.10374908620361
aI36
aI0
aI1
ag97
aa(lp681
F0.14625091379639
aI34
aI80
aI1
ag99
aa(lp682
F0.11927437971372
aI34
aI0
aI1
ag101
aa(lp683
F0.13072562028628
aI0
aI0
aI0
ag103
aaa(lp684
(lp685
F0.0
aI36
aI80
aI1
ag106
aa(lp686
F0.39718249419093
aI36
aI0
aI1
ag108
aa(lp687
F0.089122684797985
aI48
aI96
aI1
ag110
aa(lp688
F0.10391098740547
aI48
aI0
aI1
ag112
aa(lp689
F0.34955784035992
aI46
aI85
aI1
ag114
aa(lp690
F0.1116042441754
aI46
aI0
aI1
ag116
aa(lp691
F0.13312122060597
aI48
aI106
aI1
ag118
aa(lp692
F0.43057920199499
aI48
aI0
aI1
ag120
aa(lp693
F0.31969792224845
aI51
aI106
aI1
ag122
aa(lp694
F0.10393402196587
aI51
aI0
aI1
ag124
aa(lp695
F0.1406512249614
aI50
aI57
aI1
ag126
aa(lp696
F0.096715414715618
aI50
aI0
aI1
ag128
aa(lp697
F0.1778514916532
aI48
aI94
aI1
ag130
aa(lp698
F0.066916507218593
aI48
aI0
aI1
ag132
aa(lp699
F0.17882964925138
aI46
aI66
aI1
ag134
aa(lp700
F0.10404397037109
aI46
aI0
aI1
ag136
aa(lp701
F0.14925343050163
aI45
aI104
aI1
ag138
aa(lp702
F0.081886506089177
aI45
aI0
aI1
ag140
aa(lp703
F0.12622449052833
aI43
aI68
aI1
ag142
aa(lp704
F0.13372831743618
aI43
aI0
aI1
ag144
aa(lp705
F0.15613246267094
aI41
aI104
aI1
ag146
aa(lp706
F0.12598751671521
aI41
aI0
aI1
ag148
aa(lp707
F0.044544471414156
aI39
aI78
aI1
ag150
aa(lp708
F0.11897076025707
aI39
aI0
aI1
ag152
aa(lp709
F0.23039769428578
aI31
aI96
aI1
ag154
aa(lp710
F0.46672963427045
aI31
aI0
aI1
ag156
aa(lp711
F0.022222640784094
aI43
aI106
aI1
ag158
aa(lp712
F0.13380503679309
aI43
aI0
aI1
ag160
aa(lp713
F0.37217254894222
aI41
aI85
aI1
ag162
aa(lp714
F0.11194357487784
aI41
aI0
aI1
ag164
aa(lp715
F0.16308653334818
aI43
aI111
aI1
ag166
aa(lp716
F0.38571119387052
aI43
aI0
aI1
ag168
aa(lp717
F0.38596619664895
aI46
aI106
aI1
ag170
aa(lp718
F0.089813210162902
aI46
aI0
aI1
ag172
aa(lp719
F0.1562341517656
aI45
aI43
aI1
ag174
aa(lp720
F0.096368120239276
aI45
aI0
aI1
ag176
aa(lp721
F0.17835759275385
aI43
aI89
aI1
ag178
aa(lp722
F0.051917509124905
aI43
aI0
aI1
ag180
aa(lp723
F0.15550453783271
aI41
aI63
aI1
ag182
aa(lp724
F0.11895248690962
aI41
aI0
aI1
ag184
aa(lp725
F0.14895420994799
aI39
aI106
aI1
ag186
aa(lp726
F0.096358734208479
aI39
aI0
aI1
ag188
aa(lp727
F0.14823343644457
aI38
aI70
aI1
ag190
aa(lp728
F0.14119500089964
aI38
aI0
aI1
ag192
aa(lp729
F0.097059194047688
aI36
aI101
aI1
ag194
aa(lp730
F0.10439860487531
aI36
aI0
aI1
ag196
aa(lp731
F0.10396850845245
aI34
aI71
aI1
ag198
aa(lp732
F0.118763989115
aI34
aI0
aI1
ag200
aa(lp733
F0.1814388278699
aI0
aI0
aI0
ag202
aaa(lp734
(lp735
F0.0
aI36
aI64
aI1
ag205
aa(lp736
F0.42199926171907
aI36
aI0
aI1
ag207
aa(lp737
F0.078000738280934
aI48
aI99
aI1
ag209
aa(lp738
F0.11131335113168
aI48
aI0
aI1
ag211
aa(lp739
F0.38868664886832
aI46
aI82
aI1
ag213
aa(lp740
F0.12626675465981
aI46
aI0
aI1
ag215
aa(lp741
F0.20706657867352
aI48
aI111
aI1
ag217
aa(lp742
F0.40955256677444
aI48
aI0
aI1
ag219
aa(lp743
F0.25711409989223
aI51
aI108
aI1
ag221
aa(lp744
F0.096588798507582
aI51
aI0
aI1
ag223
aa(lp745
F0.15341120149242
aI50
aI47
aI1
ag225
aa(lp746
F0.10398371990141
aI50
aI0
aI1
ag227
aa(lp747
F0.14601628009859
aI48
aI101
aI1
ag229
aa(lp748
F0.081727497705288
aI48
aI0
aI1
ag231
aa(lp749
F0.16827250229471
aI46
aI49
aI1
ag233
aa(lp750
F0.11869441655108
aI46
aI0
aI1
ag235
aa(lp751
F0.13130558344892
aI45
aI99
aI1
ag237
aa(lp752
F0.095965512692601
aI45
aI0
aI1
ag239
aa(lp753
F0.1540344873074
aI43
aI32
aI1
ag241
aa(lp754
F0.11896441054887
aI43
aI0
aI1
ag243
aa(lp755
F0.13103558945113
aI41
aI111
aI1
ag245
aa(lp756
F0.13482802312774
aI41
aI0
aI1
ag247
aa(lp757
F0.031838643538928
aI39
aI59
aI1
ag249
aa(lp758
F0.088596866779881
aI39
aI0
aI1
ag251
aa(lp759
F0.24473646655345
aI31
aI101
aI1
ag253
aa(lp760
F0.4460435388828
aI31
aI0
aI1
ag255
aa(lp761
F0.053956461117195
aI43
aI113
aI1
ag257
aa(lp762
F0.10389961931105
aI43
aI0
aI1
ag259
aa(lp763
F0.39610038068895
aI41
aI78
aI1
ag261
aa(lp764
F0.12652617765252
aI41
aI0
aI1
ag263
aa(lp765
F0.20680715568081
aI43
aI118
aI1
ag265
aa(lp766
F0.37110780571493
aI43
aI0
aI1
ag267
aa(lp767
F0.29555886095174
aI46
aI111
aI1
ag269
aa(lp768
F0.088795971103536
aI46
aI0
aI1
ag271
aa(lp769
F0.16120402889646
aI45
aI39
aI1
ag273
aa(lp770
F0.11169400252766
aI45
aI0
aI1
ag275
aa(lp771
F0.13830599747234
aI43
aI111
aI1
ag277
aa(lp772
F0.088824173240027
aI43
aI0
aI1
ag279
aa(lp773
F0.16117582675997
aI41
aI59
aI1
ag281
aa(lp774
F0.14059130412534
aI41
aI0
aI1
ag283
aa(lp775
F0.10940869587466
aI39
aI113
aI1
ag285
aa(lp776
F0.096059668525413
aI39
aI0
aI1
ag287
aa(lp777
F0.15394033147459
aI38
aI72
aI1
ag289
aa(lp778
F0.12653570008206
aI38
aI0
aI1
ag291
aa(lp779
F0.12346429991794
aI36
aI108
aI1
ag293
aa(lp780
F0.11136117498427
aI36
aI0
aI1
ag295
aa(lp781
F0.13863882501573
aI34
aI89
aI1
ag297
aa(lp782
F0.12620982752014
aI34
aI0
aI1
ag299
aa(lp783
F0.12379017247986
aI0
aI0
aI0
ag301
aaaI0
aa(lp784
(lp785
(lp786
F0.0
aI36
aI85
aI2
ag305
aa(lp787
F0.53878120621266
aI36
aI0
aI2
ag307
aa(lp788
F0.46121879378734
aI36
aI73
aI2
ag309
aa(lp789
F0.66853917345998
aI36
aI0
aI2
ag311
aa(lp790
F0.33146082654002
aI36
aI72
aI2
ag313
aa(lp791
F0.54307235407487
aI36
aI0
aI2
ag315
aa(lp792
F0.20692764592513
aI36
aI38
aI2
ag317
aa(lp793
F0.12681654214703
aI36
aI0
aI2
ag319
aa(lp794
F0.12318345785297
aI39
aI73
aI2
ag321
aa(lp795
F0.11843683496136
aI39
aI0
aI2
ag323
aa(lp796
F0.13156316503864
aI36
aI46
aI2
ag325
aa(lp797
F0.13385448466215
aI36
aI0
aI2
ag327
aa(lp798
F0.11614551533785
aI34
aI96
aI2
ag329
aa(lp799
F0.5
aI31
aI66
aI2
ag331
aa(lp800
F0.049734665000869
aI34
aI0
aI2
ag333
aa(lp801
F0.45389595289089
aI31
aI0
aI2
ag335
aa(lp802
F0.49636938210824
aI31
aI80
aI2
ag337
aa(lp803
F0.63934880920351
aI31
aI0
aI2
ag339
aa(lp804
F0.36065119079649
aI31
aI85
aI2
ag341
aa(lp805
F0.52075540685109
aI31
aI0
aI2
ag343
aa(lp806
F0.22924459314891
aI31
aI58
aI2
ag345
aa(lp807
F0.12623056459415
aI31
aI0
aI2
ag347
aa(lp808
F0.12376943540585
aI34
aI72
aI2
ag349
aa(lp809
F0.11868081490593
aI34
aI0
aI2
ag351
aa(lp810
F0.13131918509407
aI31
aI94
aI2
ag353
aa(lp811
F0.15640518040618
aI31
aI0
aI2
ag355
aa(lp812
F0.093594819593818
aI39
aI104
aI2
ag357
aa(lp813
F0.5
aI36
aI94
aI2
ag359
aa(lp814
F0.058699687628177
aI39
aI0
aI2
ag361
aa(lp815
F0.43096196157694
aI36
aI0
aI2
ag363
aa(lp816
F0.51033835079488
aI36
aI101
aI2
ag365
aa(lp817
F0.57294566781093
aI36
aI0
aI2
ag367
aa(lp818
F0.42705433218907
aI36
aI85
aI2
ag369
aa(lp819
F0.51962284721321
aI36
aI0
aI2
ag371
aa(lp820
F0.23037715278679
aI36
aI80
aI2
ag373
aa(lp821
F0.1192970150214
aI36
aI0
aI2
ag375
aa(lp822
F0.1307029849786
aI39
aI78
aI2
ag377
aa(lp823
F0.11073310806478
aI39
aI0
aI2
ag379
aa(lp824
F0.13926689193522
aI36
aI67
aI2
ag381
aa(lp825
F0.14143787117519
aI36
aI0
aI2
ag383
aa(lp826
F0.10856212882481
aI34
aI89
aI2
ag385
aa(lp827
F0.5
aI31
aI68
aI2
ag387
aa(lp828
F0.064561513416265
aI34
aI0
aI2
ag389
aa(lp829
F0.47862786765927
aI31
aI0
aI2
ag391
aa(lp830
F0.45681061892446
aI31
aI89
aI2
ag393
aa(lp831
F0.50573291100227
aI31
aI0
aI2
ag395
aa(lp832
F0.49426708899773
aI26
aI73
aI2
ag397
aa(lp833
F0.24650080407719
aI26
aI0
aI2
ag399
aa(lp834
F0.0034991959228137
aI29
aI53
aI2
ag401
aa(lp835
F0.25
aI31
aI101
aI2
ag403
aa(lp836
F0.10025711380149
aI29
aI0
aI2
ag405
aa(lp837
F0.14974288619851
aI34
aI99
aI2
ag407
aa(lp838
F0.11442266624999
aI31
aI0
aI2
ag409
aa(lp839
F0.38557733375001
aI31
aI73
aI2
ag411
aa(lp840
F0.057677066448377
aI34
aI0
aI2
ag413
aa(lp841
F0.19232293355162
aI34
aI63
aI2
ag415
aa(lp842
F0.061363420320049
aI31
aI0
aI2
ag417
aa(lp843
F0.10530324634662
aI36
aI45
aI2
ag419
aa(lp844
F0.15911469312353
aI34
aI0
aI2
ag421
aa(lp845
F0.15246152435035
aI36
aI0
aI2
ag423
aa(lp846
F0.021757115859449
aI0
aI0
aI0
ag425
aaa(lp847
(lp848
F0.0
aI36
aI68
aI2
aS'on'
p849
aa(lp850
F0.068323142716963
aI36
aI0
aI2
aS'off'
p851
aa(lp852
F0.18167685728304
aI36
aI65
aI2
aS'on'
p853
aa(lp854
F0.090914631708984
aI36
aI0
aI2
aS'off'
p855
aa(lp856
F0.15908536829102
aI48
aI78
aI2
aS'on'
p857
aa(lp858
F0.050004612670818
aI48
aI0
aI2
aS'off'
p859
aa(lp860
F0.19999538732918
aI48
aI72
aI2
aS'on'
p861
aa(lp862
F0.059468760706295
aI48
aI0
aI2
aS'off'
p863
aa(lp864
F0.1905312392937
aI46
aI92
aI2
aS'on'
p865
aa(lp866
F0.073217675309024
aI46
aI0
aI2
aS'off'
p867
aa(lp868
F0.17678232469098
aI48
aI106
aI2
aS'on'
p869
aa(lp870
F0.054884153856619
aI48
aI0
aI2
aS'off'
p871
aa(lp872
F0.19511584614338
aI48
aI80
aI2
aS'on'
p873
aa(lp874
F0.04072002367775
aI48
aI0
aI2
aS'off'
p875
aa(lp876
F0.20927997632225
aI48
aI87
aI2
aS'on'
p877
aa(lp878
F0.053974142845163
aI48
aI0
aI2
aS'off'
p879
aa(lp880
F0.19602585715484
aI39
aI89
aI2
aS'on'
p881
aa(lp882
F0.063295772649326
aI39
aI0
aI2
aS'off'
p883
aa(lp884
F0.18670422735067
aI41
aI69
aI2
aS'on'
p885
aa(lp886
F0.076956845705354
aI41
aI0
aI2
aS'off'
p887
aa(lp888
F0.17304315429465
aI43
aI111
aI2
aS'on'
p889
aa(lp890
F0.059543810663399
aI43
aI0
aI2
aS'off'
p891
aa(lp892
F0.1904561893366
aI46
aI82
aI2
aS'on'
p893
aa(lp894
F0.063749376889518
aI46
aI0
aI2
aS'off'
p895
aa(lp896
F0.18625062311048
aI46
aI82
aI2
aS'on'
p897
aa(lp898
F0.067799336279677
aI46
aI0
aI2
aS'off'
p899
aa(lp900
F0.18220066372032
aI43
aI106
aI2
aS'on'
p901
aa(lp902
F0.058919328534103
aI43
aI0
aI2
aS'off'
p903
aa(lp904
F0.1910806714659
aI48
aI99
aI2
aS'on'
p905
aa(lp906
F0.054826555661748
aI48
aI0
aI2
aS'off'
p907
aa(lp908
F0.19517344433825
aI48
aI104
aI2
aS'on'
p909
aa(lp910
F0.063276250471972
aI48
aI0
aI2
aS'off'
p911
aa(lp912
F0.18672374952803
aI36
aI94
aI2
aS'on'
p913
aa(lp914
F0.077284656571919
aI36
aI0
aI2
aS'off'
p915
aa(lp916
F0.17271534342808
aI36
aI92
aI2
aS'on'
p917
aa(lp918
F0.072628978193734
aI36
aI0
aI2
aS'off'
p919
aa(lp920
F0.17737102180627
aI48
aI73
aI2
aS'on'
p921
aa(lp922
F0.049940868363592
aI48
aI0
aI2
aS'off'
p923
aa(lp924
F0.20005913163641
aI48
aI101
aI2
aS'on'
p925
aa(lp926
F0.049737670630748
aI48
aI0
aI2
aS'off'
p927
aa(lp928
F0.20026232936925
aI46
aI68
aI2
aS'on'
p929
aa(lp930
F0.063618787863561
aI46
aI0
aI2
aS'off'
p931
aa(lp932
F0.18638121213644
aI48
aI106
aI2
aS'on'
p933
aa(lp934
F0.045426187539306
aI48
aI0
aI2
aS'off'
p935
aa(lp936
F0.20457381246069
aI48
aI89
aI2
aS'on'
p937
aa(lp938
F0.040533105280701
aI48
aI0
aI2
aS'off'
p939
aa(lp940
F0.2094668947193
aI48
aI89
aI2
aS'on'
p941
aa(lp942
F0.049610186359132
aI48
aI0
aI2
aS'off'
p943
aa(lp944
F0.20038981364087
aI51
aI94
aI2
aS'on'
p945
aa(lp946
F0.054507480662778
aI51
aI0
aI2
aS'off'
p947
aa(lp948
F0.19549251933722
aI51
aI85
aI2
aS'on'
p949
aa(lp950
F0.045660867052902
aI51
aI0
aI2
aS'off'
p951
aa(lp952
F0.2043391329471
aI50
aI106
aI2
aS'on'
p953
aa(lp954
F0.058858431048975
aI50
aI0
aI2
aS'off'
p955
aa(lp956
F0.19114156895102
aI50
aI101
aI2
aS'on'
p957
aa(lp958
F0.049883749560649
aI50
aI0
aI2
aS'off'
p959
aa(lp960
F0.20011625043935
aI48
aI96
aI2
aS'on'
p961
aa(lp962
F0.054906746918277
aI48
aI0
aI2
aS'off'
p963
aa(lp964
F0.19509325308172
aI48
aI96
aI2
aS'on'
p965
aa(lp966
F0.050397322031131
aI48
aI0
aI2
aS'off'
p967
aa(lp968
F0.19960267796887
aI46
aI89
aI2
aS'on'
p969
aa(lp970
F0.068112496177491
aI46
aI0
aI2
aS'off'
p971
aa(lp972
F0.18188750382251
aI46
aI70
aI2
aS'on'
p973
aa(lp974
F0.063727803403253
aI46
aI0
aI2
aS'off'
p975
aa(lp976
F0.18627219659675
aI36
aI101
aI2
aS'on'
p977
aa(lp978
F0.068167774707945
aI36
aI0
aI2
aS'off'
p979
aa(lp980
F0.18183222529206
aI36
aI80
aI2
aS'on'
p981
aa(lp982
F0.077242400641808
aI36
aI0
aI2
aS'off'
p983
aa(lp984
F0.17275759935819
aI48
aI85
aI2
aS'on'
p985
aa(lp986
F0.050058202041328
aI48
aI0
aI2
aS'off'
p987
aa(lp988
F0.19994179795867
aI48
aI101
aI2
aS'on'
p989
aa(lp990
F0.054569086814354
aI48
aI0
aI2
aS'off'
p991
aa(lp992
F0.19543091318565
aI46
aI73
aI2
aS'on'
p993
aa(lp994
F0.063733524836607
aI46
aI0
aI2
aS'off'
p995
aa(lp996
F0.18626647516339
aI48
aI111
aI2
aS'on'
p997
aa(lp998
F0.04985036063681
aI48
aI0
aI2
aS'off'
p999
aa(lp1000
F0.20014963936319
aI48
aI94
aI2
aS'on'
p1001
aa(lp1002
F0.036478022827851
aI48
aI0
aI2
aS'off'
p1003
aa(lp1004
F0.21352197717215
aI48
aI85
aI2
aS'on'
p1005
aa(lp1006
F0.040634174385559
aI48
aI0
aI2
aS'off'
p1007
aa(lp1008
F0.20936582561444
aI39
aI99
aI2
aS'on'
p1009
aa(lp1010
F0.067938110568775
aI39
aI0
aI2
aS'off'
p1011
aa(lp1012
F0.18206188943122
aI41
aI68
aI2
aS'on'
p1013
aa(lp1014
F0.059478622970801
aI41
aI0
aI2
aS'off'
p1015
aa(lp1016
F0.1905213770292
aI43
aI101
aI2
aS'on'
p1017
aa(lp1018
F0.059145562246158
aI43
aI0
aI2
aS'off'
p1019
aa(lp1020
F0.19085443775384
aI46
aI82
aI2
aS'on'
p1021
aa(lp1022
F0.054639627711822
aI46
aI0
aI2
aS'off'
p1023
aa(lp1024
F0.19536037228818
aI46
aI71
aI2
aS'on'
p1025
aa(lp1026
F0.054559406926728
aI46
aI0
aI2
aS'off'
p1027
aa(lp1028
F0.19544059307327
aI43
aI106
aI2
aS'on'
p1029
aa(lp1030
F0.058698326443846
aI43
aI0
aI2
aS'off'
p1031
aa(lp1032
F0.19130167355615
aI48
aI108
aI2
aS'on'
p1033
aa(lp1034
F0.04967814618476
aI48
aI0
aI2
aS'off'
p1035
aa(lp1036
F0.20032185381524
aI48
aI94
aI2
aS'on'
p1037
aa(lp1038
F0.036057748456187
aI48
aI0
aI2
aS'off'
p1039
aa(lp1040
F0.21394225154381
aI36
aI101
aI2
aS'on'
p1041
aa(lp1042
F0.06346856549726
aI36
aI0
aI2
aS'off'
p1043
aa(lp1044
F0.18653143450274
aI36
aI80
aI2
aS'on'
p1045
aa(lp1046
F0.063698108051994
aI36
aI0
aI2
aS'off'
p1047
aa(lp1048
F0.18630189194801
aI48
aI101
aI2
aS'on'
p1049
aa(lp1050
F0.050048604658059
aI48
aI0
aI2
aS'off'
p1051
aa(lp1052
F0.19995139534194
aI48
aI104
aI2
aS'on'
p1053
aa(lp1054
F0.044930287419902
aI48
aI0
aI2
aS'off'
p1055
aa(lp1056
F0.2050697125801
aI46
aI85
aI2
aS'on'
p1057
aa(lp1058
F0.063296317175173
aI46
aI0
aI2
aS'off'
p1059
aa(lp1060
F0.18670368282483
aI48
aI111
aI2
aS'on'
p1061
aa(lp1062
F0.045390094222967
aI48
aI0
aI2
aS'off'
p1063
aa(lp1064
F0.20460990577703
aI48
aI101
aI2
aS'on'
p1065
aa(lp1066
F0.040607829564124
aI48
aI0
aI2
aS'off'
p1067
aa(lp1068
F0.20939217043588
aI48
aI101
aI2
aS'on'
p1069
aa(lp1070
F0.059020999483892
aI48
aI0
aI2
aS'off'
p1071
aa(lp1072
F0.19097900051611
aI36
aI82
aI2
aS'on'
p1073
aa(lp1074
F0.081691531625438
aI36
aI0
aI2
aS'off'
p1075
aa(lp1076
F0.16830846837456
aI39
aI69
aI2
aS'on'
p1077
aa(lp1078
F0.072233977828091
aI39
aI0
aI2
aS'off'
p1079
aa(lp1080
F0.17776602217191
aI41
aI94
aI2
aS'on'
p1081
aa(lp1082
F0.068314223603011
aI41
aI0
aI2
aS'off'
p1083
aa(lp1084
F0.18168577639699
aI42
aI80
aI2
aS'on'
p1085
aa(lp1086
F0.072553784941192
aI42
aI0
aI2
aS'off'
p1087
aa(lp1088
F0.17744621505881
aI43
aI70
aI2
aS'on'
p1089
aa(lp1090
F0.067959481702928
aI43
aI0
aI2
aS'off'
p1091
aa(lp1092
F0.18204051829707
aI46
aI72
aI2
aS'on'
p1093
aa(lp1094
F0.077096777655242
aI46
aI0
aI2
aS'off'
p1095
aa(lp1096
F0.17290322234476
aI47
aI71
aI2
aS'on'
p1097
aa(lp1098
F0.072823173441066
aI47
aI0
aI2
aS'off'
p1099
aa(lp1100
F0.17717682655893
aI48
aI94
aI2
aS'on'
p1101
aa(lp1102
F0.077292488369949
aI48
aI0
aI2
aS'off'
p1103
aa(lp1104
F0.17270751163005
aI0
aI0
aI0
aS'timeAfterLastHit'
p1105
aaaI0
aI0
aa(lp1106
(lp1107
(lp1108
F0.0
aI36
aI78
aI3
ag429
aa(lp1109
F0.74852806654587
aI36
aI0
aI3
ag431
aa(lp1110
F0.25147193345413
aI38
aI99
aI3
ag433
aa(lp1111
F0.31199060490258
aI38
aI0
aI3
ag435
aa(lp1112
F0.18800939509742
aI36
aI99
aI3
ag437
aa(lp1113
F0.43137179581936
aI36
aI0
aI3
ag439
aa(lp1114
F0.31862820418064
aI36
aI106
aI3
ag441
aa(lp1115
F0.60918132029553
aI36
aI0
aI3
ag443
aa(lp1116
F0.14081867970447
aI40
aI111
aI3
ag445
aa(lp1117
F0.53502309453688
aI40
aI0
aI3
ag447
aa(lp1118
F0.46497690546312
aI36
aI92
aI3
ag449
aa(lp1119
F0.66883410167543
aI36
aI0
aI3
ag451
aa(lp1120
F0.33116589832457
aI38
aI108
aI3
ag453
aa(lp1121
F0.36366882567506
aI38
aI0
aI3
ag455
aa(lp1122
F0.13633117432494
aI36
aI106
aI3
ag457
aa(lp1123
F0.40814834365949
aI36
aI0
aI3
ag459
aa(lp1124
F0.34185165634051
aI36
aI94
aI3
ag461
aa(lp1125
F0.47604323438873
aI36
aI0
aI3
ag463
aa(lp1126
F0.27395676561127
aI38
aI118
aI3
ag465
aa(lp1127
F0.11895540672401
aI38
aI0
aI3
ag467
aa(lp1128
F0.13104459327599
aI38
aI111
aI3
ag469
aa(lp1129
F0.14115638262922
aI38
aI0
aI3
ag471
aa(lp1130
F0.10884361737078
aI38
aI113
aI3
ag473
aa(lp1131
F0.11929517077931
aI38
aI0
aI3
ag475
aa(lp1132
F0.13070482922069
aI38
aI108
aI3
ag477
aa(lp1133
F0.1419342580333
aI38
aI0
aI3
ag479
aa(lp1134
F0.1080657419667
aI0
aI0
aI0
ag481
aaa(lp1135
(lp1136
F0.5
aI37
aI113
aI3
ag484
aa(lp1137
F0.14129695000884
aI37
aI0
aI3
ag486
aa(lp1138
F0.60870304999116
aI40
aI118
aI3
ag488
aa(lp1139
F0.32023817167646
aI40
aI0
aI3
ag490
aa(lp1140
F2.6797618283235
aI40
aI118
aI3
ag492
aa(lp1141
F0.14823458163482
aI40
aI0
aI3
ag494
aa(lp1142
F1.1017654183652
aI37
aI99
aI3
ag496
aa(lp1143
F0.26056305904604
aI37
aI0
aI3
ag498
aa(lp1144
F2.739436940954
aI37
aI115
aI3
ag500
aa(lp1145
F0.22257264094333
aI37
aI0
aI3
ag502
aa(lp1146
F0.52742735905667
aI40
aI122
aI3
ag504
aa(lp1147
F0.3713139317988
aI40
aI0
aI3
ag506
aa(lp1148
F2.8786860682012
aI37
aI113
aI3
ag508
aa(lp1149
F0.13342006605853
aI37
aI0
aI3
ag510
aa(lp1150
F3.6165799339415
aI40
aI118
aI3
ag512
aa(lp1151
F0.16323781381652
aI40
aI0
aI3
ag514
aa(lp1152
F1.0867621861835
aI37
aI111
aI3
ag516
aa(lp1153
F0.35607607302336
aI37
aI0
aI3
ag518
aa(lp1154
F2.3939239269766
aI37
aI108
aI3
ag520
aa(lp1155
F0.25243610688085
aI37
aI0
aI3
ag522
aa(lp1156
F2.9975638931191
aI37
aI113
aI3
ag524
aa(lp1157
F0.31965196820966
aI37
aI0
aI3
ag526
aa(lp1158
F0.68034803179034
aI40
aI115
aI3
ag528
aa(lp1159
F0.11134762733127
aI40
aI0
aI3
ag530
aa(lp1160
F0.63865237266873
aI37
aI118
aI3
ag532
aa(lp1161
F0.096868684349829
aI37
aI0
aI3
ag534
aa(lp1162
F3.1531313156502
aI37
aI106
aI3
ag536
aa(lp1163
F0.13251384244904
aI37
aI0
aI3
ag538
aa(lp1164
F0.36748615755096
aI0
aI0
aI0
ag540
aaa(lp1165
(lp1166
F0.0
aI50
aI113
aI3
ag543
aa(lp1167
F0.097908355492109
aI50
aI0
aI3
ag545
aa(lp1168
F4.4020916445079
aI51
aI11
aI3
ag547
aa(lp1169
F0.059431128420329
aI51
aI0
aI3
ag549
aa(lp1170
F4.9405688715797
aI49
aI8
aI3
ag551
aa(lp1171
F0.036725710948303
aI49
aI0
aI3
ag553
aa(lp1172
F0.7132742890517
aI51
aI45
aI3
ag555
aa(lp1173
F0.081812376913149
aI51
aI0
aI3
ag557
aa(lp1174
F3.1681876230869
aI49
aI36
aI3
ag559
aa(lp1175
F0.03690305946111
aI49
aI0
aI3
ag561
aa(lp1176
F2.4630969405389
aI50
aI101
aI3
ag563
aa(lp1177
F0.10423679176711
aI50
aI0
aI3
ag565
aa(lp1178
F0.89576320823289
aI0
aI0
aI0
ag567
aaaI0
aaa(lp1179
(lp1180
(dp1181
a(dp1182
a(dp1183
a(dp1184
aa(lp1185
(dp1186
g576
g577
sg578
I1
sa(dp1187
g576
g580
sg578
I0
sa(dp1188
g576
g582
sg578
I0
sa(dp1189
aa(lp1190
(dp1191
g576
g586
sg578
I0
sa(dp1192
S'button'
p1193
I20
sS'playing'
p1194
I1
sa(dp1195
a(dp1196
aa(lp1197
(dp1198
g576
g592
sg578
I1
sa(dp1199
g576
g594
sg578
I0
sa(dp1200
g576
g596
sg578
I1
sa(dp1201
aaa(lp1202
I60
aI60
aI36
aI36
aa(lp1203
(lp1204
I0
aI2
aI3
aI5
aI7
aI8
aI10
aa(lp1205
I0
aI2
aI3
aI5
aI7
aI8
aI10
aa(lp1206
I0
aI2
aI3
aI5
aI7
aI8
aI10
aa(lp1207
I0
aI1
aI2
aI3
aI4
aI5
aI6
aI7
aI8
aI9
aI10
aI11
aaa(lp1208
(lp1209
(lp1210
I0
aI0
aI0
aI0
aI0
aI0
aI0
aI0
aI0
aI0
aI0
aI0
aa(lp1211
I0
aI0
aI0
aI0
aI0
aI0
aI0
aI0
aI0
aI0
aI0
aI0
aa(lp1212
I0
aI0
aI0
aI0
aI0
aI0
aI0
aI0
aI0
aI0
aI0
aI0
aa(lp1213
I0
aI0
aI0
aI0
aI0
aI0
aI0
aI0
aI0
aI0
aI0
aI0
aaa(lp1214
(lp1215
I0
aI0
aI0
aI0
aI0
aI0
aI0
aI0
aI0
aI0
aI0
aI0
aa(lp1216
I0
aI0
aI0
aI0
aI0
aI0
aI0
aI0
aI0
aI0
aI0
aI0
aa(lp1217
I0
aI0
aI0
aI0
aI0
aI0
aI0
aI0
aI0
aI0
aI0
aI0
aa(lp1218
I0
aI0
aI0
aI0
aI0
aI0
aI0
aI0
aI0
aI0
aI0
aI0
aaa(lp1219
(lp1220
I0
aI0
aI0
aI0
aI0
aI0
aI0
aI0
aI0
aI0
aI0
aI0
aa(lp1221
I0
aI0
aI0
aI0
aI0
aI0
aI0
aI0
aI0
aI0
aI0
aI0
aa(lp1222
I0
aI0
aI0
aI0
aI0
aI0
aI0
aI0
aI0
aI0
aI0
aI0
aa(lp1223
I0
aI0
aI0
aI0
aI0
aI0
aI0
aI0
aI0
aI0
aI0
aI0
aaa(lp1224
(lp1225
I0
aI0
aI0
aI0
aI0
aI0
aI0
aI0
aI0
aI0
aI0
aI0
aa(lp1226
I0
aI0
aI0
aI0
aI0
aI0
aI0
aI0
aI0
aI0
aI0
aI0
aa(lp1227
I0
aI0
aI0
aI0
aI0
aI0
aI0
aI0
aI0
aI0
aI0
aI0
aa(lp1228
I0
aI0
aI0
aI0
aI0
aI0
aI0
aI0
aI0
aI0
aI0
aI0
aaaa(lp1229
(lp1230
I0
aI0
aI0
aI0
aI0
aI0
aI0
aI0
aI0
aI0
aI0
aI0
aa(lp1231
I0
aI0
aI0
aI0
aI0
aI0
aI0
aI0
aI0
aI0
aI0
aI0
aa(lp1232
I0
aI0
aI0
aI0
aI0
aI0
aI0
aI0
aI0
aI0
aI0
aI0
aa(lp1233
I0
aI0
aI0
aI0
aI0
aI0
aI0
aI0
aI0
aI0
aI0
aI0
aaaa(lp1234
(lp1235
(lp1236
I0
aI0
aI0
aI0
aa(lp1237
(lp1238
(lp1239
F0.0
aI36
aI68
aI1
ag7
aa(lp1240
F0.38938285533914
aI36
aI0
aI1
ag9
aa(lp1241
F0.11061714466086
aI48
aI73
aI1
ag11
aa(lp1242
F0.10403827282698
aI48
aI0
aI1
ag13
aa(lp1243
F0.39596172717302
aI46
aI89
aI1
ag15
aa(lp1244
F0.096792901324079
aI46
aI0
aI1
ag17
aa(lp1245
F0.15320709867592
aI48
aI96
aI1
ag19
aa(lp1246
F0.43047264370034
aI48
aI0
aI1
ag21
aa(lp1247
F0.31952735629966
aI51
aI101
aI1
ag23
aa(lp1248
F0.088411311533491
aI51
aI0
aI1
ag25
aa(lp1249
F0.16158868846651
aI50
aI34
aI1
ag27
aa(lp1250
F0.089384349865213
aI50
aI0
aI1
ag29
aa(lp1251
F0.16061565013479
aI48
aI101
aI1
ag31
aa(lp1252
F0.067107434641002
aI48
aI0
aI1
ag33
aa(lp1253
F0.182892565359
aI46
aI67
aI1
ag35
aa(lp1254
F0.10353138742448
aI46
aI0
aI1
ag37
aa(lp1255
F0.14646861257552
aI45
aI96
aI1
ag39
aa(lp1256
F0.07439333543789
aI45
aI0
aI1
ag41
aa(lp1257
F0.17560666456211
aI43
aI60
aI1
ag43
aa(lp1258
F0.096575607482009
aI43
aI0
aI1
ag45
aa(lp1259
F0.15342439251799
aI41
aI106
aI1
ag47
aa(lp1260
F0.11173222580692
aI41
aI0
aI1
ag49
aa(lp1261
F0.13826777419308
aI39
aI56
aI1
ag51
aa(lp1262
F0.089212410471191
aI39
aI0
aI1
ag53
aa(lp1263
F0.16078758952881
aI31
aI70
aI1
ag55
aa(lp1264
F0.40829532468342
aI31
aI0
aI1
ag57
aa(lp1265
F0.091704675316578
aI43
aI111
aI1
ag59
aa(lp1266
F0.10449205739769
aI43
aI0
aI1
ag61
aa(lp1267
F0.39550794260231
aI41
aI70
aI1
ag63
aa(lp1268
F0.11086367561347
aI41
aI0
aI1
ag65
aa(lp1269
F0.13913632438653
aI43
aI113
aI1
ag67
aa(lp1270
F0.44596244051354
aI43
aI0
aI1
ag69
aa(lp1271
F0.30403755948646
aI46
aI111
aI1
ag71
aa(lp1272
F0.089318333652045
aI46
aI0
aI1
ag73
aa(lp1273
F0.16068166634795
aI45
aI66
aI1
ag75
aa(lp1274
F0.10409030661413
aI45
aI0
aI1
ag77
aa(lp1275
F0.14590969338587
aI43
aI113
aI1
ag79
aa(lp1276
F0.096725209944452
aI43
aI0
aI1
ag81
aa(lp1277
F0.15327479005555
aI41
aI57
aI1
ag83
aa(lp1278
F0.11134329236666
aI41
aI0
aI1
ag85
aa(lp1279
F0.13865670763334
aI39
aI111
aI1
ag87
aa(lp1280
F0.089028959477218
aI39
aI0
aI1
ag89
aa(lp1281
F0.16097104052278
aI38
aI72
aI1
ag91
aa(lp1282
F0.12687349912267
aI38
aI0
aI1
ag93
aa(lp1283
F0.12312650087733
aI36
aI106
aI1
ag95
aa(lp1284
F0.10374908620361
aI36
aI0
aI1
ag97
aa(lp1285
F0.14625091379639
aI34
aI80
aI1
ag99
aa(lp1286
F0.11927437971372
aI34
aI0
aI1
ag101
aa(lp1287
F0.13072562028628
aI0
aI0
aI0
ag103
aaa(lp1288
(lp1289
F0.0
aI36
aI80
aI1
ag106
aa(lp1290
F0.39718249419093
aI36
aI0
aI1
ag108
aa(lp1291
F0.089122684797985
aI48
aI96
aI1
ag110
aa(lp1292
F0.10391098740547
aI48
aI0
aI1
ag112
aa(lp1293
F0.34955784035992
aI46
aI85
aI1
ag114
aa(lp1294
F0.1116042441754
aI46
aI0
aI1
ag116
aa(lp1295
F0.13312122060597
aI48
aI106
aI1
ag118
aa(lp1296
F0.43057920199499
aI48
aI0
aI1
ag120
aa(lp1297
F0.31969792224845
aI51
aI106
aI1
ag122
aa(lp1298
F0.10393402196587
aI51
aI0
aI1
ag124
aa(lp1299
F0.1406512249614
aI50
aI57
aI1
ag126
aa(lp1300
F0.096715414715618
aI50
aI0
aI1
ag128
aa(lp1301
F0.1778514916532
aI48
aI94
aI1
ag130
aa(lp1302
F0.066916507218593
aI48
aI0
aI1
ag132
aa(lp1303
F0.17882964925138
aI46
aI66
aI1
ag134
aa(lp1304
F0.10404397037109
aI46
aI0
aI1
ag136
aa(lp1305
F0.14925343050163
aI45
aI104
aI1
ag138
aa(lp1306
F0.081886506089177
aI45
aI0
aI1
ag140
aa(lp1307
F0.12622449052833
aI43
aI68
aI1
ag142
aa(lp1308
F0.13372831743618
aI43
aI0
aI1
ag144
aa(lp1309
F0.15613246267094
aI41
aI104
aI1
ag146
aa(lp1310
F0.12598751671521
aI41
aI0
aI1
ag148
aa(lp1311
F0.044544471414156
aI39
aI78
aI1
ag150
aa(lp1312
F0.11897076025707
aI39
aI0
aI1
ag152
aa(lp1313
F0.23039769428578
aI31
aI96
aI1
ag154
aa(lp1314
F0.46672963427045
aI31
aI0
aI1
ag156
aa(lp1315
F0.022222640784094
aI43
aI106
aI1
ag158
aa(lp1316
F0.13380503679309
aI43
aI0
aI1
ag160
aa(lp1317
F0.37217254894222
aI41
aI85
aI1
ag162
aa(lp1318
F0.11194357487784
aI41
aI0
aI1
ag164
aa(lp1319
F0.16308653334818
aI43
aI111
aI1
ag166
aa(lp1320
F0.38571119387052
aI43
aI0
aI1
ag168
aa(lp1321
F0.38596619664895
aI46
aI106
aI1
ag170
aa(lp1322
F0.089813210162902
aI46
aI0
aI1
ag172
aa(lp1323
F0.1562341517656
aI45
aI43
aI1
ag174
aa(lp1324
F0.096368120239276
aI45
aI0
aI1
ag176
aa(lp1325
F0.17835759275385
aI43
aI89
aI1
ag178
aa(lp1326
F0.051917509124905
aI43
aI0
aI1
ag180
aa(lp1327
F0.15550453783271
aI41
aI63
aI1
ag182
aa(lp1328
F0.11895248690962
aI41
aI0
aI1
ag184
aa(lp1329
F0.14895420994799
aI39
aI106
aI1
ag186
aa(lp1330
F0.096358734208479
aI39
aI0
aI1
ag188
aa(lp1331
F0.14823343644457
aI38
aI70
aI1
ag190
aa(lp1332
F0.14119500089964
aI38
aI0
aI1
ag192
aa(lp1333
F0.097059194047688
aI36
aI101
aI1
ag194
aa(lp1334
F0.10439860487531
aI36
aI0
aI1
ag196
aa(lp1335
F0.10396850845245
aI34
aI71
aI1
ag198
aa(lp1336
F0.118763989115
aI34
aI0
aI1
ag200
aa(lp1337
F0.1814388278699
aI0
aI0
aI0
ag202
aaa(lp1338
(lp1339
F0.0
aI36
aI64
aI1
ag205
aa(lp1340
F0.42199926171907
aI36
aI0
aI1
ag207
aa(lp1341
F0.078000738280934
aI48
aI99
aI1
ag209
aa(lp1342
F0.11131335113168
aI48
aI0
aI1
ag211
aa(lp1343
F0.38868664886832
aI46
aI82
aI1
ag213
aa(lp1344
F0.12626675465981
aI46
aI0
aI1
ag215
aa(lp1345
F0.20706657867352
aI48
aI111
aI1
ag217
aa(lp1346
F0.40955256677444
aI48
aI0
aI1
ag219
aa(lp1347
F0.25711409989223
aI51
aI108
aI1
ag221
aa(lp1348
F0.096588798507582
aI51
aI0
aI1
ag223
aa(lp1349
F0.15341120149242
aI50
aI47
aI1
ag225
aa(lp1350
F0.10398371990141
aI50
aI0
aI1
ag227
aa(lp1351
F0.14601628009859
aI48
aI101
aI1
ag229
aa(lp1352
F0.081727497705288
aI48
aI0
aI1
ag231
aa(lp1353
F0.16827250229471
aI46
aI49
aI1
ag233
aa(lp1354
F0.11869441655108
aI46
aI0
aI1
ag235
aa(lp1355
F0.13130558344892
aI45
aI99
aI1
ag237
aa(lp1356
F0.095965512692601
aI45
aI0
aI1
ag239
aa(lp1357
F0.1540344873074
aI43
aI32
aI1
ag241
aa(lp1358
F0.11896441054887
aI43
aI0
aI1
ag243
aa(lp1359
F0.13103558945113
aI41
aI111
aI1
ag245
aa(lp1360
F0.13482802312774
aI41
aI0
aI1
ag247
aa(lp1361
F0.031838643538928
aI39
aI59
aI1
ag249
aa(lp1362
F0.088596866779881
aI39
aI0
aI1
ag251
aa(lp1363
F0.24473646655345
aI31
aI101
aI1
ag253
aa(lp1364
F0.4460435388828
aI31
aI0
aI1
ag255
aa(lp1365
F0.053956461117195
aI43
aI113
aI1
ag257
aa(lp1366
F0.10389961931105
aI43
aI0
aI1
ag259
aa(lp1367
F0.39610038068895
aI41
aI78
aI1
ag261
aa(lp1368
F0.12652617765252
aI41
aI0
aI1
ag263
aa(lp1369
F0.20680715568081
aI43
aI118
aI1
ag265
aa(lp1370
F0.37110780571493
aI43
aI0
aI1
ag267
aa(lp1371
F0.29555886095174
aI46
aI111
aI1
ag269
aa(lp1372
F0.088795971103536
aI46
aI0
aI1
ag271
aa(lp1373
F0.16120402889646
aI45
aI39
aI1
ag273
aa(lp1374
F0.11169400252766
aI45
aI0
aI1
ag275
aa(lp1375
F0.13830599747234
aI43
aI111
aI1
ag277
aa(lp1376
F0.088824173240027
aI43
aI0
aI1
ag279
aa(lp1377
F0.16117582675997
aI41
aI59
aI1
ag281
aa(lp1378
F0.14059130412534
aI41
aI0
aI1
ag283
aa(lp1379
F0.10940869587466
aI39
aI113
aI1
ag285
aa(lp1380
F0.096059668525413
aI39
aI0
aI1
ag287
aa(lp1381
F0.15394033147459
aI38
aI72
aI1
ag289
aa(lp1382
F0.12653570008206
aI38
aI0
aI1
ag291
aa(lp1383
F0.12346429991794
aI36
aI108
aI1
ag293
aa(lp1384
F0.11136117498427
aI36
aI0
aI1
ag295
aa(lp1385
F0.13863882501573
aI34
aI89
aI1
ag297
aa(lp1386
F0.12620982752014
aI34
aI0
aI1
ag299
aa(lp1387
F0.12379017247986
aI0
aI0
aI0
ag301
aaaI0
aa(lp1388
(lp1389
(lp1390
F0.0
aI36
aI96
aI2
aS'on'
p1391
aa(lp1392
F0.54912335911968
aI36
aI0
aI2
aS'off'
p1393
aa(lp1394
F0.43101273115371
aI36
aI85
aI2
aS'on'
p1395
aa(lp1396
F0.5660612506822
aI36
aI0
aI2
aS'off'
p1397
aa(lp1398
F0.43039949347894
aI36
aI69
aI2
aS'on'
p1399
aa(lp1400
F0.47449117490714
aI36
aI0
aI2
aS'off'
p1401
aa(lp1402
F0.23727510670233
aI36
aI85
aI2
aS'on'
p1403
aa(lp1404
F0.12633309766579
aI36
aI0
aI2
aS'off'
p1405
aa(lp1406
F0.12624746115307
aI39
aI71
aI2
aS'on'
p1407
aa(lp1408
F0.081901028434913
aI39
aI0
aI2
aS'off'
p1409
aa(lp1410
F0.11216106621305
aI36
aI73
aI2
aS'on'
p1411
aa(lp1412
F0.17080115236058
aI36
aI0
aI2
aS'off'
p1413
aa(lp1414
F0.15565555828789
aI34
aI94
aI2
aS'on'
p1415
aa(lp1416
F0.49794341545476
aI31
aI85
aI2
aS'on'
p1417
aa(lp1418
F0.014508658305658
aI34
aI0
aI2
aS'off'
p1419
aa(lp1420
F0.47608233432175
aI31
aI0
aI2
aS'off'
p1421
aa(lp1422
F0.46038894477215
aI31
aI73
aI2
aS'on'
p1423
aa(lp1424
F0.56344123972985
aI31
aI0
aI2
aS'off'
p1425
aa(lp1426
F0.4678081979514
aI31
aI73
aI2
aS'on'
p1427
aa(lp1428
F0.38626002513729
aI31
aI0
aI2
aS'off'
p1429
aa(lp1430
F0.39303108528111
aI31
aI72
aI2
aS'on'
p1431
aa(lp1432
F0.14833351715561
aI31
aI0
aI2
aS'off'
p1433
aa(lp1434
F0.1265720137585
aI34
aI73
aI2
aS'on'
p1435
aa(lp1436
F0.11923380637563
aI34
aI0
aI2
aS'off'
p1437
aa(lp1438
F0.11092727498817
aI31
aI70
aI2
aS'on'
p1439
aa(lp1440
F0.14121206227537
aI31
aI0
aI2
aS'off'
p1441
aa(lp1442
F0.11926901180323
aI39
aI68
aI2
aS'on'
p1443
aa(lp1444
F0.51246700246384
aI36
aI106
aI2
aS'on'
p1445
aa(lp1446
F0.00024388901283601
aI39
aI0
aI2
aS'off'
p1447
aa(lp1448
F0.48293460081777
aI36
aI0
aI2
aS'off'
p1449
aa(lp1450
F0.50427773251431
aI36
aI68
aI2
aS'on'
p1451
aa(lp1452
F0.49875203486681
aI36
aI0
aI2
aS'off'
p1453
aa(lp1454
F0.48294524002404
aI36
aI72
aI2
aS'on'
p1455
aa(lp1456
F0.49812803863642
aI36
aI0
aI2
aS'off'
p1457
aa(lp1458
F0.20004584931212
aI36
aI65
aI2
aS'on'
p1459
aa(lp1460
F0.14876155479078
aI36
aI0
aI2
aS'off'
p1461
aa(lp1462
F0.12583324112938
aI39
aI70
aI2
aS'on'
p1463
aa(lp1464
F0.11142615967356
aI39
aI0
aI2
aS'off'
p1465
aa(lp1466
F0.074591288883767
aI36
aI51
aI2
aS'on'
p1467
aa(lp1468
F0.14811395424385
aI36
aI0
aI2
aS'off'
p1469
aa(lp1470
F0.17835908036704
aI34
aI51
aI2
aS'on'
p1471
aa(lp1472
F0.52715787137504
aI31
aI72
aI2
aS'on'
p1473
aa(lp1474
F0.03004037540768
aI34
aI0
aI2
aS'off'
p1475
aa(lp1476
F0.45360724826332
aI31
aI0
aI2
aS'off'
p1477
aa(lp1478
F0.48247796747592
aI31
aI89
aI2
aS'on'
p1479
aa(lp1480
F0.53484146931578
aI31
aI0
aI2
aS'off'
p1481
aa(lp1482
F0.47469934699257
aI31
aI82
aI2
aS'on'
p1483
aa(lp1484
F0.45348507784456
aI31
aI0
aI2
aS'off'
p1485
aa(lp1486
F0.31152963233308
aI31
aI80
aI2
aS'on'
p1487
aa(lp1488
F0.14863572572449
aI31
aI0
aI2
aS'off'
p1489
aa(lp1490
F0.13383919506532
aI34
aI62
aI2
aS'on'
p1491
aa(lp1492
F0.10357755174573
aI34
aI0
aI2
aS'off'
p1493
aa(lp1494
F0.097248326955651
aI31
aI75
aI2
aS'on'
p1495
aa(lp1496
F0.11853429849634
aI31
aI0
aI2
aS'off'
p1497
aa(lp1498
F0.11926734658573
aI34
aI62
aI2
aS'on'
p1499
aa(lp1500
F0.26791528437843
aI36
aI28
aI2
aS'on'
p1501
aa(lp1502
F0.066561406680648
aI34
aI0
aI2
aS'off'
p1503
aa(lp1504
F0.20846796697424
aI36
aI0
aI2
aS'off'
p1505
aa(lp1506
F0.014760174179173
aI0
aI0
aI0
aS'timeAfterLastHit'
p1507
aaaI0
aI0
aI0
aa(lp1508
(lp1509
(lp1510
F0.0
aI36
aI78
aI3
ag429
aa(lp1511
F0.74852806654587
aI36
aI0
aI3
ag431
aa(lp1512
F0.25147193345413
aI38
aI99
aI3
ag433
aa(lp1513
F0.31199060490258
aI38
aI0
aI3
ag435
aa(lp1514
F0.18800939509742
aI36
aI99
aI3
ag437
aa(lp1515
F0.43137179581936
aI36
aI0
aI3
ag439
aa(lp1516
F0.31862820418064
aI36
aI106
aI3
ag441
aa(lp1517
F0.60918132029553
aI36
aI0
aI3
ag443
aa(lp1518
F0.14081867970447
aI40
aI111
aI3
ag445
aa(lp1519
F0.53502309453688
aI40
aI0
aI3
ag447
aa(lp1520
F0.46497690546312
aI36
aI92
aI3
ag449
aa(lp1521
F0.66883410167543
aI36
aI0
aI3
ag451
aa(lp1522
F0.33116589832457
aI38
aI108
aI3
ag453
aa(lp1523
F0.36366882567506
aI38
aI0
aI3
ag455
aa(lp1524
F0.13633117432494
aI36
aI106
aI3
ag457
aa(lp1525
F0.40814834365949
aI36
aI0
aI3
ag459
aa(lp1526
F0.34185165634051
aI36
aI94
aI3
ag461
aa(lp1527
F0.47604323438873
aI36
aI0
aI3
ag463
aa(lp1528
F0.27395676561127
aI38
aI118
aI3
ag465
aa(lp1529
F0.11895540672401
aI38
aI0
aI3
ag467
aa(lp1530
F0.13104459327599
aI38
aI111
aI3
ag469
aa(lp1531
F0.14115638262922
aI38
aI0
aI3
ag471
aa(lp1532
F0.10884361737078
aI38
aI113
aI3
ag473
aa(lp1533
F0.11929517077931
aI38
aI0
aI3
ag475
aa(lp1534
F0.13070482922069
aI38
aI108
aI3
ag477
aa(lp1535
F0.1419342580333
aI38
aI0
aI3
ag479
aa(lp1536
F0.1080657419667
aI0
aI0
aI0
ag481
aaa(lp1537
(lp1538
F1.5133146867443
aI37
aI101
aI3
aS'on'
p1539
aa(lp1540
F0.35557484822493
aI37
aI0
aI3
aS'off'
p1541
aa(lp1542
F2.3973945874441
aI37
aI111
aI3
aS'on'
p1543
aa(lp1544
F0.28148913899668
aI37
aI0
aI3
aS'off'
p1545
aa(lp1546
F4.9740521401732
aI37
aI111
aI3
aS'on'
p1547
aa(lp1548
F0.45247705999736
aI37
aI0
aI3
aS'off'
p1549
aa(lp1550
F3.4961566731236
aI37
aI108
aI3
aS'on'
p1551
aa(lp1552
F0.39328548846652
aI37
aI0
aI3
aS'off'
p1553
aa(lp1554
F3.3784337774523
aI37
aI106
aI3
aS'on'
p1555
aa(lp1556
F0.35648410531576
aI37
aI0
aI3
aS'off'
p1557
aa(lp1558
F2.8734196578903
aI37
aI106
aI3
aS'on'
p1559
aa(lp1560
F0.31881119958598
aI37
aI0
aI3
aS'off'
p1561
aa(lp1562
F0.20910663658515
aI0
aI0
aI0
aS'timeAfterLastHit'
p1563
aaa(lp1564
(lp1565
F0.24707084389775
aI37
aI115
aI3
aS'on'
p1566
aa(lp1567
F0.37113271435828
aI37
aI0
aI3
aS'off'
p1568
aa(lp1569
F3.6157444050077
aI37
aI113
aI3
aS'on'
p1570
aa(lp1571
F0.3782309641756
aI37
aI0
aI3
aS'off'
p1572
aa(lp1573
F4.6381900776259
aI37
aI118
aI3
aS'on'
p1574
aa(lp1575
F0.43028078847328
aI37
aI0
aI3
aS'off'
p1576
aa(lp1577
F1.590010969956
aI37
aI108
aI3
aS'on'
p1578
aa(lp1579
F0.4238138209239
aI37
aI0
aI3
aS'off'
p1580
aa(lp1581
F2.0198520912672
aI37
aI115
aI3
aS'on'
p1582
aa(lp1583
F0.37155907398846
aI37
aI0
aI3
aS'off'
p1584
aa(lp1585
F3.1772285090547
aI37
aI106
aI3
aS'on'
p1586
aa(lp1587
F0.33524474281603
aI37
aI0
aI3
aS'off'
p1588
aa(lp1589
F3.6966215434577
aI37
aI113
aI3
aS'on'
p1590
aa(lp1591
F0.32713057105138
aI37
aI0
aI3
aS'off'
p1592
aa(lp1593
F2.844100235011
aI37
aI111
aI3
aS'on'
p1594
aa(lp1595
F0.3566741518207
aI37
aI0
aI3
aS'off'
p1596
aa(lp1597
F8.6870745093147
aI37
aI106
aI3
aS'on'
p1598
aa(lp1599
F0.41608130082477
aI37
aI0
aI3
aS'off'
p1600
aa(lp1601
F6.4933568306205
aI37
aI108
aI3
aS'on'
p1602
aa(lp1603
F0.39300267712497
aI37
aI0
aI3
aS'off'
p1604
aa(lp1605
F2.477052701398
aI37
aI118
aI3
aS'on'
p1606
aa(lp1607
F0.42289615675872
aI37
aI0
aI3
aS'off'
p1608
aa(lp1609
F0.28765032107276
aI0
aI0
aI0
aS'timeAfterLastHit'
p1610
aaaI0
aaa(lp1611
(lp1612
(dp1613
a(dp1614
a(dp1615
a(dp1616
aa(lp1617
(dp1618
g576
g577
sg578
I01
sa(dp1619
g576
g580
sg578
I0
sa(dp1620
g576
g582
sg578
I0
sa(dp1621
aa(lp1622
(dp1623
g576
S'10'
p1624
sg578
I1
sa(dp1625
a(dp1626
a(dp1627
aa(lp1628
(dp1629
g576
g592
sg578
I1
sa(dp1630
g576
S'29'
p1631
sg578
I0
sa(dp1632
g576
S'39'
p1633
sg578
I1
sa(dp1634
aaa(lp1635
I60
aI60
aI36
aI36
aa(lp1636
(lp1637
I0
aI2
aI3
aI5
aI7
aI8
aI10
aa(lp1638
I0
aI2
aI3
aI5
aI7
aI8
aI10
aa(lp1639
I0
aI2
aI3
aI5
aI7
aI8
aI10
aa(lp1640
I0
aI1
aI2
aI3
aI4
aI5
aI6
aI7
aI8
aI9
aI10
aI11
aaa(lp1641
(lp1642
(lp1643
I0
aI0
aI0
aI0
aI0
aI0
aI0
aI0
aI0
aI0
aI0
aI0
aa(lp1644
I0
aI0
aI0
aI0
aI0
aI0
aI0
aI0
aI0
aI0
aI0
aI0
aa(lp1645
I0
aI0
aI0
aI0
aI0
aI0
aI0
aI0
aI0
aI0
aI0
aI0
aa(lp1646
I0
aI0
aI0
aI0
aI0
aI0
aI0
aI0
aI0
aI0
aI0
aI0
aaa(lp1647
(lp1648
I0
aI0
aI0
aI0
aI0
aI0
aI0
aI0
aI0
aI0
aI0
aI0
aa(lp1649
I0
aI0
aI0
aI0
aI0
aI0
aI0
aI0
aI0
aI0
aI0
aI0
aa(lp1650
I0
aI0
aI0
aI0
aI0
aI0
aI0
aI0
aI0
aI0
aI0
aI0
aa(lp1651
I0
aI0
aI0
aI0
aI0
aI0
aI0
aI0
aI0
aI0
aI0
aI0
aaa(lp1652
(lp1653
I0
aI0
aI0
aI0
aI0
aI0
aI0
aI0
aI0
aI0
aI0
aI0
aa(lp1654
I0
aI0
aI0
aI0
aI0
aI0
aI0
aI0
aI0
aI0
aI0
aI0
aa(lp1655
I0
aI0
aI0
aI0
aI0
aI0
aI0
aI0
aI0
aI0
aI0
aI0
aa(lp1656
I0
aI0
aI0
aI0
aI0
aI0
aI0
aI0
aI0
aI0
aI0
aI0
aaa(lp1657
(lp1658
I0
aI0
aI0
aI0
aI0
aI0
aI0
aI0
aI0
aI0
aI0
aI0
aa(lp1659
I0
aI0
aI0
aI0
aI0
aI0
aI0
aI0
aI0
aI0
aI0
aI0
aa(lp1660
I0
aI0
aI0
aI0
aI0
aI0
aI0
aI0
aI0
aI0
aI0
aI0
aa(lp1661
I0
aI0
aI0
aI0
aI0
aI0
aI0
aI0
aI0
aI0
aI0
aI0
aaaa(lp1662
(lp1663
I0
aI0
aI0
aI0
aI0
aI0
aI0
aI0
aI0
aI0
aI0
aI0
aa(lp1664
I0
aI0
aI0
aI0
aI0
aI0
aI0
aI0
aI0
aI0
aI0
aI0
aa(lp1665
I0
aI0
aI0
aI0
aI0
aI0
aI0
aI0
aI0
aI0
aI0
aI0
aa(lp1666
I0
aI0
aI0
aI0
aI0
aI0
aI0
aI0
aI0
aI0
aI0
aI0
aaaaI0
aI0
aI0
aI0
aI0
aI0
aI0
aI0
aI0
aI0
aI0
aI0
aI0
aI0
aI0
aI0
aI0
aI0
aI0
aI0
aI0
aI0
aI0
aI0
aI0
aI0
aI0
aI0
aI0
aI0
aI0
aI0
aI0
aI0
aI0
aI0
aI0
aI0
aI0
aI0
aI0
aI0
aI0
aI0
aI0
aI0
aI0
aI0
aI0
aI0
aI0
aI0
aI0
aI0
aI0
aI0
aI0
aI0
aI0
aI0
aI0
aI0
aI0
aI0
aI0
aI0
aI0
aI0
aI0
aI0
aI0
aI0
aI0
aI0
aI0
aI0
aI0
aI0
aI0
aI0
aI0
aI0
aI0
aI0
aI0
aI0
aI0
a.