(lp0
(lp1
(lp2
(lp3
I0
aI0
aI0
aI0
aa(lp4
(lp5
(lp6
F0.0
aI36
aI68
aI1
aS'on'
p7
aa(lp8
F0.38938285533914
aI36
aI0
aI1
aS'off'
p9
aa(lp10
F0.11061714466086
aI48
aI73
aI1
aS'on'
p11
aa(lp12
F0.10403827282698
aI48
aI0
aI1
aS'off'
p13
aa(lp14
F0.39596172717302
aI46
aI89
aI1
aS'on'
p15
aa(lp16
F0.096792901324079
aI46
aI0
aI1
aS'off'
p17
aa(lp18
F0.15320709867592
aI48
aI96
aI1
aS'on'
p19
aa(lp20
F0.43047264370034
aI48
aI0
aI1
aS'off'
p21
aa(lp22
F0.31952735629966
aI51
aI101
aI1
aS'on'
p23
aa(lp24
F0.088411311533491
aI51
aI0
aI1
aS'off'
p25
aa(lp26
F0.16158868846651
aI50
aI34
aI1
aS'on'
p27
aa(lp28
F0.089384349865213
aI50
aI0
aI1
aS'off'
p29
aa(lp30
F0.16061565013479
aI48
aI101
aI1
aS'on'
p31
aa(lp32
F0.067107434641002
aI48
aI0
aI1
aS'off'
p33
aa(lp34
F0.182892565359
aI46
aI67
aI1
aS'on'
p35
aa(lp36
F0.10353138742448
aI46
aI0
aI1
aS'off'
p37
aa(lp38
F0.14646861257552
aI45
aI96
aI1
aS'on'
p39
aa(lp40
F0.07439333543789
aI45
aI0
aI1
aS'off'
p41
aa(lp42
F0.17560666456211
aI43
aI60
aI1
aS'on'
p43
aa(lp44
F0.096575607482009
aI43
aI0
aI1
aS'off'
p45
aa(lp46
F0.15342439251799
aI41
aI106
aI1
aS'on'
p47
aa(lp48
F0.11173222580692
aI41
aI0
aI1
aS'off'
p49
aa(lp50
F0.13826777419308
aI39
aI56
aI1
aS'on'
p51
aa(lp52
F0.089212410471191
aI39
aI0
aI1
aS'off'
p53
aa(lp54
F0.16078758952881
aI31
aI70
aI1
aS'on'
p55
aa(lp56
F0.40829532468342
aI31
aI0
aI1
aS'off'
p57
aa(lp58
F0.091704675316578
aI43
aI111
aI1
aS'on'
p59
aa(lp60
F0.10449205739769
aI43
aI0
aI1
aS'off'
p61
aa(lp62
F0.39550794260231
aI41
aI70
aI1
aS'on'
p63
aa(lp64
F0.11086367561347
aI41
aI0
aI1
aS'off'
p65
aa(lp66
F0.13913632438653
aI43
aI113
aI1
aS'on'
p67
aa(lp68
F0.44596244051354
aI43
aI0
aI1
aS'off'
p69
aa(lp70
F0.30403755948646
aI46
aI111
aI1
aS'on'
p71
aa(lp72
F0.089318333652045
aI46
aI0
aI1
aS'off'
p73
aa(lp74
F0.16068166634795
aI45
aI66
aI1
aS'on'
p75
aa(lp76
F0.10409030661413
aI45
aI0
aI1
aS'off'
p77
aa(lp78
F0.14590969338587
aI43
aI113
aI1
aS'on'
p79
aa(lp80
F0.096725209944452
aI43
aI0
aI1
aS'off'
p81
aa(lp82
F0.15327479005555
aI41
aI57
aI1
aS'on'
p83
aa(lp84
F0.11134329236666
aI41
aI0
aI1
aS'off'
p85
aa(lp86
F0.13865670763334
aI39
aI111
aI1
aS'on'
p87
aa(lp88
F0.089028959477218
aI39
aI0
aI1
aS'off'
p89
aa(lp90
F0.16097104052278
aI38
aI72
aI1
aS'on'
p91
aa(lp92
F0.12687349912267
aI38
aI0
aI1
aS'off'
p93
aa(lp94
F0.12312650087733
aI36
aI106
aI1
aS'on'
p95
aa(lp96
F0.10374908620361
aI36
aI0
aI1
aS'off'
p97
aa(lp98
F0.14625091379639
aI34
aI80
aI1
aS'on'
p99
aa(lp100
F0.11927437971372
aI34
aI0
aI1
aS'off'
p101
aa(lp102
F0.13072562028628
aI0
aI0
aI0
aS'timeAfterLastHit'
p103
aaa(lp104
(lp105
F0.0
aI36
aI80
aI1
aS'on'
p106
aa(lp107
F0.39718249419093
aI36
aI0
aI1
aS'off'
p108
aa(lp109
F0.089122684797985
aI48
aI96
aI1
aS'on'
p110
aa(lp111
F0.10391098740547
aI48
aI0
aI1
aS'off'
p112
aa(lp113
F0.34955784035992
aI46
aI85
aI1
aS'on'
p114
aa(lp115
F0.1116042441754
aI46
aI0
aI1
aS'off'
p116
aa(lp117
F0.13312122060597
aI48
aI106
aI1
aS'on'
p118
aa(lp119
F0.43057920199499
aI48
aI0
aI1
aS'off'
p120
aa(lp121
F0.31969792224845
aI51
aI106
aI1
aS'on'
p122
aa(lp123
F0.10393402196587
aI51
aI0
aI1
aS'off'
p124
aa(lp125
F0.1406512249614
aI50
aI57
aI1
aS'on'
p126
aa(lp127
F0.096715414715618
aI50
aI0
aI1
aS'off'
p128
aa(lp129
F0.1778514916532
aI48
aI94
aI1
aS'on'
p130
aa(lp131
F0.066916507218593
aI48
aI0
aI1
aS'off'
p132
aa(lp133
F0.17882964925138
aI46
aI66
aI1
aS'on'
p134
aa(lp135
F0.10404397037109
aI46
aI0
aI1
aS'off'
p136
aa(lp137
F0.14925343050163
aI45
aI104
aI1
aS'on'
p138
aa(lp139
F0.081886506089177
aI45
aI0
aI1
aS'off'
p140
aa(lp141
F0.12622449052833
aI43
aI68
aI1
aS'on'
p142
aa(lp143
F0.13372831743618
aI43
aI0
aI1
aS'off'
p144
aa(lp145
F0.15613246267094
aI41
aI104
aI1
aS'on'
p146
aa(lp147
F0.12598751671521
aI41
aI0
aI1
aS'off'
p148
aa(lp149
F0.044544471414156
aI39
aI78
aI1
aS'on'
p150
aa(lp151
F0.11897076025707
aI39
aI0
aI1
aS'off'
p152
aa(lp153
F0.23039769428578
aI31
aI96
aI1
aS'on'
p154
aa(lp155
F0.46672963427045
aI31
aI0
aI1
aS'off'
p156
aa(lp157
F0.022222640784094
aI43
aI106
aI1
aS'on'
p158
aa(lp159
F0.13380503679309
aI43
aI0
aI1
aS'off'
p160
aa(lp161
F0.37217254894222
aI41
aI85
aI1
aS'on'
p162
aa(lp163
F0.11194357487784
aI41
aI0
aI1
aS'off'
p164
aa(lp165
F0.16308653334818
aI43
aI111
aI1
aS'on'
p166
aa(lp167
F0.38571119387052
aI43
aI0
aI1
aS'off'
p168
aa(lp169
F0.38596619664895
aI46
aI106
aI1
aS'on'
p170
aa(lp171
F0.089813210162902
aI46
aI0
aI1
aS'off'
p172
aa(lp173
F0.1562341517656
aI45
aI43
aI1
aS'on'
p174
aa(lp175
F0.096368120239276
aI45
aI0
aI1
aS'off'
p176
aa(lp177
F0.17835759275385
aI43
aI89
aI1
aS'on'
p178
aa(lp179
F0.051917509124905
aI43
aI0
aI1
aS'off'
p180
aa(lp181
F0.15550453783271
aI41
aI63
aI1
aS'on'
p182
aa(lp183
F0.11895248690962
aI41
aI0
aI1
aS'off'
p184
aa(lp185
F0.14895420994799
aI39
aI106
aI1
aS'on'
p186
aa(lp187
F0.096358734208479
aI39
aI0
aI1
aS'off'
p188
aa(lp189
F0.14823343644457
aI38
aI70
aI1
aS'on'
p190
aa(lp191
F0.14119500089964
aI38
aI0
aI1
aS'off'
p192
aa(lp193
F0.097059194047688
aI36
aI101
aI1
aS'on'
p194
aa(lp195
F0.10439860487531
aI36
aI0
aI1
aS'off'
p196
aa(lp197
F0.10396850845245
aI34
aI71
aI1
aS'on'
p198
aa(lp199
F0.118763989115
aI34
aI0
aI1
aS'off'
p200
aa(lp201
F0.1814388278699
aI0
aI0
aI0
aS'timeAfterLastHit'
p202
aaa(lp203
(lp204
F0.0
aI36
aI64
aI1
aS'on'
p205
aa(lp206
F0.42199926171907
aI36
aI0
aI1
aS'off'
p207
aa(lp208
F0.078000738280934
aI48
aI99
aI1
aS'on'
p209
aa(lp210
F0.11131335113168
aI48
aI0
aI1
aS'off'
p211
aa(lp212
F0.38868664886832
aI46
aI82
aI1
aS'on'
p213
aa(lp214
F0.12626675465981
aI46
aI0
aI1
aS'off'
p215
aa(lp216
F0.20706657867352
aI48
aI111
aI1
aS'on'
p217
aa(lp218
F0.40955256677444
aI48
aI0
aI1
aS'off'
p219
aa(lp220
F0.25711409989223
aI51
aI108
aI1
aS'on'
p221
aa(lp222
F0.096588798507582
aI51
aI0
aI1
aS'off'
p223
aa(lp224
F0.15341120149242
aI50
aI47
aI1
aS'on'
p225
aa(lp226
F0.10398371990141
aI50
aI0
aI1
aS'off'
p227
aa(lp228
F0.14601628009859
aI48
aI101
aI1
aS'on'
p229
aa(lp230
F0.081727497705288
aI48
aI0
aI1
aS'off'
p231
aa(lp232
F0.16827250229471
aI46
aI49
aI1
aS'on'
p233
aa(lp234
F0.11869441655108
aI46
aI0
aI1
aS'off'
p235
aa(lp236
F0.13130558344892
aI45
aI99
aI1
aS'on'
p237
aa(lp238
F0.095965512692601
aI45
aI0
aI1
aS'off'
p239
aa(lp240
F0.1540344873074
aI43
aI32
aI1
aS'on'
p241
aa(lp242
F0.11896441054887
aI43
aI0
aI1
aS'off'
p243
aa(lp244
F0.13103558945113
aI41
aI111
aI1
aS'on'
p245
aa(lp246
F0.13482802312774
aI41
aI0
aI1
aS'off'
p247
aa(lp248
F0.031838643538928
aI39
aI59
aI1
aS'on'
p249
aa(lp250
F0.088596866779881
aI39
aI0
aI1
aS'off'
p251
aa(lp252
F0.24473646655345
aI31
aI101
aI1
aS'on'
p253
aa(lp254
F0.4460435388828
aI31
aI0
aI1
aS'off'
p255
aa(lp256
F0.053956461117195
aI43
aI113
aI1
aS'on'
p257
aa(lp258
F0.10389961931105
aI43
aI0
aI1
aS'off'
p259
aa(lp260
F0.39610038068895
aI41
aI78
aI1
aS'on'
p261
aa(lp262
F0.12652617765252
aI41
aI0
aI1
aS'off'
p263
aa(lp264
F0.20680715568081
aI43
aI118
aI1
aS'on'
p265
aa(lp266
F0.37110780571493
aI43
aI0
aI1
aS'off'
p267
aa(lp268
F0.29555886095174
aI46
aI111
aI1
aS'on'
p269
aa(lp270
F0.088795971103536
aI46
aI0
aI1
aS'off'
p271
aa(lp272
F0.16120402889646
aI45
aI39
aI1
aS'on'
p273
aa(lp274
F0.11169400252766
aI45
aI0
aI1
aS'off'
p275
aa(lp276
F0.13830599747234
aI43
aI111
aI1
aS'on'
p277
aa(lp278
F0.088824173240027
aI43
aI0
aI1
aS'off'
p279
aa(lp280
F0.16117582675997
aI41
aI59
aI1
aS'on'
p281
aa(lp282
F0.14059130412534
aI41
aI0
aI1
aS'off'
p283
aa(lp284
F0.10940869587466
aI39
aI113
aI1
aS'on'
p285
aa(lp286
F0.096059668525413
aI39
aI0
aI1
aS'off'
p287
aa(lp288
F0.15394033147459
aI38
aI72
aI1
aS'on'
p289
aa(lp290
F0.12653570008206
aI38
aI0
aI1
aS'off'
p291
aa(lp292
F0.12346429991794
aI36
aI108
aI1
aS'on'
p293
aa(lp294
F0.11136117498427
aI36
aI0
aI1
aS'off'
p295
aa(lp296
F0.13863882501573
aI34
aI89
aI1
aS'on'
p297
aa(lp298
F0.12620982752014
aI34
aI0
aI1
aS'off'
p299
aa(lp300
F0.12379017247986
aI0
aI0
aI0
aS'timeAfterLastHit'
p301
aaaI0
aa(lp302
(lp303
(lp304
F0.0
aI36
aI85
aI2
aS'on'
p305
aa(lp306
F0.53878120621266
aI36
aI0
aI2
aS'off'
p307
aa(lp308
F0.46121879378734
aI36
aI73
aI2
aS'on'
p309
aa(lp310
F0.66853917345998
aI36
aI0
aI2
aS'off'
p311
aa(lp312
F0.33146082654002
aI36
aI72
aI2
aS'on'
p313
aa(lp314
F0.54307235407487
aI36
aI0
aI2
aS'off'
p315
aa(lp316
F0.20692764592513
aI36
aI38
aI2
aS'on'
p317
aa(lp318
F0.12681654214703
aI36
aI0
aI2
aS'off'
p319
aa(lp320
F0.12318345785297
aI39
aI73
aI2
aS'on'
p321
aa(lp322
F0.11843683496136
aI39
aI0
aI2
aS'off'
p323
aa(lp324
F0.13156316503864
aI36
aI46
aI2
aS'on'
p325
aa(lp326
F0.13385448466215
aI36
aI0
aI2
aS'off'
p327
aa(lp328
F0.11614551533785
aI34
aI96
aI2
aS'on'
p329
aa(lp330
F0.5
aI31
aI66
aI2
aS'on'
p331
aa(lp332
F0.049734665000869
aI34
aI0
aI2
aS'off'
p333
aa(lp334
F0.45389595289089
aI31
aI0
aI2
aS'off'
p335
aa(lp336
F0.49636938210824
aI31
aI80
aI2
aS'on'
p337
aa(lp338
F0.63934880920351
aI31
aI0
aI2
aS'off'
p339
aa(lp340
F0.36065119079649
aI31
aI85
aI2
aS'on'
p341
aa(lp342
F0.52075540685109
aI31
aI0
aI2
aS'off'
p343
aa(lp344
F0.22924459314891
aI31
aI58
aI2
aS'on'
p345
aa(lp346
F0.12623056459415
aI31
aI0
aI2
aS'off'
p347
aa(lp348
F0.12376943540585
aI34
aI72
aI2
aS'on'
p349
aa(lp350
F0.11868081490593
aI34
aI0
aI2
aS'off'
p351
aa(lp352
F0.13131918509407
aI31
aI94
aI2
aS'on'
p353
aa(lp354
F0.15640518040618
aI31
aI0
aI2
aS'off'
p355
aa(lp356
F0.093594819593818
aI39
aI104
aI2
aS'on'
p357
aa(lp358
F0.5
aI36
aI94
aI2
aS'on'
p359
aa(lp360
F0.058699687628177
aI39
aI0
aI2
aS'off'
p361
aa(lp362
F0.43096196157694
aI36
aI0
aI2
aS'off'
p363
aa(lp364
F0.51033835079488
aI36
aI101
aI2
aS'on'
p365
aa(lp366
F0.57294566781093
aI36
aI0
aI2
aS'off'
p367
aa(lp368
F0.42705433218907
aI36
aI85
aI2
aS'on'
p369
aa(lp370
F0.51962284721321
aI36
aI0
aI2
aS'off'
p371
aa(lp372
F0.23037715278679
aI36
aI80
aI2
aS'on'
p373
aa(lp374
F0.1192970150214
aI36
aI0
aI2
aS'off'
p375
aa(lp376
F0.1307029849786
aI39
aI78
aI2
aS'on'
p377
aa(lp378
F0.11073310806478
aI39
aI0
aI2
aS'off'
p379
aa(lp380
F0.13926689193522
aI36
aI67
aI2
aS'on'
p381
aa(lp382
F0.14143787117519
aI36
aI0
aI2
aS'off'
p383
aa(lp384
F0.10856212882481
aI34
aI89
aI2
aS'on'
p385
aa(lp386
F0.5
aI31
aI68
aI2
aS'on'
p387
aa(lp388
F0.064561513416265
aI34
aI0
aI2
aS'off'
p389
aa(lp390
F0.47862786765927
aI31
aI0
aI2
aS'off'
p391
aa(lp392
F0.45681061892446
aI31
aI89
aI2
aS'on'
p393
aa(lp394
F0.50573291100227
aI31
aI0
aI2
aS'off'
p395
aa(lp396
F0.49426708899773
aI26
aI73
aI2
aS'on'
p397
aa(lp398
F0.24650080407719
aI26
aI0
aI2
aS'off'
p399
aa(lp400
F0.0034991959228137
aI29
aI53
aI2
aS'on'
p401
aa(lp402
F0.25
aI31
aI101
aI2
aS'on'
p403
aa(lp404
F0.10025711380149
aI29
aI0
aI2
aS'off'
p405
aa(lp406
F0.14974288619851
aI34
aI99
aI2
aS'on'
p407
aa(lp408
F0.11442266624999
aI31
aI0
aI2
aS'off'
p409
aa(lp410
F0.38557733375001
aI31
aI73
aI2
aS'on'
p411
aa(lp412
F0.057677066448377
aI34
aI0
aI2
aS'off'
p413
aa(lp414
F0.19232293355162
aI34
aI63
aI2
aS'on'
p415
aa(lp416
F0.061363420320049
aI31
aI0
aI2
aS'off'
p417
aa(lp418
F0.10530324634662
aI36
aI45
aI2
aS'on'
p419
aa(lp420
F0.15911469312353
aI34
aI0
aI2
aS'off'
p421
aa(lp422
F0.15246152435035
aI36
aI0
aI2
aS'off'
p423
aa(lp424
F0.021757115859449
aI0
aI0
aI0
aS'timeAfterLastHit'
p425
aaaI0
aI0
aI0
aa(lp426
(lp427
(lp428
F0.0
aI36
aI78
aI3
aS'on'
p429
aa(lp430
F0.74852806654587
aI36
aI0
aI3
aS'off'
p431
aa(lp432
F0.25147193345413
aI38
aI99
aI3
aS'on'
p433
aa(lp434
F0.31199060490258
aI38
aI0
aI3
aS'off'
p435
aa(lp436
F0.18800939509742
aI36
aI99
aI3
aS'on'
p437
aa(lp438
F0.43137179581936
aI36
aI0
aI3
aS'off'
p439
aa(lp440
F0.31862820418064
aI36
aI106
aI3
aS'on'
p441
aa(lp442
F0.60918132029553
aI36
aI0
aI3
aS'off'
p443
aa(lp444
F0.14081867970447
aI40
aI111
aI3
aS'on'
p445
aa(lp446
F0.53502309453688
aI40
aI0
aI3
aS'off'
p447
aa(lp448
F0.46497690546312
aI36
aI92
aI3
aS'on'
p449
aa(lp450
F0.66883410167543
aI36
aI0
aI3
aS'off'
p451
aa(lp452
F0.33116589832457
aI38
aI108
aI3
aS'on'
p453
aa(lp454
F0.36366882567506
aI38
aI0
aI3
aS'off'
p455
aa(lp456
F0.13633117432494
aI36
aI106
aI3
aS'on'
p457
aa(lp458
F0.40814834365949
aI36
aI0
aI3
aS'off'
p459
aa(lp460
F0.34185165634051
aI36
aI94
aI3
aS'on'
p461
aa(lp462
F0.47604323438873
aI36
aI0
aI3
aS'off'
p463
aa(lp464
F0.27395676561127
aI38
aI118
aI3
aS'on'
p465
aa(lp466
F0.11895540672401
aI38
aI0
aI3
aS'off'
p467
aa(lp468
F0.13104459327599
aI38
aI111
aI3
aS'on'
p469
aa(lp470
F0.14115638262922
aI38
aI0
aI3
aS'off'
p471
aa(lp472
F0.10884361737078
aI38
aI113
aI3
aS'on'
p473
aa(lp474
F0.11929517077931
aI38
aI0
aI3
aS'off'
p475
aa(lp476
F0.13070482922069
aI38
aI108
aI3
aS'on'
p477
aa(lp478
F0.1419342580333
aI38
aI0
aI3
aS'off'
p479
aa(lp480
F0.1080657419667
aI0
aI0
aI0
aS'timeAfterLastHit'
p481
aaa(lp482
(lp483
F0.5
aI37
aI113
aI3
aS'on'
p484
aa(lp485
F0.14129695000884
aI37
aI0
aI3
aS'off'
p486
aa(lp487
F0.60870304999116
aI40
aI118
aI3
aS'on'
p488
aa(lp489
F0.32023817167646
aI40
aI0
aI3
aS'off'
p490
aa(lp491
F2.6797618283235
aI40
aI118
aI3
aS'on'
p492
aa(lp493
F0.14823458163482
aI40
aI0
aI3
aS'off'
p494
aa(lp495
F1.1017654183652
aI37
aI99
aI3
aS'on'
p496
aa(lp497
F0.26056305904604
aI37
aI0
aI3
aS'off'
p498
aa(lp499
F2.739436940954
aI37
aI115
aI3
aS'on'
p500
aa(lp501
F0.22257264094333
aI37
aI0
aI3
aS'off'
p502
aa(lp503
F0.52742735905667
aI40
aI122
aI3
aS'on'
p504
aa(lp505
F0.3713139317988
aI40
aI0
aI3
aS'off'
p506
aa(lp507
F2.8786860682012
aI37
aI113
aI3
aS'on'
p508
aa(lp509
F0.13342006605853
aI37
aI0
aI3
aS'off'
p510
aa(lp511
F3.6165799339415
aI40
aI118
aI3
aS'on'
p512
aa(lp513
F0.16323781381652
aI40
aI0
aI3
aS'off'
p514
aa(lp515
F1.0867621861835
aI37
aI111
aI3
aS'on'
p516
aa(lp517
F0.35607607302336
aI37
aI0
aI3
aS'off'
p518
aa(lp519
F2.3939239269766
aI37
aI108
aI3
aS'on'
p520
aa(lp521
F0.25243610688085
aI37
aI0
aI3
aS'off'
p522
aa(lp523
F2.9975638931191
aI37
aI113
aI3
aS'on'
p524
aa(lp525
F0.31965196820966
aI37
aI0
aI3
aS'off'
p526
aa(lp527
F0.68034803179034
aI40
aI115
aI3
aS'on'
p528
aa(lp529
F0.11134762733127
aI40
aI0
aI3
aS'off'
p530
aa(lp531
F0.63865237266873
aI37
aI118
aI3
aS'on'
p532
aa(lp533
F0.096868684349829
aI37
aI0
aI3
aS'off'
p534
aa(lp535
F3.1531313156502
aI37
aI106
aI3
aS'on'
p536
aa(lp537
F0.13251384244904
aI37
aI0
aI3
aS'off'
p538
aa(lp539
F0.36748615755096
aI0
aI0
aI0
aS'timeAfterLastHit'
p540
aaa(lp541
(lp542
F0.0
aI50
aI113
aI3
aS'on'
p543
aa(lp544
F0.097908355492109
aI50
aI0
aI3
aS'off'
p545
aa(lp546
F4.4020916445079
aI51
aI11
aI3
aS'on'
p547
aa(lp548
F0.059431128420329
aI51
aI0
aI3
aS'off'
p549
aa(lp550
F4.9405688715797
aI49
aI8
aI3
aS'on'
p551
aa(lp552
F0.036725710948303
aI49
aI0
aI3
aS'off'
p553
aa(lp554
F0.7132742890517
aI51
aI45
aI3
aS'on'
p555
aa(lp556
F0.081812376913149
aI51
aI0
aI3
aS'off'
p557
aa(lp558
F3.1681876230869
aI49
aI36
aI3
aS'on'
p559
aa(lp560
F0.03690305946111
aI49
aI0
aI3
aS'off'
p561
aa(lp562
F2.4630969405389
aI50
aI101
aI3
aS'on'
p563
aa(lp564
F0.10423679176711
aI50
aI0
aI3
aS'off'
p565
aa(lp566
F0.89576320823289
aI0
aI0
aI0
aS'timeAfterLastHit'
p567
aaaI0
aaa(lp568
(lp569
(dp570
a(dp571
a(dp572
a(dp573
aa(lp574
(dp575
S'button'
p576
S'59'
p577
sS'playing'
p578
I0
sa(dp579
g576
S'69'
p580
sg578
I0
sa(dp581
g576
S'79'
p582
sg578
I0
sa(dp583
aa(lp584
(dp585
g576
S'10'
p586
sg578
I0
sa(dp587
a(dp588
a(dp589
aa(lp590
(dp591
g576
S'19'
p592
sg578
I0
sa(dp593
g576
S'29'
p594
sg578
I0
sa(dp595
g576
S'39'
p596
sg578
I0
sa(dp597
aaa(lp598
I60
aI60
aI36
aI36
aa(lp599
(lp600
I0
aI2
aI3
aI5
aI7
aI8
aI10
aa(lp601
I0
aI2
aI3
aI5
aI7
aI8
aI10
aa(lp602
I0
aI2
aI3
aI5
aI7
aI8
aI10
aa(lp603
I0
aI1
aI2
aI3
aI4
aI5
aI6
aI7
aI8
aI9
aI10
aI11
aaa(lp604
(lp605
(lp606
I0
aI0
aI0
aI0
aI0
aI0
aI0
aI0
aI0
aI0
aI0
aI0
aa(lp607
I0
aI0
aI0
aI0
aI0
aI0
aI0
aI0
aI0
aI0
aI0
aI0
aa(lp608
I0
aI0
aI0
aI0
aI0
aI0
aI0
aI0
aI0
aI0
aI0
aI0
aa(lp609
I0
aI0
aI0
aI0
aI0
aI0
aI0
aI0
aI0
aI0
aI0
aI0
aaa(lp610
(lp611
I0
aI0
aI0
aI0
aI0
aI0
aI0
aI0
aI0
aI0
aI0
aI0
aa(lp612
I0
aI0
aI0
aI0
aI0
aI0
aI0
aI0
aI0
aI0
aI0
aI0
aa(lp613
I0
aI0
aI0
aI0
aI0
aI0
aI0
aI0
aI0
aI0
aI0
aI0
aa(lp614
I0
aI0
aI0
aI0
aI0
aI0
aI0
aI0
aI0
aI0
aI0
aI0
aaa(lp615
(lp616
I0
aI0
aI0
aI0
aI0
aI0
aI0
aI0
aI0
aI0
aI0
aI0
aa(lp617
I0
aI0
aI0
aI0
aI0
aI0
aI0
aI0
aI0
aI0
aI0
aI0
aa(lp618
I0
aI0
aI0
aI0
aI0
aI0
aI0
aI0
aI0
aI0
aI0
aI0
aa(lp619
I0
aI0
aI0
aI0
aI0
aI0
aI0
aI0
aI0
aI0
aI0
aI0
aaa(lp620
(lp621
I0
aI0
aI0
aI0
aI0
aI0
aI0
aI0
aI0
aI0
aI0
aI0
aa(lp622
I0
aI0
aI0
aI0
aI0
aI0
aI0
aI0
aI0
aI0
aI0
aI0
aa(lp623
I0
aI0
aI0
aI0
aI0
aI0
aI0
aI0
aI0
aI0
aI0
aI0
aa(lp624
I0
aI0
aI0
aI0
aI0
aI0
aI0
aI0
aI0
aI0
aI0
aI0
aaaa(lp625
(lp626
I0
aI0
aI0
aI0
aI0
aI0
aI0
aI0
aI0
aI0
aI0
aI0
aa(lp627
I0
aI0
aI0
aI0
aI0
aI0
aI0
aI0
aI0
aI0
aI0
aI0
aa(lp628
I0
aI0
aI0
aI0
aI0
aI0
aI0
aI0
aI0
aI0
aI0
aI0
aa(lp629
I0
aI0
aI0
aI0
aI0
aI0
aI0
aI0
aI0
aI0
aI0
aI0
aaaa(lp630
(lp631
(lp632
(lp633
(lp634
F0.0
aI60
aI73
aI0
aS'on'
p635
aa(lp636
F0.07723095518304
aI60
aI0
aI0
aS'off'
p637
aa(lp638
F0.17276904481696
aI60
aI56
aI0
aS'on'
p639
aa(lp640
F0.095503251021
aI60
aI0
aI0
aS'off'
p641
aa(lp642
F0.154496748979
aI72
aI68
aI0
aS'on'
p643
aa(lp644
F0.063924535143087
aI72
aI0
aI0
aS'off'
p645
aa(lp646
F0.18607546485691
aI72
aI63
aI0
aS'on'
p647
aa(lp648
F0.080540153590846
aI72
aI0
aI0
aS'off'
p649
aa(lp650
F0.16945984640915
aI70
aI65
aI0
aS'on'
p651
aa(lp652
F0.071663560727757
aI70
aI0
aI0
aS'off'
p653
aa(lp654
F0.17833643927224
aI72
aI69
aI0
aS'on'
p655
aa(lp656
F0.047872975137579
aI72
aI0
aI0
aS'off'
p657
aa(lp658
F0.20212702486242
aI72
aI50
aI0
aS'on'
p659
aa(lp660
F0.047980333534724
aI72
aI0
aI0
aS'off'
p661
aa(lp662
F0.20201966646528
aI72
aI59
aI0
aS'on'
p663
aa(lp664
F0.063530921850543
aI72
aI0
aI0
aS'off'
p665
aa(lp666
F0.18646907814946
aI63
aI85
aI0
aS'on'
p667
aa(lp668
F0.11160251278125
aI63
aI0
aI0
aS'off'
p669
aa(lp670
F0.13839748721875
aI65
aI59
aI0
aS'on'
p671
aa(lp672
F0.096351540258183
aI65
aI0
aI0
aS'off'
p673
aa(lp674
F0.15364845974182
aI67
aI73
aI0
aS'on'
p675
aa(lp676
F0.055718283580063
aI67
aI0
aI0
aS'off'
p677
aa(lp678
F0.19428171641994
aI70
aI56
aI0
aS'on'
p679
aa(lp680
F0.072222051749122
aI70
aI0
aI0
aS'off'
p681
aa(lp682
F0.17777794825088
aI70
aI34
aI0
aS'on'
p683
aa(lp684
F0.10454381130148
aI70
aI0
aI0
aS'off'
p685
aa(lp686
F0.14545618869852
aI67
aI70
aI0
aS'on'
p687
aa(lp688
F0.063896209976519
aI67
aI0
aI0
aS'off'
p689
aa(lp690
F0.18610379002348
aI72
aI70
aI0
aS'on'
p691
aa(lp692
F0.087831363447549
aI72
aI0
aI0
aS'off'
p693
aa(lp694
F0.16216863655245
aI72
aI66
aI0
aS'on'
p695
aa(lp696
F0.071806396725151
aI72
aI0
aI0
aS'off'
p697
aa(lp698
F0.17819360327485
aI60
aI70
aI0
aS'on'
p699
aa(lp700
F0.10450948115249
aI60
aI0
aI0
aS'off'
p701
aa(lp702
F0.14549051884751
aI60
aI63
aI0
aS'on'
p703
aa(lp704
F0.10390060640748
aI60
aI0
aI0
aS'off'
p705
aa(lp706
F0.14609939359252
aI72
aI70
aI0
aS'on'
p707
aa(lp708
F0.080309569866586
aI72
aI0
aI0
aS'off'
p709
aa(lp710
F0.16969043013341
aI72
aI60
aI0
aS'on'
p711
aa(lp712
F0.079768711313591
aI72
aI0
aI0
aS'off'
p713
aa(lp714
F0.17023128868641
aI70
aI72
aI0
aS'on'
p715
aa(lp716
F0.095681705364768
aI70
aI0
aI0
aS'off'
p717
aa(lp718
F0.15431829463523
aI72
aI75
aI0
aS'on'
p719
aa(lp720
F0.06383026837284
aI72
aI0
aI0
aS'off'
p721
aa(lp722
F0.18616973162716
aI72
aI63
aI0
aS'on'
p723
aa(lp724
F0.09598523931345
aI72
aI0
aI0
aS'off'
p725
aa(lp726
F0.15401476068655
aI72
aI42
aI0
aS'on'
p727
aa(lp728
F0.11880051764092
aI72
aI0
aI0
aS'off'
p729
aa(lp730
F0.13119948235908
aI79
aI101
aI0
aS'on'
p731
aa(lp732
F0.0
aI77
aI57
aI0
aS'on'
p733
aa(lp734
F0.095883602858521
aI77
aI0
aI0
aS'off'
p735
aa(lp736
F0.24832453622003
aI79
aI0
aI0
aS'off'
p737
aa(lp738
F0.15579186092145
aI77
aI85
aI0
aS'on'
p739
aa(lp740
F0.12824334909965
aI77
aI0
aI0
aS'off'
p741
aa(lp742
F0.12175665090035
aI75
aI75
aI0
aS'on'
p743
aa(lp744
F0.11188522434895
aI75
aI0
aI0
aS'off'
p745
aa(lp746
F0.13811477565105
aI77
aI89
aI0
aS'on'
p747
aa(lp748
F0.080690460243204
aI77
aI0
aI0
aS'off'
p749
aa(lp750
F0.1693095397568
aI75
aI70
aI0
aS'on'
p751
aa(lp752
F0.096273210790969
aI75
aI0
aI0
aS'off'
p753
aa(lp754
F0.15372678920903
aI72
aI106
aI0
aS'on'
p755
aa(lp756
F0.10372642975562
aI72
aI0
aI0
aS'off'
p757
aa(lp758
F0.14627357024438
aI70
aI69
aI0
aS'on'
p759
aa(lp760
F0.10431150487238
aI70
aI0
aI0
aS'off'
p761
aa(lp762
F0.14568849512762
aI0
aI0
aI0
aS'timeAfterLastHit'
p763
aaa(lp764
(lp765
F0.013766024713505
aI60
aI101
aI0
aS'on'
p766
aa(lp767
F0.081670095122945
aI60
aI0
aI0
aS'off'
p768
aa(lp769
F0.17585079270941
aI60
aI80
aI0
aS'on'
p770
aa(lp771
F0.11974015747785
aI60
aI0
aI0
aS'off'
p772
aa(lp773
F0.12660618555344
aI72
aI101
aI0
aS'on'
p774
aa(lp775
F0.075667110581321
aI72
aI0
aI0
aS'off'
p776
aa(lp777
F0.17135131473799
aI72
aI72
aI0
aS'on'
p778
aa(lp779
F0.075887964640287
aI72
aI0
aI0
aS'off'
p780
aa(lp781
F0.16998093069992
aI70
aI92
aI0
aS'on'
p782
aa(lp783
F0.094794589367211
aI70
aI0
aI0
aS'off'
p784
aa(lp785
F0.17597560954061
aI72
aI106
aI0
aS'on'
p786
aa(lp787
F0.050675108132509
aI72
aI0
aI0
aS'off'
p788
aa(lp789
F0.20166761367318
aI72
aI89
aI0
aS'on'
p790
aa(lp791
F0.056560008111092
aI72
aI0
aI0
aS'off'
p792
aa(lp793
F0.18905438508159
aI72
aI75
aI0
aS'on'
p794
aa(lp795
F0.057113697414593
aI72
aI0
aI0
aS'off'
p796
aa(lp797
F0.20125779467651
aI63
aI101
aI0
aS'on'
p798
aa(lp799
F0.088417586845821
aI63
aI0
aI0
aS'off'
p800
aa(lp801
F0.15224502548926
aI65
aI61
aI0
aS'on'
p802
aa(lp803
F0.06915502174877
aI65
aI0
aI0
aS'off'
p804
aa(lp805
F0.16463896020252
aI67
aI106
aI0
aS'on'
p806
aa(lp807
F0.069155486790919
aI67
aI0
aI0
aS'off'
p808
aa(lp809
F0.18291243365695
aI70
aI80
aI0
aS'on'
p810
aa(lp811
F0.075517056177887
aI70
aI0
aI0
aS'off'
p812
aa(lp813
F0.17074145533047
aI70
aI80
aI0
aS'on'
p814
aa(lp815
F0.094640679692134
aI70
aI0
aI0
aS'off'
p816
aa(lp817
F0.16399818994921
aI67
aI106
aI0
aS'on'
p818
aa(lp819
F0.062619442263895
aI67
aI0
aI0
aS'off'
p820
aa(lp821
F0.19553301015571
aI72
aI94
aI0
aS'on'
p822
aa(lp823
F0.063328838762914
aI72
aI0
aI0
aS'off'
p824
aa(lp825
F0.1764359374157
aI72
aI94
aI0
aS'on'
p826
aa(lp827
F0.068529931608623
aI72
aI0
aI0
aS'off'
p828
aa(lp829
F0.16368294679125
aI60
aI73
aI0
aS'on'
p830
aa(lp831
F0.069654022818327
aI60
aI0
aI0
aS'off'
p832
aa(lp833
F0.18882890108239
aI60
aI70
aI0
aS'on'
p834
aa(lp835
F0.094436684013544
aI60
aI0
aI0
aS'off'
p836
aa(lp837
F0.17577822083388
aI72
aI111
aI0
aS'on'
p838
aa(lp839
F0.056688009155664
aI72
aI0
aI0
aS'off'
p840
aa(lp841
F0.18284697475769
aI72
aI87
aI0
aS'on'
p842
aa(lp843
F0.075816157795089
aI72
aI0
aI0
aS'off'
p844
aa(lp845
F0.17023207996579
aI70
aI87
aI0
aS'on'
p846
aa(lp847
F0.088049045761295
aI70
aI0
aI0
aS'off'
p848
aa(lp849
F0.17628323010331
aI72
aI101
aI0
aS'on'
p850
aa(lp851
F0.056473450032854
aI72
aI0
aI0
aS'off'
p852
aa(lp853
F0.20754614161058
aI72
aI85
aI0
aS'on'
p854
aa(lp855
F0.069590310839089
aI72
aI0
aI0
aS'off'
p856
aa(lp857
F0.17005494227851
aI72
aI67
aI0
aS'on'
p858
aa(lp859
F0.081875643753051
aI72
aI0
aI0
aS'off'
p860
aa(lp861
F0.18890443067426
aI77
aI54
aI0
aS'on'
p862
aa(lp863
F0.018897275693121
aI79
aI106
aI0
aS'on'
p864
aa(lp865
F0.075996539934522
aI77
aI0
aI0
aS'off'
p866
aa(lp867
F0.2577107611686
aI79
aI0
aI0
aS'off'
p868
aa(lp869
F0.10762186023453
aI77
aI63
aI0
aS'on'
p870
aa(lp871
F0.11349341976847
aI77
aI0
aI0
aS'off'
p872
aa(lp873
F0.13904624136376
aI75
aI70
aI0
aS'on'
p874
aa(lp875
F0.11367672829988
aI75
aI0
aI0
aS'off'
p876
aa(lp877
F0.15710799534395
aI77
aI94
aI0
aS'on'
p878
aa(lp879
F0.094363653119899
aI77
aI0
aI0
aS'off'
p880
aa(lp881
F0.15705722864413
aI75
aI66
aI0
aS'on'
p882
aa(lp883
F0.088235821627791
aI75
aI0
aI0
aS'off'
p884
aa(lp885
F0.13876165123031
aI72
aI104
aI0
aS'on'
p886
aa(lp887
F0.10075212266497
aI72
aI0
aI0
aS'off'
p888
aa(lp889
F0.13911650489547
aI75
aI94
aI0
aS'on'
p890
aa(lp891
F0.66226079908711
aI75
aI0
aI0
aS'off'
p892
aa(lp893
F0.050714717435085
aI72
aI108
aI0
aS'on'
p894
aa(lp895
F0.081545313230208
aI72
aI0
aI0
aS'off'
p896
aa(lp897
F0.15807624562842
aI72
aI92
aI0
aS'on'
p898
aa(lp899
F0.088203028927751
aI72
aI0
aI0
aS'off'
p900
aa(lp901
F0.20826865928598
aI70
aI94
aI0
aS'on'
p902
aa(lp903
F0.11935368094646
aI70
aI0
aI0
aS'off'
p904
aa(lp905
F0.15114831152778
aI72
aI106
aI0
aS'on'
p906
aa(lp907
F0.050295055447577
aI72
aI0
aI0
aS'off'
p908
aa(lp909
F0.19552338884307
aI72
aI89
aI0
aS'on'
p910
aa(lp911
F0.050434177746297
aI72
aI0
aI0
aS'off'
p912
aa(lp913
F0.15112141859788
aI72
aI73
aI0
aS'on'
p914
aa(lp915
F0.081467051214645
aI72
aI0
aI0
aS'off'
p916
aa(lp917
F0.20760318637929
aI63
aI87
aI0
aS'on'
p918
aa(lp919
F0.088459133422361
aI63
aI0
aI0
aS'off'
p920
aa(lp921
F0.15148960547936
aI65
aI82
aI0
aS'on'
p922
aa(lp923
F0.094262034181384
aI65
aI0
aI0
aS'off'
p924
aa(lp925
F0.11941477616006
aI67
aI89
aI0
aS'on'
p926
aa(lp927
F0.056781252516316
aI67
aI0
aI0
aS'off'
p928
aa(lp929
F0.22037354138865
aI70
aI71
aI0
aS'on'
p930
aa(lp931
F0.094568865618385
aI70
aI0
aI0
aS'off'
p932
aa(lp933
F0.14503220969982
aI70
aI69
aI0
aS'on'
p934
aa(lp935
F0.088438388446207
aI70
aI0
aI0
aS'off'
p936
aa(lp937
F0.16391827257621
aI67
aI111
aI0
aS'on'
p938
aa(lp939
F0.062818841735748
aI67
aI0
aI0
aS'off'
p940
aa(lp941
F0.23289570243878
aI72
aI101
aI0
aS'on'
p942
aa(lp943
F0.069194281667251
aI72
aI0
aI0
aS'off'
p944
aa(lp945
F0.13217977595605
aI72
aI82
aI0
aS'on'
p946
aa(lp947
F0.075382654177474
aI72
aI0
aI0
aS'off'
p948
aa(lp949
F0.15729921200159
aI60
aI80
aI0
aS'on'
p950
aa(lp951
F0.069558362684461
aI60
aI0
aI0
aS'off'
p952
aa(lp953
F0.21363322890443
aI60
aI82
aI0
aS'on'
p954
aa(lp955
F0.10691004093803
aI60
aI0
aI0
aS'off'
p956
aa(lp957
F0.17011618688412
aI72
aI106
aI0
aS'on'
p958
aa(lp959
F0.056291796858432
aI72
aI0
aI0
aS'off'
p960
aa(lp961
F0.16307490418058
aI72
aI73
aI0
aS'on'
p962
aa(lp963
F0.06917381258404
aI72
aI0
aI0
aS'off'
p964
aa(lp965
F0.20141016826676
aI70
aI89
aI0
aS'on'
p966
aa(lp967
F0.082279818391044
aI70
aI0
aI0
aS'off'
p968
aa(lp969
F0.18261121766432
aI72
aI106
aI0
aS'on'
p970
aa(lp971
F0.069019653520968
aI72
aI0
aI0
aS'off'
p972
aa(lp973
F0.17678198058024
aI72
aI92
aI0
aS'on'
p974
aa(lp975
F0.07549753404578
aI72
aI0
aI0
aS'off'
p976
aa(lp977
F0.16383987924041
aI72
aI70
aI0
aS'on'
p978
aa(lp979
F0.094860573547408
aI72
aI0
aI0
aS'off'
p980
aa(lp981
F0.15173044068854
aI77
aI54
aI0
aS'on'
p982
aa(lp983
F0.025200173868484
aI78
aI5
aI0
aS'on'
p984
aa(lp985
F0.00014807737204592
aI79
aI99
aI0
aS'on'
p986
aa(lp987
F0.031109145199821
aI78
aI0
aI0
aS'off'
p988
aa(lp989
F0.043875529279262
aI77
aI0
aI0
aS'off'
p990
aa(lp991
F0.20785708373114
aI79
aI0
aI0
aS'off'
p992
aa(lp993
F0.16383657936876
aI77
aI68
aI0
aS'on'
p994
aa(lp995
F0.01231892799251
aI79
aI108
aI0
aS'on'
p996
aa(lp997
F0.069538467072903
aI77
aI0
aI0
aS'off'
p998
aa(lp999
F0.17615785787223
aI79
aI0
aI0
aS'off'
p1000
aa(lp1001
F0.25174391979942
aI77
aI92
aI0
aS'on'
p1002
aa(lp1003
F0.11311868133441
aI77
aI0
aI0
aS'off'
p1004
aa(lp1005
F0.13228053468686
aI75
aI89
aI0
aS'on'
p1006
aa(lp1007
F0.094645522877158
aI75
aI0
aI0
aS'off'
p1008
aa(lp1009
F0.16398000270499
aI72
aI104
aI0
aS'on'
p1010
aa(lp1011
F0.094477480016849
aI72
aI0
aI0
aS'off'
p1012
aa(lp1013
F0.17632621156383
aI70
aI96
aI0
aS'on'
p1014
aa(lp1015
F0.10089504602047
aI70
aI0
aI0
aS'off'
p1016
aa(lp1017
F0.13311014391536
aI0
aI0
aI0
aS'timeAfterLastHit'
p1018
aaaI0
aI0
aa(lp1019
(lp1020
(lp1021
F0.0
aI36
aI68
aI1
ag7
aa(lp1022
F0.38938285533914
aI36
aI0
aI1
ag9
aa(lp1023
F0.11061714466086
aI48
aI73
aI1
ag11
aa(lp1024
F0.10403827282698
aI48
aI0
aI1
ag13
aa(lp1025
F0.39596172717302
aI46
aI89
aI1
ag15
aa(lp1026
F0.096792901324079
aI46
aI0
aI1
ag17
aa(lp1027
F0.15320709867592
aI48
aI96
aI1
ag19
aa(lp1028
F0.43047264370034
aI48
aI0
aI1
ag21
aa(lp1029
F0.31952735629966
aI51
aI101
aI1
ag23
aa(lp1030
F0.088411311533491
aI51
aI0
aI1
ag25
aa(lp1031
F0.16158868846651
aI50
aI34
aI1
ag27
aa(lp1032
F0.089384349865213
aI50
aI0
aI1
ag29
aa(lp1033
F0.16061565013479
aI48
aI101
aI1
ag31
aa(lp1034
F0.067107434641002
aI48
aI0
aI1
ag33
aa(lp1035
F0.182892565359
aI46
aI67
aI1
ag35
aa(lp1036
F0.10353138742448
aI46
aI0
aI1
ag37
aa(lp1037
F0.14646861257552
aI45
aI96
aI1
ag39
aa(lp1038
F0.07439333543789
aI45
aI0
aI1
ag41
aa(lp1039
F0.17560666456211
aI43
aI60
aI1
ag43
aa(lp1040
F0.096575607482009
aI43
aI0
aI1
ag45
aa(lp1041
F0.15342439251799
aI41
aI106
aI1
ag47
aa(lp1042
F0.11173222580692
aI41
aI0
aI1
ag49
aa(lp1043
F0.13826777419308
aI39
aI56
aI1
ag51
aa(lp1044
F0.089212410471191
aI39
aI0
aI1
ag53
aa(lp1045
F0.16078758952881
aI31
aI70
aI1
ag55
aa(lp1046
F0.40829532468342
aI31
aI0
aI1
ag57
aa(lp1047
F0.091704675316578
aI43
aI111
aI1
ag59
aa(lp1048
F0.10449205739769
aI43
aI0
aI1
ag61
aa(lp1049
F0.39550794260231
aI41
aI70
aI1
ag63
aa(lp1050
F0.11086367561347
aI41
aI0
aI1
ag65
aa(lp1051
F0.13913632438653
aI43
aI113
aI1
ag67
aa(lp1052
F0.44596244051354
aI43
aI0
aI1
ag69
aa(lp1053
F0.30403755948646
aI46
aI111
aI1
ag71
aa(lp1054
F0.089318333652045
aI46
aI0
aI1
ag73
aa(lp1055
F0.16068166634795
aI45
aI66
aI1
ag75
aa(lp1056
F0.10409030661413
aI45
aI0
aI1
ag77
aa(lp1057
F0.14590969338587
aI43
aI113
aI1
ag79
aa(lp1058
F0.096725209944452
aI43
aI0
aI1
ag81
aa(lp1059
F0.15327479005555
aI41
aI57
aI1
ag83
aa(lp1060
F0.11134329236666
aI41
aI0
aI1
ag85
aa(lp1061
F0.13865670763334
aI39
aI111
aI1
ag87
aa(lp1062
F0.089028959477218
aI39
aI0
aI1
ag89
aa(lp1063
F0.16097104052278
aI38
aI72
aI1
ag91
aa(lp1064
F0.12687349912267
aI38
aI0
aI1
ag93
aa(lp1065
F0.12312650087733
aI36
aI106
aI1
ag95
aa(lp1066
F0.10374908620361
aI36
aI0
aI1
ag97
aa(lp1067
F0.14625091379639
aI34
aI80
aI1
ag99
aa(lp1068
F0.11927437971372
aI34
aI0
aI1
ag101
aa(lp1069
F0.13072562028628
aI0
aI0
aI0
ag103
aaa(lp1070
(lp1071
F0.0
aI36
aI80
aI1
ag106
aa(lp1072
F0.39718249419093
aI36
aI0
aI1
ag108
aa(lp1073
F0.089122684797985
aI48
aI96
aI1
ag110
aa(lp1074
F0.10391098740547
aI48
aI0
aI1
ag112
aa(lp1075
F0.34955784035992
aI46
aI85
aI1
ag114
aa(lp1076
F0.1116042441754
aI46
aI0
aI1
ag116
aa(lp1077
F0.13312122060597
aI48
aI106
aI1
ag118
aa(lp1078
F0.43057920199499
aI48
aI0
aI1
ag120
aa(lp1079
F0.31969792224845
aI51
aI106
aI1
ag122
aa(lp1080
F0.10393402196587
aI51
aI0
aI1
ag124
aa(lp1081
F0.1406512249614
aI50
aI57
aI1
ag126
aa(lp1082
F0.096715414715618
aI50
aI0
aI1
ag128
aa(lp1083
F0.1778514916532
aI48
aI94
aI1
ag130
aa(lp1084
F0.066916507218593
aI48
aI0
aI1
ag132
aa(lp1085
F0.17882964925138
aI46
aI66
aI1
ag134
aa(lp1086
F0.10404397037109
aI46
aI0
aI1
ag136
aa(lp1087
F0.14925343050163
aI45
aI104
aI1
ag138
aa(lp1088
F0.081886506089177
aI45
aI0
aI1
ag140
aa(lp1089
F0.12622449052833
aI43
aI68
aI1
ag142
aa(lp1090
F0.13372831743618
aI43
aI0
aI1
ag144
aa(lp1091
F0.15613246267094
aI41
aI104
aI1
ag146
aa(lp1092
F0.12598751671521
aI41
aI0
aI1
ag148
aa(lp1093
F0.044544471414156
aI39
aI78
aI1
ag150
aa(lp1094
F0.11897076025707
aI39
aI0
aI1
ag152
aa(lp1095
F0.23039769428578
aI31
aI96
aI1
ag154
aa(lp1096
F0.46672963427045
aI31
aI0
aI1
ag156
aa(lp1097
F0.022222640784094
aI43
aI106
aI1
ag158
aa(lp1098
F0.13380503679309
aI43
aI0
aI1
ag160
aa(lp1099
F0.37217254894222
aI41
aI85
aI1
ag162
aa(lp1100
F0.11194357487784
aI41
aI0
aI1
ag164
aa(lp1101
F0.16308653334818
aI43
aI111
aI1
ag166
aa(lp1102
F0.38571119387052
aI43
aI0
aI1
ag168
aa(lp1103
F0.38596619664895
aI46
aI106
aI1
ag170
aa(lp1104
F0.089813210162902
aI46
aI0
aI1
ag172
aa(lp1105
F0.1562341517656
aI45
aI43
aI1
ag174
aa(lp1106
F0.096368120239276
aI45
aI0
aI1
ag176
aa(lp1107
F0.17835759275385
aI43
aI89
aI1
ag178
aa(lp1108
F0.051917509124905
aI43
aI0
aI1
ag180
aa(lp1109
F0.15550453783271
aI41
aI63
aI1
ag182
aa(lp1110
F0.11895248690962
aI41
aI0
aI1
ag184
aa(lp1111
F0.14895420994799
aI39
aI106
aI1
ag186
aa(lp1112
F0.096358734208479
aI39
aI0
aI1
ag188
aa(lp1113
F0.14823343644457
aI38
aI70
aI1
ag190
aa(lp1114
F0.14119500089964
aI38
aI0
aI1
ag192
aa(lp1115
F0.097059194047688
aI36
aI101
aI1
ag194
aa(lp1116
F0.10439860487531
aI36
aI0
aI1
ag196
aa(lp1117
F0.10396850845245
aI34
aI71
aI1
ag198
aa(lp1118
F0.118763989115
aI34
aI0
aI1
ag200
aa(lp1119
F0.1814388278699
aI0
aI0
aI0
ag202
aaa(lp1120
(lp1121
F0.0
aI36
aI64
aI1
ag205
aa(lp1122
F0.42199926171907
aI36
aI0
aI1
ag207
aa(lp1123
F0.078000738280934
aI48
aI99
aI1
ag209
aa(lp1124
F0.11131335113168
aI48
aI0
aI1
ag211
aa(lp1125
F0.38868664886832
aI46
aI82
aI1
ag213
aa(lp1126
F0.12626675465981
aI46
aI0
aI1
ag215
aa(lp1127
F0.20706657867352
aI48
aI111
aI1
ag217
aa(lp1128
F0.40955256677444
aI48
aI0
aI1
ag219
aa(lp1129
F0.25711409989223
aI51
aI108
aI1
ag221
aa(lp1130
F0.096588798507582
aI51
aI0
aI1
ag223
aa(lp1131
F0.15341120149242
aI50
aI47
aI1
ag225
aa(lp1132
F0.10398371990141
aI50
aI0
aI1
ag227
aa(lp1133
F0.14601628009859
aI48
aI101
aI1
ag229
aa(lp1134
F0.081727497705288
aI48
aI0
aI1
ag231
aa(lp1135
F0.16827250229471
aI46
aI49
aI1
ag233
aa(lp1136
F0.11869441655108
aI46
aI0
aI1
ag235
aa(lp1137
F0.13130558344892
aI45
aI99
aI1
ag237
aa(lp1138
F0.095965512692601
aI45
aI0
aI1
ag239
aa(lp1139
F0.1540344873074
aI43
aI32
aI1
ag241
aa(lp1140
F0.11896441054887
aI43
aI0
aI1
ag243
aa(lp1141
F0.13103558945113
aI41
aI111
aI1
ag245
aa(lp1142
F0.13482802312774
aI41
aI0
aI1
ag247
aa(lp1143
F0.031838643538928
aI39
aI59
aI1
ag249
aa(lp1144
F0.088596866779881
aI39
aI0
aI1
ag251
aa(lp1145
F0.24473646655345
aI31
aI101
aI1
ag253
aa(lp1146
F0.4460435388828
aI31
aI0
aI1
ag255
aa(lp1147
F0.053956461117195
aI43
aI113
aI1
ag257
aa(lp1148
F0.10389961931105
aI43
aI0
aI1
ag259
aa(lp1149
F0.39610038068895
aI41
aI78
aI1
ag261
aa(lp1150
F0.12652617765252
aI41
aI0
aI1
ag263
aa(lp1151
F0.20680715568081
aI43
aI118
aI1
ag265
aa(lp1152
F0.37110780571493
aI43
aI0
aI1
ag267
aa(lp1153
F0.29555886095174
aI46
aI111
aI1
ag269
aa(lp1154
F0.088795971103536
aI46
aI0
aI1
ag271
aa(lp1155
F0.16120402889646
aI45
aI39
aI1
ag273
aa(lp1156
F0.11169400252766
aI45
aI0
aI1
ag275
aa(lp1157
F0.13830599747234
aI43
aI111
aI1
ag277
aa(lp1158
F0.088824173240027
aI43
aI0
aI1
ag279
aa(lp1159
F0.16117582675997
aI41
aI59
aI1
ag281
aa(lp1160
F0.14059130412534
aI41
aI0
aI1
ag283
aa(lp1161
F0.10940869587466
aI39
aI113
aI1
ag285
aa(lp1162
F0.096059668525413
aI39
aI0
aI1
ag287
aa(lp1163
F0.15394033147459
aI38
aI72
aI1
ag289
aa(lp1164
F0.12653570008206
aI38
aI0
aI1
ag291
aa(lp1165
F0.12346429991794
aI36
aI108
aI1
ag293
aa(lp1166
F0.11136117498427
aI36
aI0
aI1
ag295
aa(lp1167
F0.13863882501573
aI34
aI89
aI1
ag297
aa(lp1168
F0.12620982752014
aI34
aI0
aI1
ag299
aa(lp1169
F0.12379017247986
aI0
aI0
aI0
ag301
aaaI0
aa(lp1170
(lp1171
(lp1172
F0.0
aI36
aI85
aI2
ag305
aa(lp1173
F0.53878120621266
aI36
aI0
aI2
ag307
aa(lp1174
F0.46121879378734
aI36
aI73
aI2
ag309
aa(lp1175
F0.66853917345998
aI36
aI0
aI2
ag311
aa(lp1176
F0.33146082654002
aI36
aI72
aI2
ag313
aa(lp1177
F0.54307235407487
aI36
aI0
aI2
ag315
aa(lp1178
F0.20692764592513
aI36
aI38
aI2
ag317
aa(lp1179
F0.12681654214703
aI36
aI0
aI2
ag319
aa(lp1180
F0.12318345785297
aI39
aI73
aI2
ag321
aa(lp1181
F0.11843683496136
aI39
aI0
aI2
ag323
aa(lp1182
F0.13156316503864
aI36
aI46
aI2
ag325
aa(lp1183
F0.13385448466215
aI36
aI0
aI2
ag327
aa(lp1184
F0.11614551533785
aI34
aI96
aI2
ag329
aa(lp1185
F0.5
aI31
aI66
aI2
ag331
aa(lp1186
F0.049734665000869
aI34
aI0
aI2
ag333
aa(lp1187
F0.45389595289089
aI31
aI0
aI2
ag335
aa(lp1188
F0.49636938210824
aI31
aI80
aI2
ag337
aa(lp1189
F0.63934880920351
aI31
aI0
aI2
ag339
aa(lp1190
F0.36065119079649
aI31
aI85
aI2
ag341
aa(lp1191
F0.52075540685109
aI31
aI0
aI2
ag343
aa(lp1192
F0.22924459314891
aI31
aI58
aI2
ag345
aa(lp1193
F0.12623056459415
aI31
aI0
aI2
ag347
aa(lp1194
F0.12376943540585
aI34
aI72
aI2
ag349
aa(lp1195
F0.11868081490593
aI34
aI0
aI2
ag351
aa(lp1196
F0.13131918509407
aI31
aI94
aI2
ag353
aa(lp1197
F0.15640518040618
aI31
aI0
aI2
ag355
aa(lp1198
F0.093594819593818
aI39
aI104
aI2
ag357
aa(lp1199
F0.5
aI36
aI94
aI2
ag359
aa(lp1200
F0.058699687628177
aI39
aI0
aI2
ag361
aa(lp1201
F0.43096196157694
aI36
aI0
aI2
ag363
aa(lp1202
F0.51033835079488
aI36
aI101
aI2
ag365
aa(lp1203
F0.57294566781093
aI36
aI0
aI2
ag367
aa(lp1204
F0.42705433218907
aI36
aI85
aI2
ag369
aa(lp1205
F0.51962284721321
aI36
aI0
aI2
ag371
aa(lp1206
F0.23037715278679
aI36
aI80
aI2
ag373
aa(lp1207
F0.1192970150214
aI36
aI0
aI2
ag375
aa(lp1208
F0.1307029849786
aI39
aI78
aI2
ag377
aa(lp1209
F0.11073310806478
aI39
aI0
aI2
ag379
aa(lp1210
F0.13926689193522
aI36
aI67
aI2
ag381
aa(lp1211
F0.14143787117519
aI36
aI0
aI2
ag383
aa(lp1212
F0.10856212882481
aI34
aI89
aI2
ag385
aa(lp1213
F0.5
aI31
aI68
aI2
ag387
aa(lp1214
F0.064561513416265
aI34
aI0
aI2
ag389
aa(lp1215
F0.47862786765927
aI31
aI0
aI2
ag391
aa(lp1216
F0.45681061892446
aI31
aI89
aI2
ag393
aa(lp1217
F0.50573291100227
aI31
aI0
aI2
ag395
aa(lp1218
F0.49426708899773
aI26
aI73
aI2
ag397
aa(lp1219
F0.24650080407719
aI26
aI0
aI2
ag399
aa(lp1220
F0.0034991959228137
aI29
aI53
aI2
ag401
aa(lp1221
F0.25
aI31
aI101
aI2
ag403
aa(lp1222
F0.10025711380149
aI29
aI0
aI2
ag405
aa(lp1223
F0.14974288619851
aI34
aI99
aI2
ag407
aa(lp1224
F0.11442266624999
aI31
aI0
aI2
ag409
aa(lp1225
F0.38557733375001
aI31
aI73
aI2
ag411
aa(lp1226
F0.057677066448377
aI34
aI0
aI2
ag413
aa(lp1227
F0.19232293355162
aI34
aI63
aI2
ag415
aa(lp1228
F0.061363420320049
aI31
aI0
aI2
ag417
aa(lp1229
F0.10530324634662
aI36
aI45
aI2
ag419
aa(lp1230
F0.15911469312353
aI34
aI0
aI2
ag421
aa(lp1231
F0.15246152435035
aI36
aI0
aI2
ag423
aa(lp1232
F0.021757115859449
aI0
aI0
aI0
ag425
aaa(lp1233
(lp1234
F0.0
aI36
aI68
aI2
aS'on'
p1235
aa(lp1236
F0.068323142716963
aI36
aI0
aI2
aS'off'
p1237
aa(lp1238
F0.18167685728304
aI36
aI65
aI2
aS'on'
p1239
aa(lp1240
F0.090914631708984
aI36
aI0
aI2
aS'off'
p1241
aa(lp1242
F0.15908536829102
aI48
aI78
aI2
aS'on'
p1243
aa(lp1244
F0.050004612670818
aI48
aI0
aI2
aS'off'
p1245
aa(lp1246
F0.19999538732918
aI48
aI72
aI2
aS'on'
p1247
aa(lp1248
F0.059468760706295
aI48
aI0
aI2
aS'off'
p1249
aa(lp1250
F0.1905312392937
aI46
aI92
aI2
aS'on'
p1251
aa(lp1252
F0.073217675309024
aI46
aI0
aI2
aS'off'
p1253
aa(lp1254
F0.17678232469098
aI48
aI106
aI2
aS'on'
p1255
aa(lp1256
F0.054884153856619
aI48
aI0
aI2
aS'off'
p1257
aa(lp1258
F0.19511584614338
aI48
aI80
aI2
aS'on'
p1259
aa(lp1260
F0.04072002367775
aI48
aI0
aI2
aS'off'
p1261
aa(lp1262
F0.20927997632225
aI48
aI87
aI2
aS'on'
p1263
aa(lp1264
F0.053974142845163
aI48
aI0
aI2
aS'off'
p1265
aa(lp1266
F0.19602585715484
aI39
aI89
aI2
aS'on'
p1267
aa(lp1268
F0.063295772649326
aI39
aI0
aI2
aS'off'
p1269
aa(lp1270
F0.18670422735067
aI41
aI69
aI2
aS'on'
p1271
aa(lp1272
F0.076956845705354
aI41
aI0
aI2
aS'off'
p1273
aa(lp1274
F0.17304315429465
aI43
aI111
aI2
aS'on'
p1275
aa(lp1276
F0.059543810663399
aI43
aI0
aI2
aS'off'
p1277
aa(lp1278
F0.1904561893366
aI46
aI82
aI2
aS'on'
p1279
aa(lp1280
F0.063749376889518
aI46
aI0
aI2
aS'off'
p1281
aa(lp1282
F0.18625062311048
aI46
aI82
aI2
aS'on'
p1283
aa(lp1284
F0.067799336279677
aI46
aI0
aI2
aS'off'
p1285
aa(lp1286
F0.18220066372032
aI43
aI106
aI2
aS'on'
p1287
aa(lp1288
F0.058919328534103
aI43
aI0
aI2
aS'off'
p1289
aa(lp1290
F0.1910806714659
aI48
aI99
aI2
aS'on'
p1291
aa(lp1292
F0.054826555661748
aI48
aI0
aI2
aS'off'
p1293
aa(lp1294
F0.19517344433825
aI48
aI104
aI2
aS'on'
p1295
aa(lp1296
F0.063276250471972
aI48
aI0
aI2
aS'off'
p1297
aa(lp1298
F0.18672374952803
aI36
aI94
aI2
aS'on'
p1299
aa(lp1300
F0.077284656571919
aI36
aI0
aI2
aS'off'
p1301
aa(lp1302
F0.17271534342808
aI36
aI92
aI2
aS'on'
p1303
aa(lp1304
F0.072628978193734
aI36
aI0
aI2
aS'off'
p1305
aa(lp1306
F0.17737102180627
aI48
aI73
aI2
aS'on'
p1307
aa(lp1308
F0.049940868363592
aI48
aI0
aI2
aS'off'
p1309
aa(lp1310
F0.20005913163641
aI48
aI101
aI2
aS'on'
p1311
aa(lp1312
F0.049737670630748
aI48
aI0
aI2
aS'off'
p1313
aa(lp1314
F0.20026232936925
aI46
aI68
aI2
aS'on'
p1315
aa(lp1316
F0.063618787863561
aI46
aI0
aI2
aS'off'
p1317
aa(lp1318
F0.18638121213644
aI48
aI106
aI2
aS'on'
p1319
aa(lp1320
F0.045426187539306
aI48
aI0
aI2
aS'off'
p1321
aa(lp1322
F0.20457381246069
aI48
aI89
aI2
aS'on'
p1323
aa(lp1324
F0.040533105280701
aI48
aI0
aI2
aS'off'
p1325
aa(lp1326
F0.2094668947193
aI48
aI89
aI2
aS'on'
p1327
aa(lp1328
F0.049610186359132
aI48
aI0
aI2
aS'off'
p1329
aa(lp1330
F0.20038981364087
aI51
aI94
aI2
aS'on'
p1331
aa(lp1332
F0.054507480662778
aI51
aI0
aI2
aS'off'
p1333
aa(lp1334
F0.19549251933722
aI51
aI85
aI2
aS'on'
p1335
aa(lp1336
F0.045660867052902
aI51
aI0
aI2
aS'off'
p1337
aa(lp1338
F0.2043391329471
aI50
aI106
aI2
aS'on'
p1339
aa(lp1340
F0.058858431048975
aI50
aI0
aI2
aS'off'
p1341
aa(lp1342
F0.19114156895102
aI50
aI101
aI2
aS'on'
p1343
aa(lp1344
F0.049883749560649
aI50
aI0
aI2
aS'off'
p1345
aa(lp1346
F0.20011625043935
aI48
aI96
aI2
aS'on'
p1347
aa(lp1348
F0.054906746918277
aI48
aI0
aI2
aS'off'
p1349
aa(lp1350
F0.19509325308172
aI48
aI96
aI2
aS'on'
p1351
aa(lp1352
F0.050397322031131
aI48
aI0
aI2
aS'off'
p1353
aa(lp1354
F0.19960267796887
aI46
aI89
aI2
aS'on'
p1355
aa(lp1356
F0.068112496177491
aI46
aI0
aI2
aS'off'
p1357
aa(lp1358
F0.18188750382251
aI46
aI70
aI2
aS'on'
p1359
aa(lp1360
F0.063727803403253
aI46
aI0
aI2
aS'off'
p1361
aa(lp1362
F0.18627219659675
aI36
aI101
aI2
aS'on'
p1363
aa(lp1364
F0.068167774707945
aI36
aI0
aI2
aS'off'
p1365
aa(lp1366
F0.18183222529206
aI36
aI80
aI2
aS'on'
p1367
aa(lp1368
F0.077242400641808
aI36
aI0
aI2
aS'off'
p1369
aa(lp1370
F0.17275759935819
aI48
aI85
aI2
aS'on'
p1371
aa(lp1372
F0.050058202041328
aI48
aI0
aI2
aS'off'
p1373
aa(lp1374
F0.19994179795867
aI48
aI101
aI2
aS'on'
p1375
aa(lp1376
F0.054569086814354
aI48
aI0
aI2
aS'off'
p1377
aa(lp1378
F0.19543091318565
aI46
aI73
aI2
aS'on'
p1379
aa(lp1380
F0.063733524836607
aI46
aI0
aI2
aS'off'
p1381
aa(lp1382
F0.18626647516339
aI48
aI111
aI2
aS'on'
p1383
aa(lp1384
F0.04985036063681
aI48
aI0
aI2
aS'off'
p1385
aa(lp1386
F0.20014963936319
aI48
aI94
aI2
aS'on'
p1387
aa(lp1388
F0.036478022827851
aI48
aI0
aI2
aS'off'
p1389
aa(lp1390
F0.21352197717215
aI48
aI85
aI2
aS'on'
p1391
aa(lp1392
F0.040634174385559
aI48
aI0
aI2
aS'off'
p1393
aa(lp1394
F0.20936582561444
aI39
aI99
aI2
aS'on'
p1395
aa(lp1396
F0.067938110568775
aI39
aI0
aI2
aS'off'
p1397
aa(lp1398
F0.18206188943122
aI41
aI68
aI2
aS'on'
p1399
aa(lp1400
F0.059478622970801
aI41
aI0
aI2
aS'off'
p1401
aa(lp1402
F0.1905213770292
aI43
aI101
aI2
aS'on'
p1403
aa(lp1404
F0.059145562246158
aI43
aI0
aI2
aS'off'
p1405
aa(lp1406
F0.19085443775384
aI46
aI82
aI2
aS'on'
p1407
aa(lp1408
F0.054639627711822
aI46
aI0
aI2
aS'off'
p1409
aa(lp1410
F0.19536037228818
aI46
aI71
aI2
aS'on'
p1411
aa(lp1412
F0.054559406926728
aI46
aI0
aI2
aS'off'
p1413
aa(lp1414
F0.19544059307327
aI43
aI106
aI2
aS'on'
p1415
aa(lp1416
F0.058698326443846
aI43
aI0
aI2
aS'off'
p1417
aa(lp1418
F0.19130167355615
aI48
aI108
aI2
aS'on'
p1419
aa(lp1420
F0.04967814618476
aI48
aI0
aI2
aS'off'
p1421
aa(lp1422
F0.20032185381524
aI48
aI94
aI2
aS'on'
p1423
aa(lp1424
F0.036057748456187
aI48
aI0
aI2
aS'off'
p1425
aa(lp1426
F0.21394225154381
aI36
aI101
aI2
aS'on'
p1427
aa(lp1428
F0.06346856549726
aI36
aI0
aI2
aS'off'
p1429
aa(lp1430
F0.18653143450274
aI36
aI80
aI2
aS'on'
p1431
aa(lp1432
F0.063698108051994
aI36
aI0
aI2
aS'off'
p1433
aa(lp1434
F0.18630189194801
aI48
aI101
aI2
aS'on'
p1435
aa(lp1436
F0.050048604658059
aI48
aI0
aI2
aS'off'
p1437
aa(lp1438
F0.19995139534194
aI48
aI104
aI2
aS'on'
p1439
aa(lp1440
F0.044930287419902
aI48
aI0
aI2
aS'off'
p1441
aa(lp1442
F0.2050697125801
aI46
aI85
aI2
aS'on'
p1443
aa(lp1444
F0.063296317175173
aI46
aI0
aI2
aS'off'
p1445
aa(lp1446
F0.18670368282483
aI48
aI111
aI2
aS'on'
p1447
aa(lp1448
F0.045390094222967
aI48
aI0
aI2
aS'off'
p1449
aa(lp1450
F0.20460990577703
aI48
aI101
aI2
aS'on'
p1451
aa(lp1452
F0.040607829564124
aI48
aI0
aI2
aS'off'
p1453
aa(lp1454
F0.20939217043588
aI48
aI101
aI2
aS'on'
p1455
aa(lp1456
F0.059020999483892
aI48
aI0
aI2
aS'off'
p1457
aa(lp1458
F0.19097900051611
aI36
aI82
aI2
aS'on'
p1459
aa(lp1460
F0.081691531625438
aI36
aI0
aI2
aS'off'
p1461
aa(lp1462
F0.16830846837456
aI39
aI69
aI2
aS'on'
p1463
aa(lp1464
F0.072233977828091
aI39
aI0
aI2
aS'off'
p1465
aa(lp1466
F0.17776602217191
aI41
aI94
aI2
aS'on'
p1467
aa(lp1468
F0.068314223603011
aI41
aI0
aI2
aS'off'
p1469
aa(lp1470
F0.18168577639699
aI42
aI80
aI2
aS'on'
p1471
aa(lp1472
F0.072553784941192
aI42
aI0
aI2
aS'off'
p1473
aa(lp1474
F0.17744621505881
aI43
aI70
aI2
aS'on'
p1475
aa(lp1476
F0.067959481702928
aI43
aI0
aI2
aS'off'
p1477
aa(lp1478
F0.18204051829707
aI46
aI72
aI2
aS'on'
p1479
aa(lp1480
F0.077096777655242
aI46
aI0
aI2
aS'off'
p1481
aa(lp1482
F0.17290322234476
aI47
aI71
aI2
aS'on'
p1483
aa(lp1484
F0.072823173441066
aI47
aI0
aI2
aS'off'
p1485
aa(lp1486
F0.17717682655893
aI48
aI94
aI2
aS'on'
p1487
aa(lp1488
F0.077292488369949
aI48
aI0
aI2
aS'off'
p1489
aa(lp1490
F0.17270751163005
aI0
aI0
aI0
aS'timeAfterLastHit'
p1491
aaaI0
aI0
aa(lp1492
(lp1493
(lp1494
F0.0
aI36
aI78
aI3
ag429
aa(lp1495
F0.74852806654587
aI36
aI0
aI3
ag431
aa(lp1496
F0.25147193345413
aI38
aI99
aI3
ag433
aa(lp1497
F0.31199060490258
aI38
aI0
aI3
ag435
aa(lp1498
F0.18800939509742
aI36
aI99
aI3
ag437
aa(lp1499
F0.43137179581936
aI36
aI0
aI3
ag439
aa(lp1500
F0.31862820418064
aI36
aI106
aI3
ag441
aa(lp1501
F0.60918132029553
aI36
aI0
aI3
ag443
aa(lp1502
F0.14081867970447
aI40
aI111
aI3
ag445
aa(lp1503
F0.53502309453688
aI40
aI0
aI3
ag447
aa(lp1504
F0.46497690546312
aI36
aI92
aI3
ag449
aa(lp1505
F0.66883410167543
aI36
aI0
aI3
ag451
aa(lp1506
F0.33116589832457
aI38
aI108
aI3
ag453
aa(lp1507
F0.36366882567506
aI38
aI0
aI3
ag455
aa(lp1508
F0.13633117432494
aI36
aI106
aI3
ag457
aa(lp1509
F0.40814834365949
aI36
aI0
aI3
ag459
aa(lp1510
F0.34185165634051
aI36
aI94
aI3
ag461
aa(lp1511
F0.47604323438873
aI36
aI0
aI3
ag463
aa(lp1512
F0.27395676561127
aI38
aI118
aI3
ag465
aa(lp1513
F0.11895540672401
aI38
aI0
aI3
ag467
aa(lp1514
F0.13104459327599
aI38
aI111
aI3
ag469
aa(lp1515
F0.14115638262922
aI38
aI0
aI3
ag471
aa(lp1516
F0.10884361737078
aI38
aI113
aI3
ag473
aa(lp1517
F0.11929517077931
aI38
aI0
aI3
ag475
aa(lp1518
F0.13070482922069
aI38
aI108
aI3
ag477
aa(lp1519
F0.1419342580333
aI38
aI0
aI3
ag479
aa(lp1520
F0.1080657419667
aI0
aI0
aI0
ag481
aaa(lp1521
(lp1522
F0.5
aI37
aI113
aI3
ag484
aa(lp1523
F0.14129695000884
aI37
aI0
aI3
ag486
aa(lp1524
F0.60870304999116
aI40
aI118
aI3
ag488
aa(lp1525
F0.32023817167646
aI40
aI0
aI3
ag490
aa(lp1526
F2.6797618283235
aI40
aI118
aI3
ag492
aa(lp1527
F0.14823458163482
aI40
aI0
aI3
ag494
aa(lp1528
F1.1017654183652
aI37
aI99
aI3
ag496
aa(lp1529
F0.26056305904604
aI37
aI0
aI3
ag498
aa(lp1530
F2.739436940954
aI37
aI115
aI3
ag500
aa(lp1531
F0.22257264094333
aI37
aI0
aI3
ag502
aa(lp1532
F0.52742735905667
aI40
aI122
aI3
ag504
aa(lp1533
F0.3713139317988
aI40
aI0
aI3
ag506
aa(lp1534
F2.8786860682012
aI37
aI113
aI3
ag508
aa(lp1535
F0.13342006605853
aI37
aI0
aI3
ag510
aa(lp1536
F3.6165799339415
aI40
aI118
aI3
ag512
aa(lp1537
F0.16323781381652
aI40
aI0
aI3
ag514
aa(lp1538
F1.0867621861835
aI37
aI111
aI3
ag516
aa(lp1539
F0.35607607302336
aI37
aI0
aI3
ag518
aa(lp1540
F2.3939239269766
aI37
aI108
aI3
ag520
aa(lp1541
F0.25243610688085
aI37
aI0
aI3
ag522
aa(lp1542
F2.9975638931191
aI37
aI113
aI3
ag524
aa(lp1543
F0.31965196820966
aI37
aI0
aI3
ag526
aa(lp1544
F0.68034803179034
aI40
aI115
aI3
ag528
aa(lp1545
F0.11134762733127
aI40
aI0
aI3
ag530
aa(lp1546
F0.63865237266873
aI37
aI118
aI3
ag532
aa(lp1547
F0.096868684349829
aI37
aI0
aI3
ag534
aa(lp1548
F3.1531313156502
aI37
aI106
aI3
ag536
aa(lp1549
F0.13251384244904
aI37
aI0
aI3
ag538
aa(lp1550
F0.36748615755096
aI0
aI0
aI0
ag540
aaa(lp1551
(lp1552
F0.0
aI50
aI113
aI3
ag543
aa(lp1553
F0.097908355492109
aI50
aI0
aI3
ag545
aa(lp1554
F4.4020916445079
aI51
aI11
aI3
ag547
aa(lp1555
F0.059431128420329
aI51
aI0
aI3
ag549
aa(lp1556
F4.9405688715797
aI49
aI8
aI3
ag551
aa(lp1557
F0.036725710948303
aI49
aI0
aI3
ag553
aa(lp1558
F0.7132742890517
aI51
aI45
aI3
ag555
aa(lp1559
F0.081812376913149
aI51
aI0
aI3
ag557
aa(lp1560
F3.1681876230869
aI49
aI36
aI3
ag559
aa(lp1561
F0.03690305946111
aI49
aI0
aI3
ag561
aa(lp1562
F2.4630969405389
aI50
aI101
aI3
ag563
aa(lp1563
F0.10423679176711
aI50
aI0
aI3
ag565
aa(lp1564
F0.89576320823289
aI0
aI0
aI0
ag567
aaaI0
aaa(lp1565
(lp1566
(dp1567
S'button'
p1568
S'50'
p1569
sS'playing'
p1570
I0
sa(dp1571
S'button'
p1572
S'60'
p1573
sS'playing'
p1574
I0
sa(dp1575
a(dp1576
aa(lp1577
(dp1578
g576
g577
sg578
I0
sa(dp1579
g576
g580
sg578
I0
sa(dp1580
g576
g582
sg578
I0
sa(dp1581
aa(lp1582
(dp1583
g576
g586
sg578
I0
sa(dp1584
g1568
I20
sg1570
I0
sa(dp1585
a(dp1586
aa(lp1587
(dp1588
g576
g592
sg578
I0
sa(dp1589
g576
g594
sg578
I0
sa(dp1590
g576
g596
sg578
I0
sa(dp1591
aaa(lp1592
I60
aI60
aI36
aI36
aa(lp1593
(lp1594
I0
aI2
aI3
aI5
aI7
aI8
aI10
aa(lp1595
I0
aI2
aI3
aI5
aI7
aI8
aI10
aa(lp1596
I0
aI2
aI3
aI5
aI7
aI8
aI10
aa(lp1597
I0
aI1
aI2
aI3
aI4
aI5
aI6
aI7
aI8
aI9
aI10
aI11
aaa(lp1598
(lp1599
(lp1600
I0
aI0
aI0
aI0
aI0
aI0
aI0
aI0
aI0
aI0
aI0
aI0
aa(lp1601
I0
aI0
aI0
aI0
aI0
aI0
aI0
aI0
aI0
aI0
aI0
aI0
aa(lp1602
I0
aI0
aI0
aI0
aI0
aI0
aI0
aI0
aI0
aI0
aI0
aI0
aa(lp1603
I0
aI0
aI0
aI0
aI0
aI0
aI0
aI0
aI0
aI0
aI0
aI0
aaa(lp1604
(lp1605
I0
aI0
aI0
aI0
aI0
aI0
aI0
aI0
aI0
aI0
aI0
aI0
aa(lp1606
I0
aI0
aI0
aI0
aI0
aI0
aI0
aI0
aI0
aI0
aI0
aI0
aa(lp1607
I0
aI0
aI0
aI0
aI0
aI0
aI0
aI0
aI0
aI0
aI0
aI0
aa(lp1608
I0
aI0
aI0
aI0
aI0
aI0
aI0
aI0
aI0
aI0
aI0
aI0
aaa(lp1609
(lp1610
I0
aI0
aI0
aI0
aI0
aI0
aI0
aI0
aI0
aI0
aI0
aI0
aa(lp1611
I0
aI0
aI0
aI0
aI0
aI0
aI0
aI0
aI0
aI0
aI0
aI0
aa(lp1612
I0
aI0
aI0
aI0
aI0
aI0
aI0
aI0
aI0
aI0
aI0
aI0
aa(lp1613
I0
aI0
aI0
aI0
aI0
aI0
aI0
aI0
aI0
aI0
aI0
aI0
aaa(lp1614
(lp1615
I0
aI0
aI0
aI0
aI0
aI0
aI0
aI0
aI0
aI0
aI0
aI0
aa(lp1616
I0
aI0
aI0
aI0
aI0
aI0
aI0
aI0
aI0
aI0
aI0
aI0
aa(lp1617
I0
aI0
aI0
aI0
aI0
aI0
aI0
aI0
aI0
aI0
aI0
aI0
aa(lp1618
I0
aI0
aI0
aI0
aI0
aI0
aI0
aI0
aI0
aI0
aI0
aI0
aaaa(lp1619
(lp1620
I0
aI0
aI0
aI0
aI0
aI0
aI0
aI0
aI0
aI0
aI0
aI0
aa(lp1621
I0
aI0
aI0
aI0
aI0
aI0
aI0
aI0
aI0
aI0
aI0
aI0
aa(lp1622
I0
aI0
aI0
aI0
aI0
aI0
aI0
aI0
aI0
aI0
aI0
aI0
aa(lp1623
I0
aI0
aI0
aI0
aI0
aI0
aI0
aI0
aI0
aI0
aI0
aI0
aaaaI0
aI0
aI0
aI0
aI0
aI0
aI0
aI0
a(lp1624
(lp1625
(lp1626
I0
aI0
aI0
aI0
aa(lp1627
(lp1628
(lp1629
F0.0
aI36
aI68
aI1
ag7
aa(lp1630
F0.38938285533914
aI36
aI0
aI1
ag9
aa(lp1631
F0.11061714466086
aI48
aI73
aI1
ag11
aa(lp1632
F0.10403827282698
aI48
aI0
aI1
ag13
aa(lp1633
F0.39596172717302
aI46
aI89
aI1
ag15
aa(lp1634
F0.096792901324079
aI46
aI0
aI1
ag17
aa(lp1635
F0.15320709867592
aI48
aI96
aI1
ag19
aa(lp1636
F0.43047264370034
aI48
aI0
aI1
ag21
aa(lp1637
F0.31952735629966
aI51
aI101
aI1
ag23
aa(lp1638
F0.088411311533491
aI51
aI0
aI1
ag25
aa(lp1639
F0.16158868846651
aI50
aI34
aI1
ag27
aa(lp1640
F0.089384349865213
aI50
aI0
aI1
ag29
aa(lp1641
F0.16061565013479
aI48
aI101
aI1
ag31
aa(lp1642
F0.067107434641002
aI48
aI0
aI1
ag33
aa(lp1643
F0.182892565359
aI46
aI67
aI1
ag35
aa(lp1644
F0.10353138742448
aI46
aI0
aI1
ag37
aa(lp1645
F0.14646861257552
aI45
aI96
aI1
ag39
aa(lp1646
F0.07439333543789
aI45
aI0
aI1
ag41
aa(lp1647
F0.17560666456211
aI43
aI60
aI1
ag43
aa(lp1648
F0.096575607482009
aI43
aI0
aI1
ag45
aa(lp1649
F0.15342439251799
aI41
aI106
aI1
ag47
aa(lp1650
F0.11173222580692
aI41
aI0
aI1
ag49
aa(lp1651
F0.13826777419308
aI39
aI56
aI1
ag51
aa(lp1652
F0.089212410471191
aI39
aI0
aI1
ag53
aa(lp1653
F0.16078758952881
aI31
aI70
aI1
ag55
aa(lp1654
F0.40829532468342
aI31
aI0
aI1
ag57
aa(lp1655
F0.091704675316578
aI43
aI111
aI1
ag59
aa(lp1656
F0.10449205739769
aI43
aI0
aI1
ag61
aa(lp1657
F0.39550794260231
aI41
aI70
aI1
ag63
aa(lp1658
F0.11086367561347
aI41
aI0
aI1
ag65
aa(lp1659
F0.13913632438653
aI43
aI113
aI1
ag67
aa(lp1660
F0.44596244051354
aI43
aI0
aI1
ag69
aa(lp1661
F0.30403755948646
aI46
aI111
aI1
ag71
aa(lp1662
F0.089318333652045
aI46
aI0
aI1
ag73
aa(lp1663
F0.16068166634795
aI45
aI66
aI1
ag75
aa(lp1664
F0.10409030661413
aI45
aI0
aI1
ag77
aa(lp1665
F0.14590969338587
aI43
aI113
aI1
ag79
aa(lp1666
F0.096725209944452
aI43
aI0
aI1
ag81
aa(lp1667
F0.15327479005555
aI41
aI57
aI1
ag83
aa(lp1668
F0.11134329236666
aI41
aI0
aI1
ag85
aa(lp1669
F0.13865670763334
aI39
aI111
aI1
ag87
aa(lp1670
F0.089028959477218
aI39
aI0
aI1
ag89
aa(lp1671
F0.16097104052278
aI38
aI72
aI1
ag91
aa(lp1672
F0.12687349912267
aI38
aI0
aI1
ag93
aa(lp1673
F0.12312650087733
aI36
aI106
aI1
ag95
aa(lp1674
F0.10374908620361
aI36
aI0
aI1
ag97
aa(lp1675
F0.14625091379639
aI34
aI80
aI1
ag99
aa(lp1676
F0.11927437971372
aI34
aI0
aI1
ag101
aa(lp1677
F0.13072562028628
aI0
aI0
aI0
ag103
aaa(lp1678
(lp1679
F0.0
aI36
aI80
aI1
ag106
aa(lp1680
F0.39718249419093
aI36
aI0
aI1
ag108
aa(lp1681
F0.089122684797985
aI48
aI96
aI1
ag110
aa(lp1682
F0.10391098740547
aI48
aI0
aI1
ag112
aa(lp1683
F0.34955784035992
aI46
aI85
aI1
ag114
aa(lp1684
F0.1116042441754
aI46
aI0
aI1
ag116
aa(lp1685
F0.13312122060597
aI48
aI106
aI1
ag118
aa(lp1686
F0.43057920199499
aI48
aI0
aI1
ag120
aa(lp1687
F0.31969792224845
aI51
aI106
aI1
ag122
aa(lp1688
F0.10393402196587
aI51
aI0
aI1
ag124
aa(lp1689
F0.1406512249614
aI50
aI57
aI1
ag126
aa(lp1690
F0.096715414715618
aI50
aI0
aI1
ag128
aa(lp1691
F0.1778514916532
aI48
aI94
aI1
ag130
aa(lp1692
F0.066916507218593
aI48
aI0
aI1
ag132
aa(lp1693
F0.17882964925138
aI46
aI66
aI1
ag134
aa(lp1694
F0.10404397037109
aI46
aI0
aI1
ag136
aa(lp1695
F0.14925343050163
aI45
aI104
aI1
ag138
aa(lp1696
F0.081886506089177
aI45
aI0
aI1
ag140
aa(lp1697
F0.12622449052833
aI43
aI68
aI1
ag142
aa(lp1698
F0.13372831743618
aI43
aI0
aI1
ag144
aa(lp1699
F0.15613246267094
aI41
aI104
aI1
ag146
aa(lp1700
F0.12598751671521
aI41
aI0
aI1
ag148
aa(lp1701
F0.044544471414156
aI39
aI78
aI1
ag150
aa(lp1702
F0.11897076025707
aI39
aI0
aI1
ag152
aa(lp1703
F0.23039769428578
aI31
aI96
aI1
ag154
aa(lp1704
F0.46672963427045
aI31
aI0
aI1
ag156
aa(lp1705
F0.022222640784094
aI43
aI106
aI1
ag158
aa(lp1706
F0.13380503679309
aI43
aI0
aI1
ag160
aa(lp1707
F0.37217254894222
aI41
aI85
aI1
ag162
aa(lp1708
F0.11194357487784
aI41
aI0
aI1
ag164
aa(lp1709
F0.16308653334818
aI43
aI111
aI1
ag166
aa(lp1710
F0.38571119387052
aI43
aI0
aI1
ag168
aa(lp1711
F0.38596619664895
aI46
aI106
aI1
ag170
aa(lp1712
F0.089813210162902
aI46
aI0
aI1
ag172
aa(lp1713
F0.1562341517656
aI45
aI43
aI1
ag174
aa(lp1714
F0.096368120239276
aI45
aI0
aI1
ag176
aa(lp1715
F0.17835759275385
aI43
aI89
aI1
ag178
aa(lp1716
F0.051917509124905
aI43
aI0
aI1
ag180
aa(lp1717
F0.15550453783271
aI41
aI63
aI1
ag182
aa(lp1718
F0.11895248690962
aI41
aI0
aI1
ag184
aa(lp1719
F0.14895420994799
aI39
aI106
aI1
ag186
aa(lp1720
F0.096358734208479
aI39
aI0
aI1
ag188
aa(lp1721
F0.14823343644457
aI38
aI70
aI1
ag190
aa(lp1722
F0.14119500089964
aI38
aI0
aI1
ag192
aa(lp1723
F0.097059194047688
aI36
aI101
aI1
ag194
aa(lp1724
F0.10439860487531
aI36
aI0
aI1
ag196
aa(lp1725
F0.10396850845245
aI34
aI71
aI1
ag198
aa(lp1726
F0.118763989115
aI34
aI0
aI1
ag200
aa(lp1727
F0.1814388278699
aI0
aI0
aI0
ag202
aaa(lp1728
(lp1729
F0.0
aI36
aI64
aI1
ag205
aa(lp1730
F0.42199926171907
aI36
aI0
aI1
ag207
aa(lp1731
F0.078000738280934
aI48
aI99
aI1
ag209
aa(lp1732
F0.11131335113168
aI48
aI0
aI1
ag211
aa(lp1733
F0.38868664886832
aI46
aI82
aI1
ag213
aa(lp1734
F0.12626675465981
aI46
aI0
aI1
ag215
aa(lp1735
F0.20706657867352
aI48
aI111
aI1
ag217
aa(lp1736
F0.40955256677444
aI48
aI0
aI1
ag219
aa(lp1737
F0.25711409989223
aI51
aI108
aI1
ag221
aa(lp1738
F0.096588798507582
aI51
aI0
aI1
ag223
aa(lp1739
F0.15341120149242
aI50
aI47
aI1
ag225
aa(lp1740
F0.10398371990141
aI50
aI0
aI1
ag227
aa(lp1741
F0.14601628009859
aI48
aI101
aI1
ag229
aa(lp1742
F0.081727497705288
aI48
aI0
aI1
ag231
aa(lp1743
F0.16827250229471
aI46
aI49
aI1
ag233
aa(lp1744
F0.11869441655108
aI46
aI0
aI1
ag235
aa(lp1745
F0.13130558344892
aI45
aI99
aI1
ag237
aa(lp1746
F0.095965512692601
aI45
aI0
aI1
ag239
aa(lp1747
F0.1540344873074
aI43
aI32
aI1
ag241
aa(lp1748
F0.11896441054887
aI43
aI0
aI1
ag243
aa(lp1749
F0.13103558945113
aI41
aI111
aI1
ag245
aa(lp1750
F0.13482802312774
aI41
aI0
aI1
ag247
aa(lp1751
F0.031838643538928
aI39
aI59
aI1
ag249
aa(lp1752
F0.088596866779881
aI39
aI0
aI1
ag251
aa(lp1753
F0.24473646655345
aI31
aI101
aI1
ag253
aa(lp1754
F0.4460435388828
aI31
aI0
aI1
ag255
aa(lp1755
F0.053956461117195
aI43
aI113
aI1
ag257
aa(lp1756
F0.10389961931105
aI43
aI0
aI1
ag259
aa(lp1757
F0.39610038068895
aI41
aI78
aI1
ag261
aa(lp1758
F0.12652617765252
aI41
aI0
aI1
ag263
aa(lp1759
F0.20680715568081
aI43
aI118
aI1
ag265
aa(lp1760
F0.37110780571493
aI43
aI0
aI1
ag267
aa(lp1761
F0.29555886095174
aI46
aI111
aI1
ag269
aa(lp1762
F0.088795971103536
aI46
aI0
aI1
ag271
aa(lp1763
F0.16120402889646
aI45
aI39
aI1
ag273
aa(lp1764
F0.11169400252766
aI45
aI0
aI1
ag275
aa(lp1765
F0.13830599747234
aI43
aI111
aI1
ag277
aa(lp1766
F0.088824173240027
aI43
aI0
aI1
ag279
aa(lp1767
F0.16117582675997
aI41
aI59
aI1
ag281
aa(lp1768
F0.14059130412534
aI41
aI0
aI1
ag283
aa(lp1769
F0.10940869587466
aI39
aI113
aI1
ag285
aa(lp1770
F0.096059668525413
aI39
aI0
aI1
ag287
aa(lp1771
F0.15394033147459
aI38
aI72
aI1
ag289
aa(lp1772
F0.12653570008206
aI38
aI0
aI1
ag291
aa(lp1773
F0.12346429991794
aI36
aI108
aI1
ag293
aa(lp1774
F0.11136117498427
aI36
aI0
aI1
ag295
aa(lp1775
F0.13863882501573
aI34
aI89
aI1
ag297
aa(lp1776
F0.12620982752014
aI34
aI0
aI1
ag299
aa(lp1777
F0.12379017247986
aI0
aI0
aI0
ag301
aaaI0
aa(lp1778
(lp1779
(lp1780
F0.0
aI36
aI85
aI2
ag305
aa(lp1781
F0.53878120621266
aI36
aI0
aI2
ag307
aa(lp1782
F0.46121879378734
aI36
aI73
aI2
ag309
aa(lp1783
F0.66853917345998
aI36
aI0
aI2
ag311
aa(lp1784
F0.33146082654002
aI36
aI72
aI2
ag313
aa(lp1785
F0.54307235407487
aI36
aI0
aI2
ag315
aa(lp1786
F0.20692764592513
aI36
aI38
aI2
ag317
aa(lp1787
F0.12681654214703
aI36
aI0
aI2
ag319
aa(lp1788
F0.12318345785297
aI39
aI73
aI2
ag321
aa(lp1789
F0.11843683496136
aI39
aI0
aI2
ag323
aa(lp1790
F0.13156316503864
aI36
aI46
aI2
ag325
aa(lp1791
F0.13385448466215
aI36
aI0
aI2
ag327
aa(lp1792
F0.11614551533785
aI34
aI96
aI2
ag329
aa(lp1793
F0.5
aI31
aI66
aI2
ag331
aa(lp1794
F0.049734665000869
aI34
aI0
aI2
ag333
aa(lp1795
F0.45389595289089
aI31
aI0
aI2
ag335
aa(lp1796
F0.49636938210824
aI31
aI80
aI2
ag337
aa(lp1797
F0.63934880920351
aI31
aI0
aI2
ag339
aa(lp1798
F0.36065119079649
aI31
aI85
aI2
ag341
aa(lp1799
F0.52075540685109
aI31
aI0
aI2
ag343
aa(lp1800
F0.22924459314891
aI31
aI58
aI2
ag345
aa(lp1801
F0.12623056459415
aI31
aI0
aI2
ag347
aa(lp1802
F0.12376943540585
aI34
aI72
aI2
ag349
aa(lp1803
F0.11868081490593
aI34
aI0
aI2
ag351
aa(lp1804
F0.13131918509407
aI31
aI94
aI2
ag353
aa(lp1805
F0.15640518040618
aI31
aI0
aI2
ag355
aa(lp1806
F0.093594819593818
aI39
aI104
aI2
ag357
aa(lp1807
F0.5
aI36
aI94
aI2
ag359
aa(lp1808
F0.058699687628177
aI39
aI0
aI2
ag361
aa(lp1809
F0.43096196157694
aI36
aI0
aI2
ag363
aa(lp1810
F0.51033835079488
aI36
aI101
aI2
ag365
aa(lp1811
F0.57294566781093
aI36
aI0
aI2
ag367
aa(lp1812
F0.42705433218907
aI36
aI85
aI2
ag369
aa(lp1813
F0.51962284721321
aI36
aI0
aI2
ag371
aa(lp1814
F0.23037715278679
aI36
aI80
aI2
ag373
aa(lp1815
F0.1192970150214
aI36
aI0
aI2
ag375
aa(lp1816
F0.1307029849786
aI39
aI78
aI2
ag377
aa(lp1817
F0.11073310806478
aI39
aI0
aI2
ag379
aa(lp1818
F0.13926689193522
aI36
aI67
aI2
ag381
aa(lp1819
F0.14143787117519
aI36
aI0
aI2
ag383
aa(lp1820
F0.10856212882481
aI34
aI89
aI2
ag385
aa(lp1821
F0.5
aI31
aI68
aI2
ag387
aa(lp1822
F0.064561513416265
aI34
aI0
aI2
ag389
aa(lp1823
F0.47862786765927
aI31
aI0
aI2
ag391
aa(lp1824
F0.45681061892446
aI31
aI89
aI2
ag393
aa(lp1825
F0.50573291100227
aI31
aI0
aI2
ag395
aa(lp1826
F0.49426708899773
aI26
aI73
aI2
ag397
aa(lp1827
F0.24650080407719
aI26
aI0
aI2
ag399
aa(lp1828
F0.0034991959228137
aI29
aI53
aI2
ag401
aa(lp1829
F0.25
aI31
aI101
aI2
ag403
aa(lp1830
F0.10025711380149
aI29
aI0
aI2
ag405
aa(lp1831
F0.14974288619851
aI34
aI99
aI2
ag407
aa(lp1832
F0.11442266624999
aI31
aI0
aI2
ag409
aa(lp1833
F0.38557733375001
aI31
aI73
aI2
ag411
aa(lp1834
F0.057677066448377
aI34
aI0
aI2
ag413
aa(lp1835
F0.19232293355162
aI34
aI63
aI2
ag415
aa(lp1836
F0.061363420320049
aI31
aI0
aI2
ag417
aa(lp1837
F0.10530324634662
aI36
aI45
aI2
ag419
aa(lp1838
F0.15911469312353
aI34
aI0
aI2
ag421
aa(lp1839
F0.15246152435035
aI36
aI0
aI2
ag423
aa(lp1840
F0.021757115859449
aI0
aI0
aI0
ag425
aaaI0
aI0
aI0
aa(lp1841
(lp1842
(lp1843
F0.0
aI36
aI78
aI3
ag429
aa(lp1844
F0.74852806654587
aI36
aI0
aI3
ag431
aa(lp1845
F0.25147193345413
aI38
aI99
aI3
ag433
aa(lp1846
F0.31199060490258
aI38
aI0
aI3
ag435
aa(lp1847
F0.18800939509742
aI36
aI99
aI3
ag437
aa(lp1848
F0.43137179581936
aI36
aI0
aI3
ag439
aa(lp1849
F0.31862820418064
aI36
aI106
aI3
ag441
aa(lp1850
F0.60918132029553
aI36
aI0
aI3
ag443
aa(lp1851
F0.14081867970447
aI40
aI111
aI3
ag445
aa(lp1852
F0.53502309453688
aI40
aI0
aI3
ag447
aa(lp1853
F0.46497690546312
aI36
aI92
aI3
ag449
aa(lp1854
F0.66883410167543
aI36
aI0
aI3
ag451
aa(lp1855
F0.33116589832457
aI38
aI108
aI3
ag453
aa(lp1856
F0.36366882567506
aI38
aI0
aI3
ag455
aa(lp1857
F0.13633117432494
aI36
aI106
aI3
ag457
aa(lp1858
F0.40814834365949
aI36
aI0
aI3
ag459
aa(lp1859
F0.34185165634051
aI36
aI94
aI3
ag461
aa(lp1860
F0.47604323438873
aI36
aI0
aI3
ag463
aa(lp1861
F0.27395676561127
aI38
aI118
aI3
ag465
aa(lp1862
F0.11895540672401
aI38
aI0
aI3
ag467
aa(lp1863
F0.13104459327599
aI38
aI111
aI3
ag469
aa(lp1864
F0.14115638262922
aI38
aI0
aI3
ag471
aa(lp1865
F0.10884361737078
aI38
aI113
aI3
ag473
aa(lp1866
F0.11929517077931
aI38
aI0
aI3
ag475
aa(lp1867
F0.13070482922069
aI38
aI108
aI3
ag477
aa(lp1868
F0.1419342580333
aI38
aI0
aI3
ag479
aa(lp1869
F0.1080657419667
aI0
aI0
aI0
ag481
aaa(lp1870
(lp1871
F0.5
aI37
aI113
aI3
ag484
aa(lp1872
F0.14129695000884
aI37
aI0
aI3
ag486
aa(lp1873
F0.60870304999116
aI40
aI118
aI3
ag488
aa(lp1874
F0.32023817167646
aI40
aI0
aI3
ag490
aa(lp1875
F2.6797618283235
aI40
aI118
aI3
ag492
aa(lp1876
F0.14823458163482
aI40
aI0
aI3
ag494
aa(lp1877
F1.1017654183652
aI37
aI99
aI3
ag496
aa(lp1878
F0.26056305904604
aI37
aI0
aI3
ag498
aa(lp1879
F2.739436940954
aI37
aI115
aI3
ag500
aa(lp1880
F0.22257264094333
aI37
aI0
aI3
ag502
aa(lp1881
F0.52742735905667
aI40
aI122
aI3
ag504
aa(lp1882
F0.3713139317988
aI40
aI0
aI3
ag506
aa(lp1883
F2.8786860682012
aI37
aI113
aI3
ag508
aa(lp1884
F0.13342006605853
aI37
aI0
aI3
ag510
aa(lp1885
F3.6165799339415
aI40
aI118
aI3
ag512
aa(lp1886
F0.16323781381652
aI40
aI0
aI3
ag514
aa(lp1887
F1.0867621861835
aI37
aI111
aI3
ag516
aa(lp1888
F0.35607607302336
aI37
aI0
aI3
ag518
aa(lp1889
F2.3939239269766
aI37
aI108
aI3
ag520
aa(lp1890
F0.25243610688085
aI37
aI0
aI3
ag522
aa(lp1891
F2.9975638931191
aI37
aI113
aI3
ag524
aa(lp1892
F0.31965196820966
aI37
aI0
aI3
ag526
aa(lp1893
F0.68034803179034
aI40
aI115
aI3
ag528
aa(lp1894
F0.11134762733127
aI40
aI0
aI3
ag530
aa(lp1895
F0.63865237266873
aI37
aI118
aI3
ag532
aa(lp1896
F0.096868684349829
aI37
aI0
aI3
ag534
aa(lp1897
F3.1531313156502
aI37
aI106
aI3
ag536
aa(lp1898
F0.13251384244904
aI37
aI0
aI3
ag538
aa(lp1899
F0.36748615755096
aI0
aI0
aI0
ag540
aaa(lp1900
(lp1901
F0.0
aI50
aI113
aI3
ag543
aa(lp1902
F0.097908355492109
aI50
aI0
aI3
ag545
aa(lp1903
F4.4020916445079
aI51
aI11
aI3
ag547
aa(lp1904
F0.059431128420329
aI51
aI0
aI3
ag549
aa(lp1905
F4.9405688715797
aI49
aI8
aI3
ag551
aa(lp1906
F0.036725710948303
aI49
aI0
aI3
ag553
aa(lp1907
F0.7132742890517
aI51
aI45
aI3
ag555
aa(lp1908
F0.081812376913149
aI51
aI0
aI3
ag557
aa(lp1909
F3.1681876230869
aI49
aI36
aI3
ag559
aa(lp1910
F0.03690305946111
aI49
aI0
aI3
ag561
aa(lp1911
F2.4630969405389
aI50
aI101
aI3
ag563
aa(lp1912
F0.10423679176711
aI50
aI0
aI3
ag565
aa(lp1913
F0.89576320823289
aI0
aI0
aI0
ag567
aaaI0
aaa(lp1914
(lp1915
(dp1916
a(dp1917
a(dp1918
a(dp1919
aa(lp1920
(dp1921
g576
g577
sg578
I1
sa(dp1922
g576
g580
sg578
I0
sa(dp1923
g576
g582
sg578
I0
sa(dp1924
aa(lp1925
(dp1926
g576
g586
sg578
I01
sa(dp1927
a(dp1928
a(dp1929
aa(lp1930
(dp1931
g576
g592
sg578
I1
sa(dp1932
g576
g594
sg578
I1
sa(dp1933
g576
g596
sg578
I0
sa(dp1934
aaa(lp1935
I60
aI60
aI36
aI36
aa(lp1936
(lp1937
I0
aI2
aI3
aI5
aI7
aI8
aI10
aa(lp1938
I0
aI2
aI3
aI5
aI7
aI8
aI10
aa(lp1939
I0
aI2
aI3
aI5
aI7
aI8
aI10
aa(lp1940
I0
aI1
aI2
aI3
aI4
aI5
aI6
aI7
aI8
aI9
aI10
aI11
aaa(lp1941
(lp1942
(lp1943
I0
aI0
aI0
aI0
aI0
aI0
aI0
aI0
aI0
aI0
aI0
aI0
aa(lp1944
I0
aI0
aI0
aI0
aI0
aI0
aI0
aI0
aI0
aI0
aI0
aI0
aa(lp1945
I0
aI0
aI0
aI0
aI0
aI0
aI0
aI0
aI0
aI0
aI0
aI0
aa(lp1946
I0
aI0
aI0
aI0
aI0
aI0
aI0
aI0
aI0
aI0
aI0
aI0
aaa(lp1947
(lp1948
I0
aI0
aI0
aI0
aI0
aI0
aI0
aI0
aI0
aI0
aI0
aI0
aa(lp1949
I0
aI0
aI0
aI0
aI0
aI0
aI0
aI0
aI0
aI0
aI0
aI0
aa(lp1950
I0
aI0
aI0
aI0
aI0
aI0
aI0
aI0
aI0
aI0
aI0
aI0
aa(lp1951
I0
aI0
aI0
aI0
aI0
aI0
aI0
aI0
aI0
aI0
aI0
aI0
aaa(lp1952
(lp1953
I0
aI0
aI0
aI0
aI0
aI0
aI0
aI0
aI0
aI0
aI0
aI0
aa(lp1954
I0
aI0
aI0
aI0
aI0
aI0
aI0
aI0
aI0
aI0
aI0
aI0
aa(lp1955
I0
aI0
aI0
aI0
aI0
aI0
aI0
aI0
aI0
aI0
aI0
aI0
aa(lp1956
I0
aI0
aI0
aI0
aI0
aI0
aI0
aI0
aI0
aI0
aI0
aI0
aaa(lp1957
(lp1958
I0
aI0
aI0
aI0
aI0
aI0
aI0
aI0
aI0
aI0
aI0
aI0
aa(lp1959
I0
aI0
aI0
aI0
aI0
aI0
aI0
aI0
aI0
aI0
aI0
aI0
aa(lp1960
I0
aI0
aI0
aI0
aI0
aI0
aI0
aI0
aI0
aI0
aI0
aI0
aa(lp1961
I0
aI0
aI0
aI0
aI0
aI0
aI0
aI0
aI0
aI0
aI0
aI0
aaaa(lp1962
(lp1963
I0
aI0
aI0
aI0
aI0
aI0
aI0
aI0
aI0
aI0
aI0
aI0
aa(lp1964
I0
aI0
aI0
aI0
aI0
aI0
aI0
aI0
aI0
aI0
aI0
aI0
aa(lp1965
I0
aI0
aI0
aI0
aI0
aI0
aI0
aI0
aI0
aI0
aI0
aI0
aa(lp1966
I0
aI0
aI0
aI0
aI0
aI0
aI0
aI0
aI0
aI0
aI0
aI0
aaaa(lp1967
(lp1968
(lp1969
(lp1970
(lp1971
F0.0
aI60
aI73
aI0
ag635
aa(lp1972
F0.07723095518304
aI60
aI0
aI0
ag637
aa(lp1973
F0.17276904481696
aI60
aI56
aI0
ag639
aa(lp1974
F0.095503251021
aI60
aI0
aI0
ag641
aa(lp1975
F0.154496748979
aI72
aI68
aI0
ag643
aa(lp1976
F0.063924535143087
aI72
aI0
aI0
ag645
aa(lp1977
F0.18607546485691
aI72
aI63
aI0
ag647
aa(lp1978
F0.080540153590846
aI72
aI0
aI0
ag649
aa(lp1979
F0.16945984640915
aI70
aI65
aI0
ag651
aa(lp1980
F0.071663560727757
aI70
aI0
aI0
ag653
aa(lp1981
F0.17833643927224
aI72
aI69
aI0
ag655
aa(lp1982
F0.047872975137579
aI72
aI0
aI0
ag657
aa(lp1983
F0.20212702486242
aI72
aI50
aI0
ag659
aa(lp1984
F0.047980333534724
aI72
aI0
aI0
ag661
aa(lp1985
F0.20201966646528
aI72
aI59
aI0
ag663
aa(lp1986
F0.063530921850543
aI72
aI0
aI0
ag665
aa(lp1987
F0.18646907814946
aI63
aI85
aI0
ag667
aa(lp1988
F0.11160251278125
aI63
aI0
aI0
ag669
aa(lp1989
F0.13839748721875
aI65
aI59
aI0
ag671
aa(lp1990
F0.096351540258183
aI65
aI0
aI0
ag673
aa(lp1991
F0.15364845974182
aI67
aI73
aI0
ag675
aa(lp1992
F0.055718283580063
aI67
aI0
aI0
ag677
aa(lp1993
F0.19428171641994
aI70
aI56
aI0
ag679
aa(lp1994
F0.072222051749122
aI70
aI0
aI0
ag681
aa(lp1995
F0.17777794825088
aI70
aI34
aI0
ag683
aa(lp1996
F0.10454381130148
aI70
aI0
aI0
ag685
aa(lp1997
F0.14545618869852
aI67
aI70
aI0
ag687
aa(lp1998
F0.063896209976519
aI67
aI0
aI0
ag689
aa(lp1999
F0.18610379002348
aI72
aI70
aI0
ag691
aa(lp2000
F0.087831363447549
aI72
aI0
aI0
ag693
aa(lp2001
F0.16216863655245
aI72
aI66
aI0
ag695
aa(lp2002
F0.071806396725151
aI72
aI0
aI0
ag697
aa(lp2003
F0.17819360327485
aI60
aI70
aI0
ag699
aa(lp2004
F0.10450948115249
aI60
aI0
aI0
ag701
aa(lp2005
F0.14549051884751
aI60
aI63
aI0
ag703
aa(lp2006
F0.10390060640748
aI60
aI0
aI0
ag705
aa(lp2007
F0.14609939359252
aI72
aI70
aI0
ag707
aa(lp2008
F0.080309569866586
aI72
aI0
aI0
ag709
aa(lp2009
F0.16969043013341
aI72
aI60
aI0
ag711
aa(lp2010
F0.079768711313591
aI72
aI0
aI0
ag713
aa(lp2011
F0.17023128868641
aI70
aI72
aI0
ag715
aa(lp2012
F0.095681705364768
aI70
aI0
aI0
ag717
aa(lp2013
F0.15431829463523
aI72
aI75
aI0
ag719
aa(lp2014
F0.06383026837284
aI72
aI0
aI0
ag721
aa(lp2015
F0.18616973162716
aI72
aI63
aI0
ag723
aa(lp2016
F0.09598523931345
aI72
aI0
aI0
ag725
aa(lp2017
F0.15401476068655
aI72
aI42
aI0
ag727
aa(lp2018
F0.11880051764092
aI72
aI0
aI0
ag729
aa(lp2019
F0.13119948235908
aI79
aI101
aI0
ag731
aa(lp2020
F0.0
aI77
aI57
aI0
ag733
aa(lp2021
F0.095883602858521
aI77
aI0
aI0
ag735
aa(lp2022
F0.24832453622003
aI79
aI0
aI0
ag737
aa(lp2023
F0.15579186092145
aI77
aI85
aI0
ag739
aa(lp2024
F0.12824334909965
aI77
aI0
aI0
ag741
aa(lp2025
F0.12175665090035
aI75
aI75
aI0
ag743
aa(lp2026
F0.11188522434895
aI75
aI0
aI0
ag745
aa(lp2027
F0.13811477565105
aI77
aI89
aI0
ag747
aa(lp2028
F0.080690460243204
aI77
aI0
aI0
ag749
aa(lp2029
F0.1693095397568
aI75
aI70
aI0
ag751
aa(lp2030
F0.096273210790969
aI75
aI0
aI0
ag753
aa(lp2031
F0.15372678920903
aI72
aI106
aI0
ag755
aa(lp2032
F0.10372642975562
aI72
aI0
aI0
ag757
aa(lp2033
F0.14627357024438
aI70
aI69
aI0
ag759
aa(lp2034
F0.10431150487238
aI70
aI0
aI0
ag761
aa(lp2035
F0.14568849512762
aI0
aI0
aI0
ag763
aaa(lp2036
(lp2037
F0.013766024713505
aI60
aI101
aI0
ag766
aa(lp2038
F0.081670095122945
aI60
aI0
aI0
ag768
aa(lp2039
F0.17585079270941
aI60
aI80
aI0
ag770
aa(lp2040
F0.11974015747785
aI60
aI0
aI0
ag772
aa(lp2041
F0.12660618555344
aI72
aI101
aI0
ag774
aa(lp2042
F0.075667110581321
aI72
aI0
aI0
ag776
aa(lp2043
F0.17135131473799
aI72
aI72
aI0
ag778
aa(lp2044
F0.075887964640287
aI72
aI0
aI0
ag780
aa(lp2045
F0.16998093069992
aI70
aI92
aI0
ag782
aa(lp2046
F0.094794589367211
aI70
aI0
aI0
ag784
aa(lp2047
F0.17597560954061
aI72
aI106
aI0
ag786
aa(lp2048
F0.050675108132509
aI72
aI0
aI0
ag788
aa(lp2049
F0.20166761367318
aI72
aI89
aI0
ag790
aa(lp2050
F0.056560008111092
aI72
aI0
aI0
ag792
aa(lp2051
F0.18905438508159
aI72
aI75
aI0
ag794
aa(lp2052
F0.057113697414593
aI72
aI0
aI0
ag796
aa(lp2053
F0.20125779467651
aI63
aI101
aI0
ag798
aa(lp2054
F0.088417586845821
aI63
aI0
aI0
ag800
aa(lp2055
F0.15224502548926
aI65
aI61
aI0
ag802
aa(lp2056
F0.06915502174877
aI65
aI0
aI0
ag804
aa(lp2057
F0.16463896020252
aI67
aI106
aI0
ag806
aa(lp2058
F0.069155486790919
aI67
aI0
aI0
ag808
aa(lp2059
F0.18291243365695
aI70
aI80
aI0
ag810
aa(lp2060
F0.075517056177887
aI70
aI0
aI0
ag812
aa(lp2061
F0.17074145533047
aI70
aI80
aI0
ag814
aa(lp2062
F0.094640679692134
aI70
aI0
aI0
ag816
aa(lp2063
F0.16399818994921
aI67
aI106
aI0
ag818
aa(lp2064
F0.062619442263895
aI67
aI0
aI0
ag820
aa(lp2065
F0.19553301015571
aI72
aI94
aI0
ag822
aa(lp2066
F0.063328838762914
aI72
aI0
aI0
ag824
aa(lp2067
F0.1764359374157
aI72
aI94
aI0
ag826
aa(lp2068
F0.068529931608623
aI72
aI0
aI0
ag828
aa(lp2069
F0.16368294679125
aI60
aI73
aI0
ag830
aa(lp2070
F0.069654022818327
aI60
aI0
aI0
ag832
aa(lp2071
F0.18882890108239
aI60
aI70
aI0
ag834
aa(lp2072
F0.094436684013544
aI60
aI0
aI0
ag836
aa(lp2073
F0.17577822083388
aI72
aI111
aI0
ag838
aa(lp2074
F0.056688009155664
aI72
aI0
aI0
ag840
aa(lp2075
F0.18284697475769
aI72
aI87
aI0
ag842
aa(lp2076
F0.075816157795089
aI72
aI0
aI0
ag844
aa(lp2077
F0.17023207996579
aI70
aI87
aI0
ag846
aa(lp2078
F0.088049045761295
aI70
aI0
aI0
ag848
aa(lp2079
F0.17628323010331
aI72
aI101
aI0
ag850
aa(lp2080
F0.056473450032854
aI72
aI0
aI0
ag852
aa(lp2081
F0.20754614161058
aI72
aI85
aI0
ag854
aa(lp2082
F0.069590310839089
aI72
aI0
aI0
ag856
aa(lp2083
F0.17005494227851
aI72
aI67
aI0
ag858
aa(lp2084
F0.081875643753051
aI72
aI0
aI0
ag860
aa(lp2085
F0.18890443067426
aI77
aI54
aI0
ag862
aa(lp2086
F0.018897275693121
aI79
aI106
aI0
ag864
aa(lp2087
F0.075996539934522
aI77
aI0
aI0
ag866
aa(lp2088
F0.2577107611686
aI79
aI0
aI0
ag868
aa(lp2089
F0.10762186023453
aI77
aI63
aI0
ag870
aa(lp2090
F0.11349341976847
aI77
aI0
aI0
ag872
aa(lp2091
F0.13904624136376
aI75
aI70
aI0
ag874
aa(lp2092
F0.11367672829988
aI75
aI0
aI0
ag876
aa(lp2093
F0.15710799534395
aI77
aI94
aI0
ag878
aa(lp2094
F0.094363653119899
aI77
aI0
aI0
ag880
aa(lp2095
F0.15705722864413
aI75
aI66
aI0
ag882
aa(lp2096
F0.088235821627791
aI75
aI0
aI0
ag884
aa(lp2097
F0.13876165123031
aI72
aI104
aI0
ag886
aa(lp2098
F0.10075212266497
aI72
aI0
aI0
ag888
aa(lp2099
F0.13911650489547
aI75
aI94
aI0
ag890
aa(lp2100
F0.66226079908711
aI75
aI0
aI0
ag892
aa(lp2101
F0.050714717435085
aI72
aI108
aI0
ag894
aa(lp2102
F0.081545313230208
aI72
aI0
aI0
ag896
aa(lp2103
F0.15807624562842
aI72
aI92
aI0
ag898
aa(lp2104
F0.088203028927751
aI72
aI0
aI0
ag900
aa(lp2105
F0.20826865928598
aI70
aI94
aI0
ag902
aa(lp2106
F0.11935368094646
aI70
aI0
aI0
ag904
aa(lp2107
F0.15114831152778
aI72
aI106
aI0
ag906
aa(lp2108
F0.050295055447577
aI72
aI0
aI0
ag908
aa(lp2109
F0.19552338884307
aI72
aI89
aI0
ag910
aa(lp2110
F0.050434177746297
aI72
aI0
aI0
ag912
aa(lp2111
F0.15112141859788
aI72
aI73
aI0
ag914
aa(lp2112
F0.081467051214645
aI72
aI0
aI0
ag916
aa(lp2113
F0.20760318637929
aI63
aI87
aI0
ag918
aa(lp2114
F0.088459133422361
aI63
aI0
aI0
ag920
aa(lp2115
F0.15148960547936
aI65
aI82
aI0
ag922
aa(lp2116
F0.094262034181384
aI65
aI0
aI0
ag924
aa(lp2117
F0.11941477616006
aI67
aI89
aI0
ag926
aa(lp2118
F0.056781252516316
aI67
aI0
aI0
ag928
aa(lp2119
F0.22037354138865
aI70
aI71
aI0
ag930
aa(lp2120
F0.094568865618385
aI70
aI0
aI0
ag932
aa(lp2121
F0.14503220969982
aI70
aI69
aI0
ag934
aa(lp2122
F0.088438388446207
aI70
aI0
aI0
ag936
aa(lp2123
F0.16391827257621
aI67
aI111
aI0
ag938
aa(lp2124
F0.062818841735748
aI67
aI0
aI0
ag940
aa(lp2125
F0.23289570243878
aI72
aI101
aI0
ag942
aa(lp2126
F0.069194281667251
aI72
aI0
aI0
ag944
aa(lp2127
F0.13217977595605
aI72
aI82
aI0
ag946
aa(lp2128
F0.075382654177474
aI72
aI0
aI0
ag948
aa(lp2129
F0.15729921200159
aI60
aI80
aI0
ag950
aa(lp2130
F0.069558362684461
aI60
aI0
aI0
ag952
aa(lp2131
F0.21363322890443
aI60
aI82
aI0
ag954
aa(lp2132
F0.10691004093803
aI60
aI0
aI0
ag956
aa(lp2133
F0.17011618688412
aI72
aI106
aI0
ag958
aa(lp2134
F0.056291796858432
aI72
aI0
aI0
ag960
aa(lp2135
F0.16307490418058
aI72
aI73
aI0
ag962
aa(lp2136
F0.06917381258404
aI72
aI0
aI0
ag964
aa(lp2137
F0.20141016826676
aI70
aI89
aI0
ag966
aa(lp2138
F0.082279818391044
aI70
aI0
aI0
ag968
aa(lp2139
F0.18261121766432
aI72
aI106
aI0
ag970
aa(lp2140
F0.069019653520968
aI72
aI0
aI0
ag972
aa(lp2141
F0.17678198058024
aI72
aI92
aI0
ag974
aa(lp2142
F0.07549753404578
aI72
aI0
aI0
ag976
aa(lp2143
F0.16383987924041
aI72
aI70
aI0
ag978
aa(lp2144
F0.094860573547408
aI72
aI0
aI0
ag980
aa(lp2145
F0.15173044068854
aI77
aI54
aI0
ag982
aa(lp2146
F0.025200173868484
aI78
aI5
aI0
ag984
aa(lp2147
F0.00014807737204592
aI79
aI99
aI0
ag986
aa(lp2148
F0.031109145199821
aI78
aI0
aI0
ag988
aa(lp2149
F0.043875529279262
aI77
aI0
aI0
ag990
aa(lp2150
F0.20785708373114
aI79
aI0
aI0
ag992
aa(lp2151
F0.16383657936876
aI77
aI68
aI0
ag994
aa(lp2152
F0.01231892799251
aI79
aI108
aI0
ag996
aa(lp2153
F0.069538467072903
aI77
aI0
aI0
ag998
aa(lp2154
F0.17615785787223
aI79
aI0
aI0
ag1000
aa(lp2155
F0.25174391979942
aI77
aI92
aI0
ag1002
aa(lp2156
F0.11311868133441
aI77
aI0
aI0
ag1004
aa(lp2157
F0.13228053468686
aI75
aI89
aI0
ag1006
aa(lp2158
F0.094645522877158
aI75
aI0
aI0
ag1008
aa(lp2159
F0.16398000270499
aI72
aI104
aI0
ag1010
aa(lp2160
F0.094477480016849
aI72
aI0
aI0
ag1012
aa(lp2161
F0.17632621156383
aI70
aI96
aI0
ag1014
aa(lp2162
F0.10089504602047
aI70
aI0
aI0
ag1016
aa(lp2163
F0.13311014391536
aI0
aI0
aI0
ag1018
aaaI0
aI0
aa(lp2164
(lp2165
(lp2166
F0.0
aI36
aI68
aI1
ag7
aa(lp2167
F0.38938285533914
aI36
aI0
aI1
ag9
aa(lp2168
F0.11061714466086
aI48
aI73
aI1
ag11
aa(lp2169
F0.10403827282698
aI48
aI0
aI1
ag13
aa(lp2170
F0.39596172717302
aI46
aI89
aI1
ag15
aa(lp2171
F0.096792901324079
aI46
aI0
aI1
ag17
aa(lp2172
F0.15320709867592
aI48
aI96
aI1
ag19
aa(lp2173
F0.43047264370034
aI48
aI0
aI1
ag21
aa(lp2174
F0.31952735629966
aI51
aI101
aI1
ag23
aa(lp2175
F0.088411311533491
aI51
aI0
aI1
ag25
aa(lp2176
F0.16158868846651
aI50
aI34
aI1
ag27
aa(lp2177
F0.089384349865213
aI50
aI0
aI1
ag29
aa(lp2178
F0.16061565013479
aI48
aI101
aI1
ag31
aa(lp2179
F0.067107434641002
aI48
aI0
aI1
ag33
aa(lp2180
F0.182892565359
aI46
aI67
aI1
ag35
aa(lp2181
F0.10353138742448
aI46
aI0
aI1
ag37
aa(lp2182
F0.14646861257552
aI45
aI96
aI1
ag39
aa(lp2183
F0.07439333543789
aI45
aI0
aI1
ag41
aa(lp2184
F0.17560666456211
aI43
aI60
aI1
ag43
aa(lp2185
F0.096575607482009
aI43
aI0
aI1
ag45
aa(lp2186
F0.15342439251799
aI41
aI106
aI1
ag47
aa(lp2187
F0.11173222580692
aI41
aI0
aI1
ag49
aa(lp2188
F0.13826777419308
aI39
aI56
aI1
ag51
aa(lp2189
F0.089212410471191
aI39
aI0
aI1
ag53
aa(lp2190
F0.16078758952881
aI31
aI70
aI1
ag55
aa(lp2191
F0.40829532468342
aI31
aI0
aI1
ag57
aa(lp2192
F0.091704675316578
aI43
aI111
aI1
ag59
aa(lp2193
F0.10449205739769
aI43
aI0
aI1
ag61
aa(lp2194
F0.39550794260231
aI41
aI70
aI1
ag63
aa(lp2195
F0.11086367561347
aI41
aI0
aI1
ag65
aa(lp2196
F0.13913632438653
aI43
aI113
aI1
ag67
aa(lp2197
F0.44596244051354
aI43
aI0
aI1
ag69
aa(lp2198
F0.30403755948646
aI46
aI111
aI1
ag71
aa(lp2199
F0.089318333652045
aI46
aI0
aI1
ag73
aa(lp2200
F0.16068166634795
aI45
aI66
aI1
ag75
aa(lp2201
F0.10409030661413
aI45
aI0
aI1
ag77
aa(lp2202
F0.14590969338587
aI43
aI113
aI1
ag79
aa(lp2203
F0.096725209944452
aI43
aI0
aI1
ag81
aa(lp2204
F0.15327479005555
aI41
aI57
aI1
ag83
aa(lp2205
F0.11134329236666
aI41
aI0
aI1
ag85
aa(lp2206
F0.13865670763334
aI39
aI111
aI1
ag87
aa(lp2207
F0.089028959477218
aI39
aI0
aI1
ag89
aa(lp2208
F0.16097104052278
aI38
aI72
aI1
ag91
aa(lp2209
F0.12687349912267
aI38
aI0
aI1
ag93
aa(lp2210
F0.12312650087733
aI36
aI106
aI1
ag95
aa(lp2211
F0.10374908620361
aI36
aI0
aI1
ag97
aa(lp2212
F0.14625091379639
aI34
aI80
aI1
ag99
aa(lp2213
F0.11927437971372
aI34
aI0
aI1
ag101
aa(lp2214
F0.13072562028628
aI0
aI0
aI0
ag103
aaa(lp2215
(lp2216
F0.0
aI36
aI80
aI1
ag106
aa(lp2217
F0.39718249419093
aI36
aI0
aI1
ag108
aa(lp2218
F0.089122684797985
aI48
aI96
aI1
ag110
aa(lp2219
F0.10391098740547
aI48
aI0
aI1
ag112
aa(lp2220
F0.34955784035992
aI46
aI85
aI1
ag114
aa(lp2221
F0.1116042441754
aI46
aI0
aI1
ag116
aa(lp2222
F0.13312122060597
aI48
aI106
aI1
ag118
aa(lp2223
F0.43057920199499
aI48
aI0
aI1
ag120
aa(lp2224
F0.31969792224845
aI51
aI106
aI1
ag122
aa(lp2225
F0.10393402196587
aI51
aI0
aI1
ag124
aa(lp2226
F0.1406512249614
aI50
aI57
aI1
ag126
aa(lp2227
F0.096715414715618
aI50
aI0
aI1
ag128
aa(lp2228
F0.1778514916532
aI48
aI94
aI1
ag130
aa(lp2229
F0.066916507218593
aI48
aI0
aI1
ag132
aa(lp2230
F0.17882964925138
aI46
aI66
aI1
ag134
aa(lp2231
F0.10404397037109
aI46
aI0
aI1
ag136
aa(lp2232
F0.14925343050163
aI45
aI104
aI1
ag138
aa(lp2233
F0.081886506089177
aI45
aI0
aI1
ag140
aa(lp2234
F0.12622449052833
aI43
aI68
aI1
ag142
aa(lp2235
F0.13372831743618
aI43
aI0
aI1
ag144
aa(lp2236
F0.15613246267094
aI41
aI104
aI1
ag146
aa(lp2237
F0.12598751671521
aI41
aI0
aI1
ag148
aa(lp2238
F0.044544471414156
aI39
aI78
aI1
ag150
aa(lp2239
F0.11897076025707
aI39
aI0
aI1
ag152
aa(lp2240
F0.23039769428578
aI31
aI96
aI1
ag154
aa(lp2241
F0.46672963427045
aI31
aI0
aI1
ag156
aa(lp2242
F0.022222640784094
aI43
aI106
aI1
ag158
aa(lp2243
F0.13380503679309
aI43
aI0
aI1
ag160
aa(lp2244
F0.37217254894222
aI41
aI85
aI1
ag162
aa(lp2245
F0.11194357487784
aI41
aI0
aI1
ag164
aa(lp2246
F0.16308653334818
aI43
aI111
aI1
ag166
aa(lp2247
F0.38571119387052
aI43
aI0
aI1
ag168
aa(lp2248
F0.38596619664895
aI46
aI106
aI1
ag170
aa(lp2249
F0.089813210162902
aI46
aI0
aI1
ag172
aa(lp2250
F0.1562341517656
aI45
aI43
aI1
ag174
aa(lp2251
F0.096368120239276
aI45
aI0
aI1
ag176
aa(lp2252
F0.17835759275385
aI43
aI89
aI1
ag178
aa(lp2253
F0.051917509124905
aI43
aI0
aI1
ag180
aa(lp2254
F0.15550453783271
aI41
aI63
aI1
ag182
aa(lp2255
F0.11895248690962
aI41
aI0
aI1
ag184
aa(lp2256
F0.14895420994799
aI39
aI106
aI1
ag186
aa(lp2257
F0.096358734208479
aI39
aI0
aI1
ag188
aa(lp2258
F0.14823343644457
aI38
aI70
aI1
ag190
aa(lp2259
F0.14119500089964
aI38
aI0
aI1
ag192
aa(lp2260
F0.097059194047688
aI36
aI101
aI1
ag194
aa(lp2261
F0.10439860487531
aI36
aI0
aI1
ag196
aa(lp2262
F0.10396850845245
aI34
aI71
aI1
ag198
aa(lp2263
F0.118763989115
aI34
aI0
aI1
ag200
aa(lp2264
F0.1814388278699
aI0
aI0
aI0
ag202
aaa(lp2265
(lp2266
F0.0
aI36
aI64
aI1
ag205
aa(lp2267
F0.42199926171907
aI36
aI0
aI1
ag207
aa(lp2268
F0.078000738280934
aI48
aI99
aI1
ag209
aa(lp2269
F0.11131335113168
aI48
aI0
aI1
ag211
aa(lp2270
F0.38868664886832
aI46
aI82
aI1
ag213
aa(lp2271
F0.12626675465981
aI46
aI0
aI1
ag215
aa(lp2272
F0.20706657867352
aI48
aI111
aI1
ag217
aa(lp2273
F0.40955256677444
aI48
aI0
aI1
ag219
aa(lp2274
F0.25711409989223
aI51
aI108
aI1
ag221
aa(lp2275
F0.096588798507582
aI51
aI0
aI1
ag223
aa(lp2276
F0.15341120149242
aI50
aI47
aI1
ag225
aa(lp2277
F0.10398371990141
aI50
aI0
aI1
ag227
aa(lp2278
F0.14601628009859
aI48
aI101
aI1
ag229
aa(lp2279
F0.081727497705288
aI48
aI0
aI1
ag231
aa(lp2280
F0.16827250229471
aI46
aI49
aI1
ag233
aa(lp2281
F0.11869441655108
aI46
aI0
aI1
ag235
aa(lp2282
F0.13130558344892
aI45
aI99
aI1
ag237
aa(lp2283
F0.095965512692601
aI45
aI0
aI1
ag239
aa(lp2284
F0.1540344873074
aI43
aI32
aI1
ag241
aa(lp2285
F0.11896441054887
aI43
aI0
aI1
ag243
aa(lp2286
F0.13103558945113
aI41
aI111
aI1
ag245
aa(lp2287
F0.13482802312774
aI41
aI0
aI1
ag247
aa(lp2288
F0.031838643538928
aI39
aI59
aI1
ag249
aa(lp2289
F0.088596866779881
aI39
aI0
aI1
ag251
aa(lp2290
F0.24473646655345
aI31
aI101
aI1
ag253
aa(lp2291
F0.4460435388828
aI31
aI0
aI1
ag255
aa(lp2292
F0.053956461117195
aI43
aI113
aI1
ag257
aa(lp2293
F0.10389961931105
aI43
aI0
aI1
ag259
aa(lp2294
F0.39610038068895
aI41
aI78
aI1
ag261
aa(lp2295
F0.12652617765252
aI41
aI0
aI1
ag263
aa(lp2296
F0.20680715568081
aI43
aI118
aI1
ag265
aa(lp2297
F0.37110780571493
aI43
aI0
aI1
ag267
aa(lp2298
F0.29555886095174
aI46
aI111
aI1
ag269
aa(lp2299
F0.088795971103536
aI46
aI0
aI1
ag271
aa(lp2300
F0.16120402889646
aI45
aI39
aI1
ag273
aa(lp2301
F0.11169400252766
aI45
aI0
aI1
ag275
aa(lp2302
F0.13830599747234
aI43
aI111
aI1
ag277
aa(lp2303
F0.088824173240027
aI43
aI0
aI1
ag279
aa(lp2304
F0.16117582675997
aI41
aI59
aI1
ag281
aa(lp2305
F0.14059130412534
aI41
aI0
aI1
ag283
aa(lp2306
F0.10940869587466
aI39
aI113
aI1
ag285
aa(lp2307
F0.096059668525413
aI39
aI0
aI1
ag287
aa(lp2308
F0.15394033147459
aI38
aI72
aI1
ag289
aa(lp2309
F0.12653570008206
aI38
aI0
aI1
ag291
aa(lp2310
F0.12346429991794
aI36
aI108
aI1
ag293
aa(lp2311
F0.11136117498427
aI36
aI0
aI1
ag295
aa(lp2312
F0.13863882501573
aI34
aI89
aI1
ag297
aa(lp2313
F0.12620982752014
aI34
aI0
aI1
ag299
aa(lp2314
F0.12379017247986
aI0
aI0
aI0
ag301
aaaI0
aa(lp2315
(lp2316
(lp2317
F0.0
aI36
aI85
aI2
ag305
aa(lp2318
F0.53878120621266
aI36
aI0
aI2
ag307
aa(lp2319
F0.46121879378734
aI36
aI73
aI2
ag309
aa(lp2320
F0.66853917345998
aI36
aI0
aI2
ag311
aa(lp2321
F0.33146082654002
aI36
aI72
aI2
ag313
aa(lp2322
F0.54307235407487
aI36
aI0
aI2
ag315
aa(lp2323
F0.20692764592513
aI36
aI38
aI2
ag317
aa(lp2324
F0.12681654214703
aI36
aI0
aI2
ag319
aa(lp2325
F0.12318345785297
aI39
aI73
aI2
ag321
aa(lp2326
F0.11843683496136
aI39
aI0
aI2
ag323
aa(lp2327
F0.13156316503864
aI36
aI46
aI2
ag325
aa(lp2328
F0.13385448466215
aI36
aI0
aI2
ag327
aa(lp2329
F0.11614551533785
aI34
aI96
aI2
ag329
aa(lp2330
F0.5
aI31
aI66
aI2
ag331
aa(lp2331
F0.049734665000869
aI34
aI0
aI2
ag333
aa(lp2332
F0.45389595289089
aI31
aI0
aI2
ag335
aa(lp2333
F0.49636938210824
aI31
aI80
aI2
ag337
aa(lp2334
F0.63934880920351
aI31
aI0
aI2
ag339
aa(lp2335
F0.36065119079649
aI31
aI85
aI2
ag341
aa(lp2336
F0.52075540685109
aI31
aI0
aI2
ag343
aa(lp2337
F0.22924459314891
aI31
aI58
aI2
ag345
aa(lp2338
F0.12623056459415
aI31
aI0
aI2
ag347
aa(lp2339
F0.12376943540585
aI34
aI72
aI2
ag349
aa(lp2340
F0.11868081490593
aI34
aI0
aI2
ag351
aa(lp2341
F0.13131918509407
aI31
aI94
aI2
ag353
aa(lp2342
F0.15640518040618
aI31
aI0
aI2
ag355
aa(lp2343
F0.093594819593818
aI39
aI104
aI2
ag357
aa(lp2344
F0.5
aI36
aI94
aI2
ag359
aa(lp2345
F0.058699687628177
aI39
aI0
aI2
ag361
aa(lp2346
F0.43096196157694
aI36
aI0
aI2
ag363
aa(lp2347
F0.51033835079488
aI36
aI101
aI2
ag365
aa(lp2348
F0.57294566781093
aI36
aI0
aI2
ag367
aa(lp2349
F0.42705433218907
aI36
aI85
aI2
ag369
aa(lp2350
F0.51962284721321
aI36
aI0
aI2
ag371
aa(lp2351
F0.23037715278679
aI36
aI80
aI2
ag373
aa(lp2352
F0.1192970150214
aI36
aI0
aI2
ag375
aa(lp2353
F0.1307029849786
aI39
aI78
aI2
ag377
aa(lp2354
F0.11073310806478
aI39
aI0
aI2
ag379
aa(lp2355
F0.13926689193522
aI36
aI67
aI2
ag381
aa(lp2356
F0.14143787117519
aI36
aI0
aI2
ag383
aa(lp2357
F0.10856212882481
aI34
aI89
aI2
ag385
aa(lp2358
F0.5
aI31
aI68
aI2
ag387
aa(lp2359
F0.064561513416265
aI34
aI0
aI2
ag389
aa(lp2360
F0.47862786765927
aI31
aI0
aI2
ag391
aa(lp2361
F0.45681061892446
aI31
aI89
aI2
ag393
aa(lp2362
F0.50573291100227
aI31
aI0
aI2
ag395
aa(lp2363
F0.49426708899773
aI26
aI73
aI2
ag397
aa(lp2364
F0.24650080407719
aI26
aI0
aI2
ag399
aa(lp2365
F0.0034991959228137
aI29
aI53
aI2
ag401
aa(lp2366
F0.25
aI31
aI101
aI2
ag403
aa(lp2367
F0.10025711380149
aI29
aI0
aI2
ag405
aa(lp2368
F0.14974288619851
aI34
aI99
aI2
ag407
aa(lp2369
F0.11442266624999
aI31
aI0
aI2
ag409
aa(lp2370
F0.38557733375001
aI31
aI73
aI2
ag411
aa(lp2371
F0.057677066448377
aI34
aI0
aI2
ag413
aa(lp2372
F0.19232293355162
aI34
aI63
aI2
ag415
aa(lp2373
F0.061363420320049
aI31
aI0
aI2
ag417
aa(lp2374
F0.10530324634662
aI36
aI45
aI2
ag419
aa(lp2375
F0.15911469312353
aI34
aI0
aI2
ag421
aa(lp2376
F0.15246152435035
aI36
aI0
aI2
ag423
aa(lp2377
F0.021757115859449
aI0
aI0
aI0
ag425
aaa(lp2378
(lp2379
F0.0
aI36
aI68
aI2
ag1235
aa(lp2380
F0.068323142716963
aI36
aI0
aI2
ag1237
aa(lp2381
F0.18167685728304
aI36
aI65
aI2
ag1239
aa(lp2382
F0.090914631708984
aI36
aI0
aI2
ag1241
aa(lp2383
F0.15908536829102
aI48
aI78
aI2
ag1243
aa(lp2384
F0.050004612670818
aI48
aI0
aI2
ag1245
aa(lp2385
F0.19999538732918
aI48
aI72
aI2
ag1247
aa(lp2386
F0.059468760706295
aI48
aI0
aI2
ag1249
aa(lp2387
F0.1905312392937
aI46
aI92
aI2
ag1251
aa(lp2388
F0.073217675309024
aI46
aI0
aI2
ag1253
aa(lp2389
F0.17678232469098
aI48
aI106
aI2
ag1255
aa(lp2390
F0.054884153856619
aI48
aI0
aI2
ag1257
aa(lp2391
F0.19511584614338
aI48
aI80
aI2
ag1259
aa(lp2392
F0.04072002367775
aI48
aI0
aI2
ag1261
aa(lp2393
F0.20927997632225
aI48
aI87
aI2
ag1263
aa(lp2394
F0.053974142845163
aI48
aI0
aI2
ag1265
aa(lp2395
F0.19602585715484
aI39
aI89
aI2
ag1267
aa(lp2396
F0.063295772649326
aI39
aI0
aI2
ag1269
aa(lp2397
F0.18670422735067
aI41
aI69
aI2
ag1271
aa(lp2398
F0.076956845705354
aI41
aI0
aI2
ag1273
aa(lp2399
F0.17304315429465
aI43
aI111
aI2
ag1275
aa(lp2400
F0.059543810663399
aI43
aI0
aI2
ag1277
aa(lp2401
F0.1904561893366
aI46
aI82
aI2
ag1279
aa(lp2402
F0.063749376889518
aI46
aI0
aI2
ag1281
aa(lp2403
F0.18625062311048
aI46
aI82
aI2
ag1283
aa(lp2404
F0.067799336279677
aI46
aI0
aI2
ag1285
aa(lp2405
F0.18220066372032
aI43
aI106
aI2
ag1287
aa(lp2406
F0.058919328534103
aI43
aI0
aI2
ag1289
aa(lp2407
F0.1910806714659
aI48
aI99
aI2
ag1291
aa(lp2408
F0.054826555661748
aI48
aI0
aI2
ag1293
aa(lp2409
F0.19517344433825
aI48
aI104
aI2
ag1295
aa(lp2410
F0.063276250471972
aI48
aI0
aI2
ag1297
aa(lp2411
F0.18672374952803
aI36
aI94
aI2
ag1299
aa(lp2412
F0.077284656571919
aI36
aI0
aI2
ag1301
aa(lp2413
F0.17271534342808
aI36
aI92
aI2
ag1303
aa(lp2414
F0.072628978193734
aI36
aI0
aI2
ag1305
aa(lp2415
F0.17737102180627
aI48
aI73
aI2
ag1307
aa(lp2416
F0.049940868363592
aI48
aI0
aI2
ag1309
aa(lp2417
F0.20005913163641
aI48
aI101
aI2
ag1311
aa(lp2418
F0.049737670630748
aI48
aI0
aI2
ag1313
aa(lp2419
F0.20026232936925
aI46
aI68
aI2
ag1315
aa(lp2420
F0.063618787863561
aI46
aI0
aI2
ag1317
aa(lp2421
F0.18638121213644
aI48
aI106
aI2
ag1319
aa(lp2422
F0.045426187539306
aI48
aI0
aI2
ag1321
aa(lp2423
F0.20457381246069
aI48
aI89
aI2
ag1323
aa(lp2424
F0.040533105280701
aI48
aI0
aI2
ag1325
aa(lp2425
F0.2094668947193
aI48
aI89
aI2
ag1327
aa(lp2426
F0.049610186359132
aI48
aI0
aI2
ag1329
aa(lp2427
F0.20038981364087
aI51
aI94
aI2
ag1331
aa(lp2428
F0.054507480662778
aI51
aI0
aI2
ag1333
aa(lp2429
F0.19549251933722
aI51
aI85
aI2
ag1335
aa(lp2430
F0.045660867052902
aI51
aI0
aI2
ag1337
aa(lp2431
F0.2043391329471
aI50
aI106
aI2
ag1339
aa(lp2432
F0.058858431048975
aI50
aI0
aI2
ag1341
aa(lp2433
F0.19114156895102
aI50
aI101
aI2
ag1343
aa(lp2434
F0.049883749560649
aI50
aI0
aI2
ag1345
aa(lp2435
F0.20011625043935
aI48
aI96
aI2
ag1347
aa(lp2436
F0.054906746918277
aI48
aI0
aI2
ag1349
aa(lp2437
F0.19509325308172
aI48
aI96
aI2
ag1351
aa(lp2438
F0.050397322031131
aI48
aI0
aI2
ag1353
aa(lp2439
F0.19960267796887
aI46
aI89
aI2
ag1355
aa(lp2440
F0.068112496177491
aI46
aI0
aI2
ag1357
aa(lp2441
F0.18188750382251
aI46
aI70
aI2
ag1359
aa(lp2442
F0.063727803403253
aI46
aI0
aI2
ag1361
aa(lp2443
F0.18627219659675
aI36
aI101
aI2
ag1363
aa(lp2444
F0.068167774707945
aI36
aI0
aI2
ag1365
aa(lp2445
F0.18183222529206
aI36
aI80
aI2
ag1367
aa(lp2446
F0.077242400641808
aI36
aI0
aI2
ag1369
aa(lp2447
F0.17275759935819
aI48
aI85
aI2
ag1371
aa(lp2448
F0.050058202041328
aI48
aI0
aI2
ag1373
aa(lp2449
F0.19994179795867
aI48
aI101
aI2
ag1375
aa(lp2450
F0.054569086814354
aI48
aI0
aI2
ag1377
aa(lp2451
F0.19543091318565
aI46
aI73
aI2
ag1379
aa(lp2452
F0.063733524836607
aI46
aI0
aI2
ag1381
aa(lp2453
F0.18626647516339
aI48
aI111
aI2
ag1383
aa(lp2454
F0.04985036063681
aI48
aI0
aI2
ag1385
aa(lp2455
F0.20014963936319
aI48
aI94
aI2
ag1387
aa(lp2456
F0.036478022827851
aI48
aI0
aI2
ag1389
aa(lp2457
F0.21352197717215
aI48
aI85
aI2
ag1391
aa(lp2458
F0.040634174385559
aI48
aI0
aI2
ag1393
aa(lp2459
F0.20936582561444
aI39
aI99
aI2
ag1395
aa(lp2460
F0.067938110568775
aI39
aI0
aI2
ag1397
aa(lp2461
F0.18206188943122
aI41
aI68
aI2
ag1399
aa(lp2462
F0.059478622970801
aI41
aI0
aI2
ag1401
aa(lp2463
F0.1905213770292
aI43
aI101
aI2
ag1403
aa(lp2464
F0.059145562246158
aI43
aI0
aI2
ag1405
aa(lp2465
F0.19085443775384
aI46
aI82
aI2
ag1407
aa(lp2466
F0.054639627711822
aI46
aI0
aI2
ag1409
aa(lp2467
F0.19536037228818
aI46
aI71
aI2
ag1411
aa(lp2468
F0.054559406926728
aI46
aI0
aI2
ag1413
aa(lp2469
F0.19544059307327
aI43
aI106
aI2
ag1415
aa(lp2470
F0.058698326443846
aI43
aI0
aI2
ag1417
aa(lp2471
F0.19130167355615
aI48
aI108
aI2
ag1419
aa(lp2472
F0.04967814618476
aI48
aI0
aI2
ag1421
aa(lp2473
F0.20032185381524
aI48
aI94
aI2
ag1423
aa(lp2474
F0.036057748456187
aI48
aI0
aI2
ag1425
aa(lp2475
F0.21394225154381
aI36
aI101
aI2
ag1427
aa(lp2476
F0.06346856549726
aI36
aI0
aI2
ag1429
aa(lp2477
F0.18653143450274
aI36
aI80
aI2
ag1431
aa(lp2478
F0.063698108051994
aI36
aI0
aI2
ag1433
aa(lp2479
F0.18630189194801
aI48
aI101
aI2
ag1435
aa(lp2480
F0.050048604658059
aI48
aI0
aI2
ag1437
aa(lp2481
F0.19995139534194
aI48
aI104
aI2
ag1439
aa(lp2482
F0.044930287419902
aI48
aI0
aI2
ag1441
aa(lp2483
F0.2050697125801
aI46
aI85
aI2
ag1443
aa(lp2484
F0.063296317175173
aI46
aI0
aI2
ag1445
aa(lp2485
F0.18670368282483
aI48
aI111
aI2
ag1447
aa(lp2486
F0.045390094222967
aI48
aI0
aI2
ag1449
aa(lp2487
F0.20460990577703
aI48
aI101
aI2
ag1451
aa(lp2488
F0.040607829564124
aI48
aI0
aI2
ag1453
aa(lp2489
F0.20939217043588
aI48
aI101
aI2
ag1455
aa(lp2490
F0.059020999483892
aI48
aI0
aI2
ag1457
aa(lp2491
F0.19097900051611
aI36
aI82
aI2
ag1459
aa(lp2492
F0.081691531625438
aI36
aI0
aI2
ag1461
aa(lp2493
F0.16830846837456
aI39
aI69
aI2
ag1463
aa(lp2494
F0.072233977828091
aI39
aI0
aI2
ag1465
aa(lp2495
F0.17776602217191
aI41
aI94
aI2
ag1467
aa(lp2496
F0.068314223603011
aI41
aI0
aI2
ag1469
aa(lp2497
F0.18168577639699
aI42
aI80
aI2
ag1471
aa(lp2498
F0.072553784941192
aI42
aI0
aI2
ag1473
aa(lp2499
F0.17744621505881
aI43
aI70
aI2
ag1475
aa(lp2500
F0.067959481702928
aI43
aI0
aI2
ag1477
aa(lp2501
F0.18204051829707
aI46
aI72
aI2
ag1479
aa(lp2502
F0.077096777655242
aI46
aI0
aI2
ag1481
aa(lp2503
F0.17290322234476
aI47
aI71
aI2
ag1483
aa(lp2504
F0.072823173441066
aI47
aI0
aI2
ag1485
aa(lp2505
F0.17717682655893
aI48
aI94
aI2
ag1487
aa(lp2506
F0.077292488369949
aI48
aI0
aI2
ag1489
aa(lp2507
F0.17270751163005
aI0
aI0
aI0
ag1491
aaaI0
aI0
aa(lp2508
(lp2509
(lp2510
F0.0
aI36
aI78
aI3
ag429
aa(lp2511
F0.74852806654587
aI36
aI0
aI3
ag431
aa(lp2512
F0.25147193345413
aI38
aI99
aI3
ag433
aa(lp2513
F0.31199060490258
aI38
aI0
aI3
ag435
aa(lp2514
F0.18800939509742
aI36
aI99
aI3
ag437
aa(lp2515
F0.43137179581936
aI36
aI0
aI3
ag439
aa(lp2516
F0.31862820418064
aI36
aI106
aI3
ag441
aa(lp2517
F0.60918132029553
aI36
aI0
aI3
ag443
aa(lp2518
F0.14081867970447
aI40
aI111
aI3
ag445
aa(lp2519
F0.53502309453688
aI40
aI0
aI3
ag447
aa(lp2520
F0.46497690546312
aI36
aI92
aI3
ag449
aa(lp2521
F0.66883410167543
aI36
aI0
aI3
ag451
aa(lp2522
F0.33116589832457
aI38
aI108
aI3
ag453
aa(lp2523
F0.36366882567506
aI38
aI0
aI3
ag455
aa(lp2524
F0.13633117432494
aI36
aI106
aI3
ag457
aa(lp2525
F0.40814834365949
aI36
aI0
aI3
ag459
aa(lp2526
F0.34185165634051
aI36
aI94
aI3
ag461
aa(lp2527
F0.47604323438873
aI36
aI0
aI3
ag463
aa(lp2528
F0.27395676561127
aI38
aI118
aI3
ag465
aa(lp2529
F0.11895540672401
aI38
aI0
aI3
ag467
aa(lp2530
F0.13104459327599
aI38
aI111
aI3
ag469
aa(lp2531
F0.14115638262922
aI38
aI0
aI3
ag471
aa(lp2532
F0.10884361737078
aI38
aI113
aI3
ag473
aa(lp2533
F0.11929517077931
aI38
aI0
aI3
ag475
aa(lp2534
F0.13070482922069
aI38
aI108
aI3
ag477
aa(lp2535
F0.1419342580333
aI38
aI0
aI3
ag479
aa(lp2536
F0.1080657419667
aI0
aI0
aI0
ag481
aaa(lp2537
(lp2538
F0.5
aI37
aI113
aI3
ag484
aa(lp2539
F0.14129695000884
aI37
aI0
aI3
ag486
aa(lp2540
F0.60870304999116
aI40
aI118
aI3
ag488
aa(lp2541
F0.32023817167646
aI40
aI0
aI3
ag490
aa(lp2542
F2.6797618283235
aI40
aI118
aI3
ag492
aa(lp2543
F0.14823458163482
aI40
aI0
aI3
ag494
aa(lp2544
F1.1017654183652
aI37
aI99
aI3
ag496
aa(lp2545
F0.26056305904604
aI37
aI0
aI3
ag498
aa(lp2546
F2.739436940954
aI37
aI115
aI3
ag500
aa(lp2547
F0.22257264094333
aI37
aI0
aI3
ag502
aa(lp2548
F0.52742735905667
aI40
aI122
aI3
ag504
aa(lp2549
F0.3713139317988
aI40
aI0
aI3
ag506
aa(lp2550
F2.8786860682012
aI37
aI113
aI3
ag508
aa(lp2551
F0.13342006605853
aI37
aI0
aI3
ag510
aa(lp2552
F3.6165799339415
aI40
aI118
aI3
ag512
aa(lp2553
F0.16323781381652
aI40
aI0
aI3
ag514
aa(lp2554
F1.0867621861835
aI37
aI111
aI3
ag516
aa(lp2555
F0.35607607302336
aI37
aI0
aI3
ag518
aa(lp2556
F2.3939239269766
aI37
aI108
aI3
ag520
aa(lp2557
F0.25243610688085
aI37
aI0
aI3
ag522
aa(lp2558
F2.9975638931191
aI37
aI113
aI3
ag524
aa(lp2559
F0.31965196820966
aI37
aI0
aI3
ag526
aa(lp2560
F0.68034803179034
aI40
aI115
aI3
ag528
aa(lp2561
F0.11134762733127
aI40
aI0
aI3
ag530
aa(lp2562
F0.63865237266873
aI37
aI118
aI3
ag532
aa(lp2563
F0.096868684349829
aI37
aI0
aI3
ag534
aa(lp2564
F3.1531313156502
aI37
aI106
aI3
ag536
aa(lp2565
F0.13251384244904
aI37
aI0
aI3
ag538
aa(lp2566
F0.36748615755096
aI0
aI0
aI0
ag540
aaa(lp2567
(lp2568
F0.0
aI50
aI113
aI3
ag543
aa(lp2569
F0.097908355492109
aI50
aI0
aI3
ag545
aa(lp2570
F4.4020916445079
aI51
aI11
aI3
ag547
aa(lp2571
F0.059431128420329
aI51
aI0
aI3
ag549
aa(lp2572
F4.9405688715797
aI49
aI8
aI3
ag551
aa(lp2573
F0.036725710948303
aI49
aI0
aI3
ag553
aa(lp2574
F0.7132742890517
aI51
aI45
aI3
ag555
aa(lp2575
F0.081812376913149
aI51
aI0
aI3
ag557
aa(lp2576
F3.1681876230869
aI49
aI36
aI3
ag559
aa(lp2577
F0.03690305946111
aI49
aI0
aI3
ag561
aa(lp2578
F2.4630969405389
aI50
aI101
aI3
ag563
aa(lp2579
F0.10423679176711
aI50
aI0
aI3
ag565
aa(lp2580
F0.89576320823289
aI0
aI0
aI0
ag567
aaaI0
aaa(lp2581
(lp2582
(dp2583
g1568
g1569
sg1570
I0
sa(dp2584
g1572
g1573
sg1574
I01
sa(dp2585
a(dp2586
aa(lp2587
(dp2588
g576
g577
sg578
I1
sa(dp2589
g576
g580
sg578
I0
sa(dp2590
g576
g582
sg578
I0
sa(dp2591
aa(lp2592
(dp2593
g576
g586
sg578
I0
sa(dp2594
g1568
I20
sg1570
I1
sa(dp2595
a(dp2596
aa(lp2597
(dp2598
g576
g592
sg578
I1
sa(dp2599
g576
g594
sg578
I0
sa(dp2600
g576
g596
sg578
I1
sa(dp2601
aaa(lp2602
I60
aI60
aI36
aI36
aa(lp2603
(lp2604
I0
aI2
aI3
aI5
aI7
aI8
aI10
aa(lp2605
I0
aI2
aI3
aI5
aI7
aI8
aI10
aa(lp2606
I0
aI2
aI3
aI5
aI7
aI8
aI10
aa(lp2607
I0
aI1
aI2
aI3
aI4
aI5
aI6
aI7
aI8
aI9
aI10
aI11
aaa(lp2608
(lp2609
(lp2610
I0
aI0
aI0
aI0
aI0
aI0
aI0
aI0
aI0
aI0
aI0
aI0
aa(lp2611
I0
aI0
aI0
aI0
aI0
aI0
aI0
aI0
aI0
aI0
aI0
aI0
aa(lp2612
I0
aI0
aI0
aI0
aI0
aI0
aI0
aI0
aI0
aI0
aI0
aI0
aa(lp2613
I0
aI0
aI0
aI0
aI0
aI0
aI0
aI0
aI0
aI0
aI0
aI0
aaa(lp2614
(lp2615
I0
aI0
aI0
aI0
aI0
aI0
aI0
aI0
aI0
aI0
aI0
aI0
aa(lp2616
I0
aI0
aI0
aI0
aI0
aI0
aI0
aI0
aI0
aI0
aI0
aI0
aa(lp2617
I0
aI0
aI0
aI0
aI0
aI0
aI0
aI0
aI0
aI0
aI0
aI0
aa(lp2618
I0
aI0
aI0
aI0
aI0
aI0
aI0
aI0
aI0
aI0
aI0
aI0
aaa(lp2619
(lp2620
I0
aI0
aI0
aI0
aI0
aI0
aI0
aI0
aI0
aI0
aI0
aI0
aa(lp2621
I0
aI0
aI0
aI0
aI0
aI0
aI0
aI0
aI0
aI0
aI0
aI0
aa(lp2622
I0
aI0
aI0
aI0
aI0
aI0
aI0
aI0
aI0
aI0
aI0
aI0
aa(lp2623
I0
aI0
aI0
aI0
aI0
aI0
aI0
aI0
aI0
aI0
aI0
aI0
aaa(lp2624
(lp2625
I0
aI0
aI0
aI0
aI0
aI0
aI0
aI0
aI0
aI0
aI0
aI0
aa(lp2626
I0
aI0
aI0
aI0
aI0
aI0
aI0
aI0
aI0
aI0
aI0
aI0
aa(lp2627
I0
aI0
aI0
aI0
aI0
aI0
aI0
aI0
aI0
aI0
aI0
aI0
aa(lp2628
I0
aI0
aI0
aI0
aI0
aI0
aI0
aI0
aI0
aI0
aI0
aI0
aaaa(lp2629
(lp2630
I0
aI0
aI0
aI0
aI0
aI0
aI0
aI0
aI0
aI0
aI0
aI0
aa(lp2631
I0
aI0
aI0
aI0
aI0
aI0
aI0
aI0
aI0
aI0
aI0
aI0
aa(lp2632
I0
aI0
aI0
aI0
aI0
aI0
aI0
aI0
aI0
aI0
aI0
aI0
aa(lp2633
I0
aI0
aI0
aI0
aI0
aI0
aI0
aI0
aI0
aI0
aI0
aI0
aaaa(lp2634
(lp2635
(lp2636
(lp2637
(lp2638
F0.0
aI60
aI73
aI0
ag635
aa(lp2639
F0.07723095518304
aI60
aI0
aI0
ag637
aa(lp2640
F0.17276904481696
aI60
aI56
aI0
ag639
aa(lp2641
F0.095503251021
aI60
aI0
aI0
ag641
aa(lp2642
F0.154496748979
aI72
aI68
aI0
ag643
aa(lp2643
F0.063924535143087
aI72
aI0
aI0
ag645
aa(lp2644
F0.18607546485691
aI72
aI63
aI0
ag647
aa(lp2645
F0.080540153590846
aI72
aI0
aI0
ag649
aa(lp2646
F0.16945984640915
aI70
aI65
aI0
ag651
aa(lp2647
F0.071663560727757
aI70
aI0
aI0
ag653
aa(lp2648
F0.17833643927224
aI72
aI69
aI0
ag655
aa(lp2649
F0.047872975137579
aI72
aI0
aI0
ag657
aa(lp2650
F0.20212702486242
aI72
aI50
aI0
ag659
aa(lp2651
F0.047980333534724
aI72
aI0
aI0
ag661
aa(lp2652
F0.20201966646528
aI72
aI59
aI0
ag663
aa(lp2653
F0.063530921850543
aI72
aI0
aI0
ag665
aa(lp2654
F0.18646907814946
aI63
aI85
aI0
ag667
aa(lp2655
F0.11160251278125
aI63
aI0
aI0
ag669
aa(lp2656
F0.13839748721875
aI65
aI59
aI0
ag671
aa(lp2657
F0.096351540258183
aI65
aI0
aI0
ag673
aa(lp2658
F0.15364845974182
aI67
aI73
aI0
ag675
aa(lp2659
F0.055718283580063
aI67
aI0
aI0
ag677
aa(lp2660
F0.19428171641994
aI70
aI56
aI0
ag679
aa(lp2661
F0.072222051749122
aI70
aI0
aI0
ag681
aa(lp2662
F0.17777794825088
aI70
aI34
aI0
ag683
aa(lp2663
F0.10454381130148
aI70
aI0
aI0
ag685
aa(lp2664
F0.14545618869852
aI67
aI70
aI0
ag687
aa(lp2665
F0.063896209976519
aI67
aI0
aI0
ag689
aa(lp2666
F0.18610379002348
aI72
aI70
aI0
ag691
aa(lp2667
F0.087831363447549
aI72
aI0
aI0
ag693
aa(lp2668
F0.16216863655245
aI72
aI66
aI0
ag695
aa(lp2669
F0.071806396725151
aI72
aI0
aI0
ag697
aa(lp2670
F0.17819360327485
aI60
aI70
aI0
ag699
aa(lp2671
F0.10450948115249
aI60
aI0
aI0
ag701
aa(lp2672
F0.14549051884751
aI60
aI63
aI0
ag703
aa(lp2673
F0.10390060640748
aI60
aI0
aI0
ag705
aa(lp2674
F0.14609939359252
aI72
aI70
aI0
ag707
aa(lp2675
F0.080309569866586
aI72
aI0
aI0
ag709
aa(lp2676
F0.16969043013341
aI72
aI60
aI0
ag711
aa(lp2677
F0.079768711313591
aI72
aI0
aI0
ag713
aa(lp2678
F0.17023128868641
aI70
aI72
aI0
ag715
aa(lp2679
F0.095681705364768
aI70
aI0
aI0
ag717
aa(lp2680
F0.15431829463523
aI72
aI75
aI0
ag719
aa(lp2681
F0.06383026837284
aI72
aI0
aI0
ag721
aa(lp2682
F0.18616973162716
aI72
aI63
aI0
ag723
aa(lp2683
F0.09598523931345
aI72
aI0
aI0
ag725
aa(lp2684
F0.15401476068655
aI72
aI42
aI0
ag727
aa(lp2685
F0.11880051764092
aI72
aI0
aI0
ag729
aa(lp2686
F0.13119948235908
aI79
aI101
aI0
ag731
aa(lp2687
F0.0
aI77
aI57
aI0
ag733
aa(lp2688
F0.095883602858521
aI77
aI0
aI0
ag735
aa(lp2689
F0.24832453622003
aI79
aI0
aI0
ag737
aa(lp2690
F0.15579186092145
aI77
aI85
aI0
ag739
aa(lp2691
F0.12824334909965
aI77
aI0
aI0
ag741
aa(lp2692
F0.12175665090035
aI75
aI75
aI0
ag743
aa(lp2693
F0.11188522434895
aI75
aI0
aI0
ag745
aa(lp2694
F0.13811477565105
aI77
aI89
aI0
ag747
aa(lp2695
F0.080690460243204
aI77
aI0
aI0
ag749
aa(lp2696
F0.1693095397568
aI75
aI70
aI0
ag751
aa(lp2697
F0.096273210790969
aI75
aI0
aI0
ag753
aa(lp2698
F0.15372678920903
aI72
aI106
aI0
ag755
aa(lp2699
F0.10372642975562
aI72
aI0
aI0
ag757
aa(lp2700
F0.14627357024438
aI70
aI69
aI0
ag759
aa(lp2701
F0.10431150487238
aI70
aI0
aI0
ag761
aa(lp2702
F0.14568849512762
aI0
aI0
aI0
ag763
aaa(lp2703
(lp2704
F0.013766024713505
aI60
aI101
aI0
ag766
aa(lp2705
F0.081670095122945
aI60
aI0
aI0
ag768
aa(lp2706
F0.17585079270941
aI60
aI80
aI0
ag770
aa(lp2707
F0.11974015747785
aI60
aI0
aI0
ag772
aa(lp2708
F0.12660618555344
aI72
aI101
aI0
ag774
aa(lp2709
F0.075667110581321
aI72
aI0
aI0
ag776
aa(lp2710
F0.17135131473799
aI72
aI72
aI0
ag778
aa(lp2711
F0.075887964640287
aI72
aI0
aI0
ag780
aa(lp2712
F0.16998093069992
aI70
aI92
aI0
ag782
aa(lp2713
F0.094794589367211
aI70
aI0
aI0
ag784
aa(lp2714
F0.17597560954061
aI72
aI106
aI0
ag786
aa(lp2715
F0.050675108132509
aI72
aI0
aI0
ag788
aa(lp2716
F0.20166761367318
aI72
aI89
aI0
ag790
aa(lp2717
F0.056560008111092
aI72
aI0
aI0
ag792
aa(lp2718
F0.18905438508159
aI72
aI75
aI0
ag794
aa(lp2719
F0.057113697414593
aI72
aI0
aI0
ag796
aa(lp2720
F0.20125779467651
aI63
aI101
aI0
ag798
aa(lp2721
F0.088417586845821
aI63
aI0
aI0
ag800
aa(lp2722
F0.15224502548926
aI65
aI61
aI0
ag802
aa(lp2723
F0.06915502174877
aI65
aI0
aI0
ag804
aa(lp2724
F0.16463896020252
aI67
aI106
aI0
ag806
aa(lp2725
F0.069155486790919
aI67
aI0
aI0
ag808
aa(lp2726
F0.18291243365695
aI70
aI80
aI0
ag810
aa(lp2727
F0.075517056177887
aI70
aI0
aI0
ag812
aa(lp2728
F0.17074145533047
aI70
aI80
aI0
ag814
aa(lp2729
F0.094640679692134
aI70
aI0
aI0
ag816
aa(lp2730
F0.16399818994921
aI67
aI106
aI0
ag818
aa(lp2731
F0.062619442263895
aI67
aI0
aI0
ag820
aa(lp2732
F0.19553301015571
aI72
aI94
aI0
ag822
aa(lp2733
F0.063328838762914
aI72
aI0
aI0
ag824
aa(lp2734
F0.1764359374157
aI72
aI94
aI0
ag826
aa(lp2735
F0.068529931608623
aI72
aI0
aI0
ag828
aa(lp2736
F0.16368294679125
aI60
aI73
aI0
ag830
aa(lp2737
F0.069654022818327
aI60
aI0
aI0
ag832
aa(lp2738
F0.18882890108239
aI60
aI70
aI0
ag834
aa(lp2739
F0.094436684013544
aI60
aI0
aI0
ag836
aa(lp2740
F0.17577822083388
aI72
aI111
aI0
ag838
aa(lp2741
F0.056688009155664
aI72
aI0
aI0
ag840
aa(lp2742
F0.18284697475769
aI72
aI87
aI0
ag842
aa(lp2743
F0.075816157795089
aI72
aI0
aI0
ag844
aa(lp2744
F0.17023207996579
aI70
aI87
aI0
ag846
aa(lp2745
F0.088049045761295
aI70
aI0
aI0
ag848
aa(lp2746
F0.17628323010331
aI72
aI101
aI0
ag850
aa(lp2747
F0.056473450032854
aI72
aI0
aI0
ag852
aa(lp2748
F0.20754614161058
aI72
aI85
aI0
ag854
aa(lp2749
F0.069590310839089
aI72
aI0
aI0
ag856
aa(lp2750
F0.17005494227851
aI72
aI67
aI0
ag858
aa(lp2751
F0.081875643753051
aI72
aI0
aI0
ag860
aa(lp2752
F0.18890443067426
aI77
aI54
aI0
ag862
aa(lp2753
F0.018897275693121
aI79
aI106
aI0
ag864
aa(lp2754
F0.075996539934522
aI77
aI0
aI0
ag866
aa(lp2755
F0.2577107611686
aI79
aI0
aI0
ag868
aa(lp2756
F0.10762186023453
aI77
aI63
aI0
ag870
aa(lp2757
F0.11349341976847
aI77
aI0
aI0
ag872
aa(lp2758
F0.13904624136376
aI75
aI70
aI0
ag874
aa(lp2759
F0.11367672829988
aI75
aI0
aI0
ag876
aa(lp2760
F0.15710799534395
aI77
aI94
aI0
ag878
aa(lp2761
F0.094363653119899
aI77
aI0
aI0
ag880
aa(lp2762
F0.15705722864413
aI75
aI66
aI0
ag882
aa(lp2763
F0.088235821627791
aI75
aI0
aI0
ag884
aa(lp2764
F0.13876165123031
aI72
aI104
aI0
ag886
aa(lp2765
F0.10075212266497
aI72
aI0
aI0
ag888
aa(lp2766
F0.13911650489547
aI75
aI94
aI0
ag890
aa(lp2767
F0.66226079908711
aI75
aI0
aI0
ag892
aa(lp2768
F0.050714717435085
aI72
aI108
aI0
ag894
aa(lp2769
F0.081545313230208
aI72
aI0
aI0
ag896
aa(lp2770
F0.15807624562842
aI72
aI92
aI0
ag898
aa(lp2771
F0.088203028927751
aI72
aI0
aI0
ag900
aa(lp2772
F0.20826865928598
aI70
aI94
aI0
ag902
aa(lp2773
F0.11935368094646
aI70
aI0
aI0
ag904
aa(lp2774
F0.15114831152778
aI72
aI106
aI0
ag906
aa(lp2775
F0.050295055447577
aI72
aI0
aI0
ag908
aa(lp2776
F0.19552338884307
aI72
aI89
aI0
ag910
aa(lp2777
F0.050434177746297
aI72
aI0
aI0
ag912
aa(lp2778
F0.15112141859788
aI72
aI73
aI0
ag914
aa(lp2779
F0.081467051214645
aI72
aI0
aI0
ag916
aa(lp2780
F0.20760318637929
aI63
aI87
aI0
ag918
aa(lp2781
F0.088459133422361
aI63
aI0
aI0
ag920
aa(lp2782
F0.15148960547936
aI65
aI82
aI0
ag922
aa(lp2783
F0.094262034181384
aI65
aI0
aI0
ag924
aa(lp2784
F0.11941477616006
aI67
aI89
aI0
ag926
aa(lp2785
F0.056781252516316
aI67
aI0
aI0
ag928
aa(lp2786
F0.22037354138865
aI70
aI71
aI0
ag930
aa(lp2787
F0.094568865618385
aI70
aI0
aI0
ag932
aa(lp2788
F0.14503220969982
aI70
aI69
aI0
ag934
aa(lp2789
F0.088438388446207
aI70
aI0
aI0
ag936
aa(lp2790
F0.16391827257621
aI67
aI111
aI0
ag938
aa(lp2791
F0.062818841735748
aI67
aI0
aI0
ag940
aa(lp2792
F0.23289570243878
aI72
aI101
aI0
ag942
aa(lp2793
F0.069194281667251
aI72
aI0
aI0
ag944
aa(lp2794
F0.13217977595605
aI72
aI82
aI0
ag946
aa(lp2795
F0.075382654177474
aI72
aI0
aI0
ag948
aa(lp2796
F0.15729921200159
aI60
aI80
aI0
ag950
aa(lp2797
F0.069558362684461
aI60
aI0
aI0
ag952
aa(lp2798
F0.21363322890443
aI60
aI82
aI0
ag954
aa(lp2799
F0.10691004093803
aI60
aI0
aI0
ag956
aa(lp2800
F0.17011618688412
aI72
aI106
aI0
ag958
aa(lp2801
F0.056291796858432
aI72
aI0
aI0
ag960
aa(lp2802
F0.16307490418058
aI72
aI73
aI0
ag962
aa(lp2803
F0.06917381258404
aI72
aI0
aI0
ag964
aa(lp2804
F0.20141016826676
aI70
aI89
aI0
ag966
aa(lp2805
F0.082279818391044
aI70
aI0
aI0
ag968
aa(lp2806
F0.18261121766432
aI72
aI106
aI0
ag970
aa(lp2807
F0.069019653520968
aI72
aI0
aI0
ag972
aa(lp2808
F0.17678198058024
aI72
aI92
aI0
ag974
aa(lp2809
F0.07549753404578
aI72
aI0
aI0
ag976
aa(lp2810
F0.16383987924041
aI72
aI70
aI0
ag978
aa(lp2811
F0.094860573547408
aI72
aI0
aI0
ag980
aa(lp2812
F0.15173044068854
aI77
aI54
aI0
ag982
aa(lp2813
F0.025200173868484
aI78
aI5
aI0
ag984
aa(lp2814
F0.00014807737204592
aI79
aI99
aI0
ag986
aa(lp2815
F0.031109145199821
aI78
aI0
aI0
ag988
aa(lp2816
F0.043875529279262
aI77
aI0
aI0
ag990
aa(lp2817
F0.20785708373114
aI79
aI0
aI0
ag992
aa(lp2818
F0.16383657936876
aI77
aI68
aI0
ag994
aa(lp2819
F0.01231892799251
aI79
aI108
aI0
ag996
aa(lp2820
F0.069538467072903
aI77
aI0
aI0
ag998
aa(lp2821
F0.17615785787223
aI79
aI0
aI0
ag1000
aa(lp2822
F0.25174391979942
aI77
aI92
aI0
ag1002
aa(lp2823
F0.11311868133441
aI77
aI0
aI0
ag1004
aa(lp2824
F0.13228053468686
aI75
aI89
aI0
ag1006
aa(lp2825
F0.094645522877158
aI75
aI0
aI0
ag1008
aa(lp2826
F0.16398000270499
aI72
aI104
aI0
ag1010
aa(lp2827
F0.094477480016849
aI72
aI0
aI0
ag1012
aa(lp2828
F0.17632621156383
aI70
aI96
aI0
ag1014
aa(lp2829
F0.10089504602047
aI70
aI0
aI0
ag1016
aa(lp2830
F0.13311014391536
aI0
aI0
aI0
ag1018
aaa(lp2831
(lp2832
F0.00088029463586281
aI79
aI59
aI0
aS'on'
p2833
aa(lp2834
F0.0086228920335998
aI72
aI57
aI0
aS'on'
p2835
aa(lp2836
F0.0079120587579382
aI82
aI29
aI0
aS'on'
p2837
aa(lp2838
F0.57996646739048
aI72
aI0
aI0
aS'off'
p2839
aa(lp2840
F0.050279753078939
aI82
aI0
aI0
aS'off'
p2841
aa(lp2842
F0.0083840400984627
aI79
aI0
aI0
aS'off'
p2843
aa(lp2844
F0.11021355198318
aI72
aI80
aI0
aS'on'
p2845
aa(lp2846
F0.0083388576240395
aI82
aI85
aI0
aS'on'
p2847
aa(lp2848
F0.00019288524708827
aI79
aI94
aI0
aS'on'
p2849
aa(lp2850
F0.29388710862622
aI82
aI0
aI0
aS'off'
p2851
aa(lp2852
F0.01740000805512
aI72
aI0
aI0
aS'off'
p2853
aa(lp2854
F0.016107873914734
aI79
aI0
aI0
aS'off'
p2855
aa(lp2856
F0.84796376141094
aI80
aI75
aI0
aS'on'
p2857
aa(lp2858
F0.0081897326490434
aI73
aI64
aI0
aS'on'
p2859
aa(lp2860
F0.0085586794448318
aI83
aI60
aI0
aS'on'
p2861
aa(lp2862
F0.57948371753082
aI73
aI0
aI0
aS'off'
p2863
aa(lp2864
F0.059166546998313
aI80
aI0
aI0
aS'off'
p2865
aa(lp2866
F0.0086337392967835
aI83
aI0
aI0
aS'off'
p2867
aa(lp2868
F0.13476924469069
aI83
aI89
aI0
aS'on'
p2869
aa(lp2870
F0.00020100221445318
aI80
aI99
aI0
aS'on'
p2871
aa(lp2872
F0.0001352742256131
aI73
aI71
aI0
aS'on'
p2873
aa(lp2874
F0.30908320007802
aI83
aI0
aI0
aS'off'
p2875
aa(lp2876
F0.009114019194385
aI73
aI0
aI0
aS'off'
p2877
aa(lp2878
F0.024737163421378
aI80
aI0
aI0
aS'off'
p2879
aa(lp2880
F0.97340948204874
aI82
aI69
aI0
aS'on'
p2881
aa(lp2882
F0.00020775162192876
aI79
aI89
aI0
aS'on'
p2883
aa(lp2884
F0.00014275321154855
aI72
aI29
aI0
aS'on'
p2885
aa(lp2886
F0.59532024592772
aI72
aI0
aI0
aS'off'
p2887
aa(lp2888
F0.04240775206199
aI79
aI0
aI0
aS'off'
p2889
aa(lp2890
F0.016915445499762
aI82
aI0
aI0
aS'off'
p2891
aa(lp2892
F0.11785971135396
aI82
aI75
aI0
aS'on'
p2893
aa(lp2894
F0.00022112670194474
aI79
aI111
aI0
aS'on'
p2895
aa(lp2896
F0.00017219830988324
aI72
aI101
aI0
aS'on'
p2897
aa(lp2898
F0.32701896496292
aI72
aI0
aI0
aS'off'
p2899
aa(lp2900
F0.016908755547774
aI82
aI0
aI0
aS'off'
p2901
aa(lp2902
F0.025315566865174
aI79
aI0
aI0
aS'off'
p2903
aa(lp2904
F0.85672519470245
aI78
aI85
aI0
aS'on'
p2905
aa(lp2906
F0.0086762203936814
aI71
aI43
aI0
aS'on'
p2907
aa(lp2908
F0.0081459595239721
aI81
aI61
aI0
aS'on'
p2909
aa(lp2910
F0.56452220338542
aI71
aI0
aI0
aS'off'
p2911
aa(lp2912
F0.033170975584653
aI81
aI0
aI0
aS'off'
p2913
aa(lp2914
F0.016686655006197
aI78
aI0
aI0
aS'off'
p2915
aa(lp2916
F0.12598279359008
aI81
aI72
aI0
aS'on'
p2917
aa(lp2918
F0.00020812605725951
aI78
aI106
aI0
aS'on'
p2919
aa(lp2920
F0.00017401743752998
aI71
aI75
aI0
aS'on'
p2921
aa(lp2922
F0.28505363985823
aI81
aI0
aI0
aS'off'
p2923
aa(lp2924
F0.0084790830187558
aI71
aI0
aI0
aS'off'
p2925
aa(lp2926
F0.050450832921342
aI78
aI0
aI0
aS'off'
p2927
aa(lp2928
F0.8066954107926
aI77
aI96
aI0
aS'on'
p2929
aa(lp2930
F0.00023030429292703
aI70
aI80
aI0
aS'on'
p2931
aa(lp2932
F0.0077223457374203
aI80
aI72
aI0
aS'on'
p2933
aa(lp2934
F3.3173078590662
aI80
aI0
aI0
aS'off'
p2935
aa(lp2936
F0.0002872018085327
aI77
aI0
aI0
aS'off'
p2937
aa(lp2938
F0.00015813382560736
aI70
aI0
aI0
aS'off'
p2939
aa(lp2940
F0.72333485904892
aI84
aI85
aI0
aS'on'
p2941
aa(lp2942
F0.00018496755001252
aI79
aI57
aI0
aS'on'
p2943
aa(lp2944
F0.058001684210467
aI79
aI0
aI0
aS'off'
p2945
aa(lp2946
F0.050624382714886
aI79
aI7
aI0
aS'on'
p2947
aa(lp2948
F0.041919118968508
aI79
aI0
aI0
aS'off'
p2949
aa(lp2950
F0.033896604531037
aI84
aI0
aI0
aS'off'
p2951
aa(lp2952
F0.066994064593018
aI84
aI89
aI0
aS'on'
p2953
aa(lp2954
F0.00022262764105108
aI79
aI65
aI0
aS'on'
p2955
aa(lp2956
F0.092153559413418
aI79
aI0
aI0
aS'off'
p2957
aa(lp2958
F0.025138512191916
aI84
aI0
aI0
aS'off'
p2959
aa(lp2960
F0.033661432629742
aI84
aI101
aI0
aS'on'
p2961
aa(lp2962
F0.0082993623364018
aI79
aI48
aI0
aS'on'
p2963
aa(lp2964
F0.050600033420778
aI79
aI0
aI0
aS'off'
p2965
aa(lp2966
F0.042041553246236
aI84
aI0
aI0
aS'off'
p2967
aa(lp2968
F0.016789454926766
aI79
aI66
aI0
aS'on'
p2969
aa(lp2970
F0.0085265426132537
aI84
aI85
aI0
aS'on'
p2971
aa(lp2972
F0.00024460661006742
aI85
aI31
aI0
aS'on'
p2973
aa(lp2974
F0.04154190736881
aI85
aI0
aI0
aS'off'
p2975
aa(lp2976
F0.14266487185523
aI79
aI0
aI0
aS'off'
p2977
aa(lp2978
F0.050443109666958
aI84
aI0
aI0
aS'off'
p2979
aa(lp2980
F0.0086121877902769
aI79
aI106
aI0
aS'on'
p2981
aa(lp2982
F0.016391800651036
aI89
aI29
aI0
aS'on'
p2983
aa(lp2984
F0.00021127899526618
aI84
aI63
aI0
aS'on'
p2985
aa(lp2986
F0.041732632806088
aI89
aI0
aI0
aS'off'
p2987
aa(lp2988
F0.43732992215882
aI90
aI5
aI0
aS'on'
p2989
aa(lp2990
F0.075778932790854
aI79
aI0
aI0
aS'off'
p2991
aa(lp2992
F0.024857587341103
aI90
aI0
aI0
aS'off'
p2993
aa(lp2994
F0.0085632899281336
aI85
aI5
aI0
aS'on'
p2995
aa(lp2996
F0.025251085909986
aI78
aI8
aI0
aS'on'
p2997
aa(lp2998
F0.075853394842852
aI83
aI18
aI0
aS'on'
p2999
aa(lp3000
F0.00022880013420945
aI80
aI20
aI0
aS'on'
p3001
aa(lp3002
F0.016446694236947
aI78
aI0
aI0
aS'off'
p3003
aa(lp3004
F0.025365184665134
aI78
aI10
aI0
aS'on'
p3005
aa(lp3006
F0.00022284940860118
aI80
aI0
aI0
aS'off'
p3007
aa(lp3008
F0.066616750140383
aI85
aI0
aI0
aS'off'
p3009
aa(lp3010
F0.025757314066141
aI78
aI0
aI0
aS'off'
p3011
aa(lp3012
F0.075171924712777
aI77
aI2
aI0
aS'on'
p3013
aa(lp3014
F0.058483074539254
aI79
aI15
aI0
aS'on'
p3015
aa(lp3016
F0.016986336791888
aI84
aI0
aI0
aS'off'
p3017
aa(lp3018
F0.017124611284089
aI84
aI3
aI0
aS'on'
p3019
aa(lp3020
F0.033347884022078
aI82
aI24
aI0
aS'on'
p3021
aa(lp3022
F0.034087077667209
aI84
aI0
aI0
aS'off'
p3023
aa(lp3024
F0.0001931616498041
aI72
aI1
aI0
aS'on'
p3025
aa(lp3026
F0.0082771262459573
aI83
aI0
aI0
aS'off'
p3027
aa(lp3028
F0.00027528428472579
aI77
aI0
aI0
aS'off'
p3029
aa(lp3030
F0.024403017865552
aI74
aI2
aI0
aS'on'
p3031
aa(lp3032
F0.084763916143856
aI72
aI0
aI0
aS'off'
p3033
aa(lp3034
F0.0079944304743549
aI82
aI0
aI0
aS'off'
p3035
aa(lp3036
F0.10118056265856
aI77
aI4
aI0
aS'on'
p3037
aa(lp3038
F0.016578431444941
aI78
aI5
aI0
aS'on'
p3039
aa(lp3040
F0.025242197578336
aI74
aI0
aI0
aS'off'
p3041
aa(lp3042
F0.02601587427489
aI69
aI10
aI0
aS'on'
p3043
aa(lp3044
F0.024237020981673
aI79
aI0
aI0
aS'off'
p3045
aa(lp3046
F0.033615239350183
aI69
aI0
aI0
aS'off'
p3047
aa(lp3048
F0.033737665595254
aI73
aI4
aI0
aS'on'
p3049
aa(lp3050
F0.058670001024439
aI76
aI18
aI0
aS'on'
p3051
aa(lp3052
F0.0081116805595229
aI77
aI0
aI0
aS'off'
p3053
aa(lp3054
F0.050335106272541
aI77
aI9
aI0
aS'on'
p3055
aa(lp3056
F0.0083919915414299
aI78
aI0
aI0
aS'off'
p3057
aa(lp3058
F0.066883377498016
aI77
aI0
aI0
aS'off'
p3059
aa(lp3060
F0.025416803178814
aI68
aI5
aI0
aS'on'
p3061
aa(lp3062
F0.008383323372982
aI72
aI2
aI0
aS'on'
p3063
aa(lp3064
F0.0080539120499452
aI71
aI18
aI0
aS'on'
p3065
aa(lp3066
F0.00010332380770706
aI73
aI0
aI0
aS'off'
p3067
aa(lp3068
F0.025861299956887
aI76
aI0
aI0
aS'off'
p3069
aa(lp3070
F0.0078905506416049
aI68
aI0
aI0
aS'off'
p3071
aa(lp3072
F0.033724891534803
aI67
aI7
aI0
aS'on'
p3073
aa(lp3074
F0.058673126644862
aI72
aI0
aI0
aS'off'
p3075
aa(lp3076
F0.025410420166736
aI72
aI1
aI0
aS'on'
p3077
aa(lp3078
F0.042224063687172
aI72
aI0
aI0
aS'off'
p3079
aa(lp3080
F0.016566051104746
aI72
aI1
aI0
aS'on'
p3081
aa(lp3082
F0.0079573006878491
aI70
aI14
aI0
aS'on'
p3083
aa(lp3084
F0.025505684854579
aI71
aI0
aI0
aS'off'
p3085
aa(lp3086
F0.0079481504217256
aI72
aI0
aI0
aS'off'
p3087
aa(lp3088
F0.058792219962925
aI66
aI2
aI0
aS'on'
p3089
aa(lp3090
F0.058646276855143
aI65
aI6
aI0
aS'on'
p3091
aa(lp3092
F0.033847124934255
aI70
aI0
aI0
aS'off'
p3093
aa(lp3094
F0.02534759763148
aI62
aI4
aI0
aS'on'
p3095
aa(lp3096
F0.025153084490739
aI67
aI0
aI0
aS'off'
p3097
aa(lp3098
F0.016786308417068
aI62
aI0
aI0
aS'off'
p3099
aa(lp3100
F0.075656090342818
aI61
aI2
aI0
aS'on'
p3101
aa(lp3102
F0.11739070296971
aI64
aI17
aI0
aS'on'
p3103
aa(lp3104
F0.025701003101858
aI66
aI0
aI0
aS'off'
p3105
aa(lp3106
F0.041986065072706
aI65
aI0
aI0
aS'off'
p3107
aa(lp3108
F0.059441877881909
aI64
aI0
aI0
aS'off'
p3109
aa(lp3110
F0.008276518801722
aI59
aI8
aI0
aS'on'
p3111
aa(lp3112
F0.033456886969361
aI60
aI3
aI0
aS'on'
p3113
aa(lp3114
F0.20208778711094
aI61
aI0
aI0
aS'off'
p3115
aa(lp3116
F0.20133553657433
aI59
aI0
aI0
aS'off'
p3117
aa(lp3118
F0.008143195478624
aI60
aI0
aI0
aS'off'
p3119
aa(lp3120
F0.042101344974071
aI54
aI2
aI0
aS'on'
p3121
aa(lp3122
F0.041864987102599
aI54
aI0
aI0
aS'off'
p3123
aa(lp3124
F0.18085794963554
aI0
aI0
aI0
aS'timeAfterLastHit'
p3125
aaaI0
aa(lp3126
(lp3127
(lp3128
F0.0
aI36
aI68
aI1
ag7
aa(lp3129
F0.38938285533914
aI36
aI0
aI1
ag9
aa(lp3130
F0.11061714466086
aI48
aI73
aI1
ag11
aa(lp3131
F0.10403827282698
aI48
aI0
aI1
ag13
aa(lp3132
F0.39596172717302
aI46
aI89
aI1
ag15
aa(lp3133
F0.096792901324079
aI46
aI0
aI1
ag17
aa(lp3134
F0.15320709867592
aI48
aI96
aI1
ag19
aa(lp3135
F0.43047264370034
aI48
aI0
aI1
ag21
aa(lp3136
F0.31952735629966
aI51
aI101
aI1
ag23
aa(lp3137
F0.088411311533491
aI51
aI0
aI1
ag25
aa(lp3138
F0.16158868846651
aI50
aI34
aI1
ag27
aa(lp3139
F0.089384349865213
aI50
aI0
aI1
ag29
aa(lp3140
F0.16061565013479
aI48
aI101
aI1
ag31
aa(lp3141
F0.067107434641002
aI48
aI0
aI1
ag33
aa(lp3142
F0.182892565359
aI46
aI67
aI1
ag35
aa(lp3143
F0.10353138742448
aI46
aI0
aI1
ag37
aa(lp3144
F0.14646861257552
aI45
aI96
aI1
ag39
aa(lp3145
F0.07439333543789
aI45
aI0
aI1
ag41
aa(lp3146
F0.17560666456211
aI43
aI60
aI1
ag43
aa(lp3147
F0.096575607482009
aI43
aI0
aI1
ag45
aa(lp3148
F0.15342439251799
aI41
aI106
aI1
ag47
aa(lp3149
F0.11173222580692
aI41
aI0
aI1
ag49
aa(lp3150
F0.13826777419308
aI39
aI56
aI1
ag51
aa(lp3151
F0.089212410471191
aI39
aI0
aI1
ag53
aa(lp3152
F0.16078758952881
aI31
aI70
aI1
ag55
aa(lp3153
F0.40829532468342
aI31
aI0
aI1
ag57
aa(lp3154
F0.091704675316578
aI43
aI111
aI1
ag59
aa(lp3155
F0.10449205739769
aI43
aI0
aI1
ag61
aa(lp3156
F0.39550794260231
aI41
aI70
aI1
ag63
aa(lp3157
F0.11086367561347
aI41
aI0
aI1
ag65
aa(lp3158
F0.13913632438653
aI43
aI113
aI1
ag67
aa(lp3159
F0.44596244051354
aI43
aI0
aI1
ag69
aa(lp3160
F0.30403755948646
aI46
aI111
aI1
ag71
aa(lp3161
F0.089318333652045
aI46
aI0
aI1
ag73
aa(lp3162
F0.16068166634795
aI45
aI66
aI1
ag75
aa(lp3163
F0.10409030661413
aI45
aI0
aI1
ag77
aa(lp3164
F0.14590969338587
aI43
aI113
aI1
ag79
aa(lp3165
F0.096725209944452
aI43
aI0
aI1
ag81
aa(lp3166
F0.15327479005555
aI41
aI57
aI1
ag83
aa(lp3167
F0.11134329236666
aI41
aI0
aI1
ag85
aa(lp3168
F0.13865670763334
aI39
aI111
aI1
ag87
aa(lp3169
F0.089028959477218
aI39
aI0
aI1
ag89
aa(lp3170
F0.16097104052278
aI38
aI72
aI1
ag91
aa(lp3171
F0.12687349912267
aI38
aI0
aI1
ag93
aa(lp3172
F0.12312650087733
aI36
aI106
aI1
ag95
aa(lp3173
F0.10374908620361
aI36
aI0
aI1
ag97
aa(lp3174
F0.14625091379639
aI34
aI80
aI1
ag99
aa(lp3175
F0.11927437971372
aI34
aI0
aI1
ag101
aa(lp3176
F0.13072562028628
aI0
aI0
aI0
ag103
aaa(lp3177
(lp3178
F0.0
aI36
aI80
aI1
ag106
aa(lp3179
F0.39718249419093
aI36
aI0
aI1
ag108
aa(lp3180
F0.089122684797985
aI48
aI96
aI1
ag110
aa(lp3181
F0.10391098740547
aI48
aI0
aI1
ag112
aa(lp3182
F0.34955784035992
aI46
aI85
aI1
ag114
aa(lp3183
F0.1116042441754
aI46
aI0
aI1
ag116
aa(lp3184
F0.13312122060597
aI48
aI106
aI1
ag118
aa(lp3185
F0.43057920199499
aI48
aI0
aI1
ag120
aa(lp3186
F0.31969792224845
aI51
aI106
aI1
ag122
aa(lp3187
F0.10393402196587
aI51
aI0
aI1
ag124
aa(lp3188
F0.1406512249614
aI50
aI57
aI1
ag126
aa(lp3189
F0.096715414715618
aI50
aI0
aI1
ag128
aa(lp3190
F0.1778514916532
aI48
aI94
aI1
ag130
aa(lp3191
F0.066916507218593
aI48
aI0
aI1
ag132
aa(lp3192
F0.17882964925138
aI46
aI66
aI1
ag134
aa(lp3193
F0.10404397037109
aI46
aI0
aI1
ag136
aa(lp3194
F0.14925343050163
aI45
aI104
aI1
ag138
aa(lp3195
F0.081886506089177
aI45
aI0
aI1
ag140
aa(lp3196
F0.12622449052833
aI43
aI68
aI1
ag142
aa(lp3197
F0.13372831743618
aI43
aI0
aI1
ag144
aa(lp3198
F0.15613246267094
aI41
aI104
aI1
ag146
aa(lp3199
F0.12598751671521
aI41
aI0
aI1
ag148
aa(lp3200
F0.044544471414156
aI39
aI78
aI1
ag150
aa(lp3201
F0.11897076025707
aI39
aI0
aI1
ag152
aa(lp3202
F0.23039769428578
aI31
aI96
aI1
ag154
aa(lp3203
F0.46672963427045
aI31
aI0
aI1
ag156
aa(lp3204
F0.022222640784094
aI43
aI106
aI1
ag158
aa(lp3205
F0.13380503679309
aI43
aI0
aI1
ag160
aa(lp3206
F0.37217254894222
aI41
aI85
aI1
ag162
aa(lp3207
F0.11194357487784
aI41
aI0
aI1
ag164
aa(lp3208
F0.16308653334818
aI43
aI111
aI1
ag166
aa(lp3209
F0.38571119387052
aI43
aI0
aI1
ag168
aa(lp3210
F0.38596619664895
aI46
aI106
aI1
ag170
aa(lp3211
F0.089813210162902
aI46
aI0
aI1
ag172
aa(lp3212
F0.1562341517656
aI45
aI43
aI1
ag174
aa(lp3213
F0.096368120239276
aI45
aI0
aI1
ag176
aa(lp3214
F0.17835759275385
aI43
aI89
aI1
ag178
aa(lp3215
F0.051917509124905
aI43
aI0
aI1
ag180
aa(lp3216
F0.15550453783271
aI41
aI63
aI1
ag182
aa(lp3217
F0.11895248690962
aI41
aI0
aI1
ag184
aa(lp3218
F0.14895420994799
aI39
aI106
aI1
ag186
aa(lp3219
F0.096358734208479
aI39
aI0
aI1
ag188
aa(lp3220
F0.14823343644457
aI38
aI70
aI1
ag190
aa(lp3221
F0.14119500089964
aI38
aI0
aI1
ag192
aa(lp3222
F0.097059194047688
aI36
aI101
aI1
ag194
aa(lp3223
F0.10439860487531
aI36
aI0
aI1
ag196
aa(lp3224
F0.10396850845245
aI34
aI71
aI1
ag198
aa(lp3225
F0.118763989115
aI34
aI0
aI1
ag200
aa(lp3226
F0.1814388278699
aI0
aI0
aI0
ag202
aaa(lp3227
(lp3228
F0.0
aI36
aI64
aI1
ag205
aa(lp3229
F0.42199926171907
aI36
aI0
aI1
ag207
aa(lp3230
F0.078000738280934
aI48
aI99
aI1
ag209
aa(lp3231
F0.11131335113168
aI48
aI0
aI1
ag211
aa(lp3232
F0.38868664886832
aI46
aI82
aI1
ag213
aa(lp3233
F0.12626675465981
aI46
aI0
aI1
ag215
aa(lp3234
F0.20706657867352
aI48
aI111
aI1
ag217
aa(lp3235
F0.40955256677444
aI48
aI0
aI1
ag219
aa(lp3236
F0.25711409989223
aI51
aI108
aI1
ag221
aa(lp3237
F0.096588798507582
aI51
aI0
aI1
ag223
aa(lp3238
F0.15341120149242
aI50
aI47
aI1
ag225
aa(lp3239
F0.10398371990141
aI50
aI0
aI1
ag227
aa(lp3240
F0.14601628009859
aI48
aI101
aI1
ag229
aa(lp3241
F0.081727497705288
aI48
aI0
aI1
ag231
aa(lp3242
F0.16827250229471
aI46
aI49
aI1
ag233
aa(lp3243
F0.11869441655108
aI46
aI0
aI1
ag235
aa(lp3244
F0.13130558344892
aI45
aI99
aI1
ag237
aa(lp3245
F0.095965512692601
aI45
aI0
aI1
ag239
aa(lp3246
F0.1540344873074
aI43
aI32
aI1
ag241
aa(lp3247
F0.11896441054887
aI43
aI0
aI1
ag243
aa(lp3248
F0.13103558945113
aI41
aI111
aI1
ag245
aa(lp3249
F0.13482802312774
aI41
aI0
aI1
ag247
aa(lp3250
F0.031838643538928
aI39
aI59
aI1
ag249
aa(lp3251
F0.088596866779881
aI39
aI0
aI1
ag251
aa(lp3252
F0.24473646655345
aI31
aI101
aI1
ag253
aa(lp3253
F0.4460435388828
aI31
aI0
aI1
ag255
aa(lp3254
F0.053956461117195
aI43
aI113
aI1
ag257
aa(lp3255
F0.10389961931105
aI43
aI0
aI1
ag259
aa(lp3256
F0.39610038068895
aI41
aI78
aI1
ag261
aa(lp3257
F0.12652617765252
aI41
aI0
aI1
ag263
aa(lp3258
F0.20680715568081
aI43
aI118
aI1
ag265
aa(lp3259
F0.37110780571493
aI43
aI0
aI1
ag267
aa(lp3260
F0.29555886095174
aI46
aI111
aI1
ag269
aa(lp3261
F0.088795971103536
aI46
aI0
aI1
ag271
aa(lp3262
F0.16120402889646
aI45
aI39
aI1
ag273
aa(lp3263
F0.11169400252766
aI45
aI0
aI1
ag275
aa(lp3264
F0.13830599747234
aI43
aI111
aI1
ag277
aa(lp3265
F0.088824173240027
aI43
aI0
aI1
ag279
aa(lp3266
F0.16117582675997
aI41
aI59
aI1
ag281
aa(lp3267
F0.14059130412534
aI41
aI0
aI1
ag283
aa(lp3268
F0.10940869587466
aI39
aI113
aI1
ag285
aa(lp3269
F0.096059668525413
aI39
aI0
aI1
ag287
aa(lp3270
F0.15394033147459
aI38
aI72
aI1
ag289
aa(lp3271
F0.12653570008206
aI38
aI0
aI1
ag291
aa(lp3272
F0.12346429991794
aI36
aI108
aI1
ag293
aa(lp3273
F0.11136117498427
aI36
aI0
aI1
ag295
aa(lp3274
F0.13863882501573
aI34
aI89
aI1
ag297
aa(lp3275
F0.12620982752014
aI34
aI0
aI1
ag299
aa(lp3276
F0.12379017247986
aI0
aI0
aI0
ag301
aaaI0
aa(lp3277
(lp3278
(lp3279
F0.0
aI36
aI85
aI2
ag305
aa(lp3280
F0.53878120621266
aI36
aI0
aI2
ag307
aa(lp3281
F0.46121879378734
aI36
aI73
aI2
ag309
aa(lp3282
F0.66853917345998
aI36
aI0
aI2
ag311
aa(lp3283
F0.33146082654002
aI36
aI72
aI2
ag313
aa(lp3284
F0.54307235407487
aI36
aI0
aI2
ag315
aa(lp3285
F0.20692764592513
aI36
aI38
aI2
ag317
aa(lp3286
F0.12681654214703
aI36
aI0
aI2
ag319
aa(lp3287
F0.12318345785297
aI39
aI73
aI2
ag321
aa(lp3288
F0.11843683496136
aI39
aI0
aI2
ag323
aa(lp3289
F0.13156316503864
aI36
aI46
aI2
ag325
aa(lp3290
F0.13385448466215
aI36
aI0
aI2
ag327
aa(lp3291
F0.11614551533785
aI34
aI96
aI2
ag329
aa(lp3292
F0.5
aI31
aI66
aI2
ag331
aa(lp3293
F0.049734665000869
aI34
aI0
aI2
ag333
aa(lp3294
F0.45389595289089
aI31
aI0
aI2
ag335
aa(lp3295
F0.49636938210824
aI31
aI80
aI2
ag337
aa(lp3296
F0.63934880920351
aI31
aI0
aI2
ag339
aa(lp3297
F0.36065119079649
aI31
aI85
aI2
ag341
aa(lp3298
F0.52075540685109
aI31
aI0
aI2
ag343
aa(lp3299
F0.22924459314891
aI31
aI58
aI2
ag345
aa(lp3300
F0.12623056459415
aI31
aI0
aI2
ag347
aa(lp3301
F0.12376943540585
aI34
aI72
aI2
ag349
aa(lp3302
F0.11868081490593
aI34
aI0
aI2
ag351
aa(lp3303
F0.13131918509407
aI31
aI94
aI2
ag353
aa(lp3304
F0.15640518040618
aI31
aI0
aI2
ag355
aa(lp3305
F0.093594819593818
aI39
aI104
aI2
ag357
aa(lp3306
F0.5
aI36
aI94
aI2
ag359
aa(lp3307
F0.058699687628177
aI39
aI0
aI2
ag361
aa(lp3308
F0.43096196157694
aI36
aI0
aI2
ag363
aa(lp3309
F0.51033835079488
aI36
aI101
aI2
ag365
aa(lp3310
F0.57294566781093
aI36
aI0
aI2
ag367
aa(lp3311
F0.42705433218907
aI36
aI85
aI2
ag369
aa(lp3312
F0.51962284721321
aI36
aI0
aI2
ag371
aa(lp3313
F0.23037715278679
aI36
aI80
aI2
ag373
aa(lp3314
F0.1192970150214
aI36
aI0
aI2
ag375
aa(lp3315
F0.1307029849786
aI39
aI78
aI2
ag377
aa(lp3316
F0.11073310806478
aI39
aI0
aI2
ag379
aa(lp3317
F0.13926689193522
aI36
aI67
aI2
ag381
aa(lp3318
F0.14143787117519
aI36
aI0
aI2
ag383
aa(lp3319
F0.10856212882481
aI34
aI89
aI2
ag385
aa(lp3320
F0.5
aI31
aI68
aI2
ag387
aa(lp3321
F0.064561513416265
aI34
aI0
aI2
ag389
aa(lp3322
F0.47862786765927
aI31
aI0
aI2
ag391
aa(lp3323
F0.45681061892446
aI31
aI89
aI2
ag393
aa(lp3324
F0.50573291100227
aI31
aI0
aI2
ag395
aa(lp3325
F0.49426708899773
aI26
aI73
aI2
ag397
aa(lp3326
F0.24650080407719
aI26
aI0
aI2
ag399
aa(lp3327
F0.0034991959228137
aI29
aI53
aI2
ag401
aa(lp3328
F0.25
aI31
aI101
aI2
ag403
aa(lp3329
F0.10025711380149
aI29
aI0
aI2
ag405
aa(lp3330
F0.14974288619851
aI34
aI99
aI2
ag407
aa(lp3331
F0.11442266624999
aI31
aI0
aI2
ag409
aa(lp3332
F0.38557733375001
aI31
aI73
aI2
ag411
aa(lp3333
F0.057677066448377
aI34
aI0
aI2
ag413
aa(lp3334
F0.19232293355162
aI34
aI63
aI2
ag415
aa(lp3335
F0.061363420320049
aI31
aI0
aI2
ag417
aa(lp3336
F0.10530324634662
aI36
aI45
aI2
ag419
aa(lp3337
F0.15911469312353
aI34
aI0
aI2
ag421
aa(lp3338
F0.15246152435035
aI36
aI0
aI2
ag423
aa(lp3339
F0.021757115859449
aI0
aI0
aI0
ag425
aaa(lp3340
(lp3341
F0.0
aI36
aI68
aI2
ag1235
aa(lp3342
F0.068323142716963
aI36
aI0
aI2
ag1237
aa(lp3343
F0.18167685728304
aI36
aI65
aI2
ag1239
aa(lp3344
F0.090914631708984
aI36
aI0
aI2
ag1241
aa(lp3345
F0.15908536829102
aI48
aI78
aI2
ag1243
aa(lp3346
F0.050004612670818
aI48
aI0
aI2
ag1245
aa(lp3347
F0.19999538732918
aI48
aI72
aI2
ag1247
aa(lp3348
F0.059468760706295
aI48
aI0
aI2
ag1249
aa(lp3349
F0.1905312392937
aI46
aI92
aI2
ag1251
aa(lp3350
F0.073217675309024
aI46
aI0
aI2
ag1253
aa(lp3351
F0.17678232469098
aI48
aI106
aI2
ag1255
aa(lp3352
F0.054884153856619
aI48
aI0
aI2
ag1257
aa(lp3353
F0.19511584614338
aI48
aI80
aI2
ag1259
aa(lp3354
F0.04072002367775
aI48
aI0
aI2
ag1261
aa(lp3355
F0.20927997632225
aI48
aI87
aI2
ag1263
aa(lp3356
F0.053974142845163
aI48
aI0
aI2
ag1265
aa(lp3357
F0.19602585715484
aI39
aI89
aI2
ag1267
aa(lp3358
F0.063295772649326
aI39
aI0
aI2
ag1269
aa(lp3359
F0.18670422735067
aI41
aI69
aI2
ag1271
aa(lp3360
F0.076956845705354
aI41
aI0
aI2
ag1273
aa(lp3361
F0.17304315429465
aI43
aI111
aI2
ag1275
aa(lp3362
F0.059543810663399
aI43
aI0
aI2
ag1277
aa(lp3363
F0.1904561893366
aI46
aI82
aI2
ag1279
aa(lp3364
F0.063749376889518
aI46
aI0
aI2
ag1281
aa(lp3365
F0.18625062311048
aI46
aI82
aI2
ag1283
aa(lp3366
F0.067799336279677
aI46
aI0
aI2
ag1285
aa(lp3367
F0.18220066372032
aI43
aI106
aI2
ag1287
aa(lp3368
F0.058919328534103
aI43
aI0
aI2
ag1289
aa(lp3369
F0.1910806714659
aI48
aI99
aI2
ag1291
aa(lp3370
F0.054826555661748
aI48
aI0
aI2
ag1293
aa(lp3371
F0.19517344433825
aI48
aI104
aI2
ag1295
aa(lp3372
F0.063276250471972
aI48
aI0
aI2
ag1297
aa(lp3373
F0.18672374952803
aI36
aI94
aI2
ag1299
aa(lp3374
F0.077284656571919
aI36
aI0
aI2
ag1301
aa(lp3375
F0.17271534342808
aI36
aI92
aI2
ag1303
aa(lp3376
F0.072628978193734
aI36
aI0
aI2
ag1305
aa(lp3377
F0.17737102180627
aI48
aI73
aI2
ag1307
aa(lp3378
F0.049940868363592
aI48
aI0
aI2
ag1309
aa(lp3379
F0.20005913163641
aI48
aI101
aI2
ag1311
aa(lp3380
F0.049737670630748
aI48
aI0
aI2
ag1313
aa(lp3381
F0.20026232936925
aI46
aI68
aI2
ag1315
aa(lp3382
F0.063618787863561
aI46
aI0
aI2
ag1317
aa(lp3383
F0.18638121213644
aI48
aI106
aI2
ag1319
aa(lp3384
F0.045426187539306
aI48
aI0
aI2
ag1321
aa(lp3385
F0.20457381246069
aI48
aI89
aI2
ag1323
aa(lp3386
F0.040533105280701
aI48
aI0
aI2
ag1325
aa(lp3387
F0.2094668947193
aI48
aI89
aI2
ag1327
aa(lp3388
F0.049610186359132
aI48
aI0
aI2
ag1329
aa(lp3389
F0.20038981364087
aI51
aI94
aI2
ag1331
aa(lp3390
F0.054507480662778
aI51
aI0
aI2
ag1333
aa(lp3391
F0.19549251933722
aI51
aI85
aI2
ag1335
aa(lp3392
F0.045660867052902
aI51
aI0
aI2
ag1337
aa(lp3393
F0.2043391329471
aI50
aI106
aI2
ag1339
aa(lp3394
F0.058858431048975
aI50
aI0
aI2
ag1341
aa(lp3395
F0.19114156895102
aI50
aI101
aI2
ag1343
aa(lp3396
F0.049883749560649
aI50
aI0
aI2
ag1345
aa(lp3397
F0.20011625043935
aI48
aI96
aI2
ag1347
aa(lp3398
F0.054906746918277
aI48
aI0
aI2
ag1349
aa(lp3399
F0.19509325308172
aI48
aI96
aI2
ag1351
aa(lp3400
F0.050397322031131
aI48
aI0
aI2
ag1353
aa(lp3401
F0.19960267796887
aI46
aI89
aI2
ag1355
aa(lp3402
F0.068112496177491
aI46
aI0
aI2
ag1357
aa(lp3403
F0.18188750382251
aI46
aI70
aI2
ag1359
aa(lp3404
F0.063727803403253
aI46
aI0
aI2
ag1361
aa(lp3405
F0.18627219659675
aI36
aI101
aI2
ag1363
aa(lp3406
F0.068167774707945
aI36
aI0
aI2
ag1365
aa(lp3407
F0.18183222529206
aI36
aI80
aI2
ag1367
aa(lp3408
F0.077242400641808
aI36
aI0
aI2
ag1369
aa(lp3409
F0.17275759935819
aI48
aI85
aI2
ag1371
aa(lp3410
F0.050058202041328
aI48
aI0
aI2
ag1373
aa(lp3411
F0.19994179795867
aI48
aI101
aI2
ag1375
aa(lp3412
F0.054569086814354
aI48
aI0
aI2
ag1377
aa(lp3413
F0.19543091318565
aI46
aI73
aI2
ag1379
aa(lp3414
F0.063733524836607
aI46
aI0
aI2
ag1381
aa(lp3415
F0.18626647516339
aI48
aI111
aI2
ag1383
aa(lp3416
F0.04985036063681
aI48
aI0
aI2
ag1385
aa(lp3417
F0.20014963936319
aI48
aI94
aI2
ag1387
aa(lp3418
F0.036478022827851
aI48
aI0
aI2
ag1389
aa(lp3419
F0.21352197717215
aI48
aI85
aI2
ag1391
aa(lp3420
F0.040634174385559
aI48
aI0
aI2
ag1393
aa(lp3421
F0.20936582561444
aI39
aI99
aI2
ag1395
aa(lp3422
F0.067938110568775
aI39
aI0
aI2
ag1397
aa(lp3423
F0.18206188943122
aI41
aI68
aI2
ag1399
aa(lp3424
F0.059478622970801
aI41
aI0
aI2
ag1401
aa(lp3425
F0.1905213770292
aI43
aI101
aI2
ag1403
aa(lp3426
F0.059145562246158
aI43
aI0
aI2
ag1405
aa(lp3427
F0.19085443775384
aI46
aI82
aI2
ag1407
aa(lp3428
F0.054639627711822
aI46
aI0
aI2
ag1409
aa(lp3429
F0.19536037228818
aI46
aI71
aI2
ag1411
aa(lp3430
F0.054559406926728
aI46
aI0
aI2
ag1413
aa(lp3431
F0.19544059307327
aI43
aI106
aI2
ag1415
aa(lp3432
F0.058698326443846
aI43
aI0
aI2
ag1417
aa(lp3433
F0.19130167355615
aI48
aI108
aI2
ag1419
aa(lp3434
F0.04967814618476
aI48
aI0
aI2
ag1421
aa(lp3435
F0.20032185381524
aI48
aI94
aI2
ag1423
aa(lp3436
F0.036057748456187
aI48
aI0
aI2
ag1425
aa(lp3437
F0.21394225154381
aI36
aI101
aI2
ag1427
aa(lp3438
F0.06346856549726
aI36
aI0
aI2
ag1429
aa(lp3439
F0.18653143450274
aI36
aI80
aI2
ag1431
aa(lp3440
F0.063698108051994
aI36
aI0
aI2
ag1433
aa(lp3441
F0.18630189194801
aI48
aI101
aI2
ag1435
aa(lp3442
F0.050048604658059
aI48
aI0
aI2
ag1437
aa(lp3443
F0.19995139534194
aI48
aI104
aI2
ag1439
aa(lp3444
F0.044930287419902
aI48
aI0
aI2
ag1441
aa(lp3445
F0.2050697125801
aI46
aI85
aI2
ag1443
aa(lp3446
F0.063296317175173
aI46
aI0
aI2
ag1445
aa(lp3447
F0.18670368282483
aI48
aI111
aI2
ag1447
aa(lp3448
F0.045390094222967
aI48
aI0
aI2
ag1449
aa(lp3449
F0.20460990577703
aI48
aI101
aI2
ag1451
aa(lp3450
F0.040607829564124
aI48
aI0
aI2
ag1453
aa(lp3451
F0.20939217043588
aI48
aI101
aI2
ag1455
aa(lp3452
F0.059020999483892
aI48
aI0
aI2
ag1457
aa(lp3453
F0.19097900051611
aI36
aI82
aI2
ag1459
aa(lp3454
F0.081691531625438
aI36
aI0
aI2
ag1461
aa(lp3455
F0.16830846837456
aI39
aI69
aI2
ag1463
aa(lp3456
F0.072233977828091
aI39
aI0
aI2
ag1465
aa(lp3457
F0.17776602217191
aI41
aI94
aI2
ag1467
aa(lp3458
F0.068314223603011
aI41
aI0
aI2
ag1469
aa(lp3459
F0.18168577639699
aI42
aI80
aI2
ag1471
aa(lp3460
F0.072553784941192
aI42
aI0
aI2
ag1473
aa(lp3461
F0.17744621505881
aI43
aI70
aI2
ag1475
aa(lp3462
F0.067959481702928
aI43
aI0
aI2
ag1477
aa(lp3463
F0.18204051829707
aI46
aI72
aI2
ag1479
aa(lp3464
F0.077096777655242
aI46
aI0
aI2
ag1481
aa(lp3465
F0.17290322234476
aI47
aI71
aI2
ag1483
aa(lp3466
F0.072823173441066
aI47
aI0
aI2
ag1485
aa(lp3467
F0.17717682655893
aI48
aI94
aI2
ag1487
aa(lp3468
F0.077292488369949
aI48
aI0
aI2
ag1489
aa(lp3469
F0.17270751163005
aI0
aI0
aI0
ag1491
aaaI0
aI0
aa(lp3470
(lp3471
(lp3472
F0.0
aI36
aI78
aI3
ag429
aa(lp3473
F0.74852806654587
aI36
aI0
aI3
ag431
aa(lp3474
F0.25147193345413
aI38
aI99
aI3
ag433
aa(lp3475
F0.31199060490258
aI38
aI0
aI3
ag435
aa(lp3476
F0.18800939509742
aI36
aI99
aI3
ag437
aa(lp3477
F0.43137179581936
aI36
aI0
aI3
ag439
aa(lp3478
F0.31862820418064
aI36
aI106
aI3
ag441
aa(lp3479
F0.60918132029553
aI36
aI0
aI3
ag443
aa(lp3480
F0.14081867970447
aI40
aI111
aI3
ag445
aa(lp3481
F0.53502309453688
aI40
aI0
aI3
ag447
aa(lp3482
F0.46497690546312
aI36
aI92
aI3
ag449
aa(lp3483
F0.66883410167543
aI36
aI0
aI3
ag451
aa(lp3484
F0.33116589832457
aI38
aI108
aI3
ag453
aa(lp3485
F0.36366882567506
aI38
aI0
aI3
ag455
aa(lp3486
F0.13633117432494
aI36
aI106
aI3
ag457
aa(lp3487
F0.40814834365949
aI36
aI0
aI3
ag459
aa(lp3488
F0.34185165634051
aI36
aI94
aI3
ag461
aa(lp3489
F0.47604323438873
aI36
aI0
aI3
ag463
aa(lp3490
F0.27395676561127
aI38
aI118
aI3
ag465
aa(lp3491
F0.11895540672401
aI38
aI0
aI3
ag467
aa(lp3492
F0.13104459327599
aI38
aI111
aI3
ag469
aa(lp3493
F0.14115638262922
aI38
aI0
aI3
ag471
aa(lp3494
F0.10884361737078
aI38
aI113
aI3
ag473
aa(lp3495
F0.11929517077931
aI38
aI0
aI3
ag475
aa(lp3496
F0.13070482922069
aI38
aI108
aI3
ag477
aa(lp3497
F0.1419342580333
aI38
aI0
aI3
ag479
aa(lp3498
F0.1080657419667
aI0
aI0
aI0
ag481
aaa(lp3499
(lp3500
F0.5
aI37
aI113
aI3
ag484
aa(lp3501
F0.14129695000884
aI37
aI0
aI3
ag486
aa(lp3502
F0.60870304999116
aI40
aI118
aI3
ag488
aa(lp3503
F0.32023817167646
aI40
aI0
aI3
ag490
aa(lp3504
F2.6797618283235
aI40
aI118
aI3
ag492
aa(lp3505
F0.14823458163482
aI40
aI0
aI3
ag494
aa(lp3506
F1.1017654183652
aI37
aI99
aI3
ag496
aa(lp3507
F0.26056305904604
aI37
aI0
aI3
ag498
aa(lp3508
F2.739436940954
aI37
aI115
aI3
ag500
aa(lp3509
F0.22257264094333
aI37
aI0
aI3
ag502
aa(lp3510
F0.52742735905667
aI40
aI122
aI3
ag504
aa(lp3511
F0.3713139317988
aI40
aI0
aI3
ag506
aa(lp3512
F2.8786860682012
aI37
aI113
aI3
ag508
aa(lp3513
F0.13342006605853
aI37
aI0
aI3
ag510
aa(lp3514
F3.6165799339415
aI40
aI118
aI3
ag512
aa(lp3515
F0.16323781381652
aI40
aI0
aI3
ag514
aa(lp3516
F1.0867621861835
aI37
aI111
aI3
ag516
aa(lp3517
F0.35607607302336
aI37
aI0
aI3
ag518
aa(lp3518
F2.3939239269766
aI37
aI108
aI3
ag520
aa(lp3519
F0.25243610688085
aI37
aI0
aI3
ag522
aa(lp3520
F2.9975638931191
aI37
aI113
aI3
ag524
aa(lp3521
F0.31965196820966
aI37
aI0
aI3
ag526
aa(lp3522
F0.68034803179034
aI40
aI115
aI3
ag528
aa(lp3523
F0.11134762733127
aI40
aI0
aI3
ag530
aa(lp3524
F0.63865237266873
aI37
aI118
aI3
ag532
aa(lp3525
F0.096868684349829
aI37
aI0
aI3
ag534
aa(lp3526
F3.1531313156502
aI37
aI106
aI3
ag536
aa(lp3527
F0.13251384244904
aI37
aI0
aI3
ag538
aa(lp3528
F0.36748615755096
aI0
aI0
aI0
ag540
aaa(lp3529
(lp3530
F0.0
aI50
aI113
aI3
ag543
aa(lp3531
F0.097908355492109
aI50
aI0
aI3
ag545
aa(lp3532
F4.4020916445079
aI51
aI11
aI3
ag547
aa(lp3533
F0.059431128420329
aI51
aI0
aI3
ag549
aa(lp3534
F4.9405688715797
aI49
aI8
aI3
ag551
aa(lp3535
F0.036725710948303
aI49
aI0
aI3
ag553
aa(lp3536
F0.7132742890517
aI51
aI45
aI3
ag555
aa(lp3537
F0.081812376913149
aI51
aI0
aI3
ag557
aa(lp3538
F3.1681876230869
aI49
aI36
aI3
ag559
aa(lp3539
F0.03690305946111
aI49
aI0
aI3
ag561
aa(lp3540
F2.4630969405389
aI50
aI101
aI3
ag563
aa(lp3541
F0.10423679176711
aI50
aI0
aI3
ag565
aa(lp3542
F0.89576320823289
aI0
aI0
aI0
ag567
aaaI0
aaa(lp3543
(lp3544
(dp3545
g1568
g1569
sg1570
I0
sa(dp3546
g1572
g1573
sg1574
I0
sa(dp3547
g1572
S'70'
p3548
sg1574
I01
sa(dp3549
aa(lp3550
(dp3551
g576
g577
sg578
I0
sa(dp3552
g576
g580
sg578
I0
sa(dp3553
g576
g582
sg578
I0
sa(dp3554
aa(lp3555
(dp3556
g576
g586
sg578
I0
sa(dp3557
g1568
I20
sg1570
I0
sa(dp3558
a(dp3559
aa(lp3560
(dp3561
g576
g592
sg578
I1
sa(dp3562
g576
g594
sg578
I0
sa(dp3563
g576
g596
sg578
I0
sa(dp3564
aaa(lp3565
I60
aI60
aI36
aI36
aa(lp3566
(lp3567
I0
aI2
aI3
aI5
aI7
aI8
aI10
aa(lp3568
I0
aI2
aI3
aI5
aI7
aI8
aI10
aa(lp3569
I0
aI2
aI3
aI5
aI7
aI8
aI10
aa(lp3570
I0
aI1
aI2
aI3
aI4
aI5
aI6
aI7
aI8
aI9
aI10
aI11
aaa(lp3571
(lp3572
(lp3573
I0
aI0
aI0
aI0
aI0
aI0
aI0
aI0
aI0
aI0
aI0
aI0
aa(lp3574
I0
aI0
aI0
aI0
aI0
aI0
aI0
aI0
aI0
aI0
aI0
aI0
aa(lp3575
I0
aI0
aI0
aI0
aI0
aI0
aI0
aI0
aI0
aI0
aI0
aI0
aa(lp3576
I0
aI0
aI0
aI0
aI0
aI0
aI0
aI0
aI0
aI0
aI0
aI0
aaa(lp3577
(lp3578
I0
aI0
aI0
aI0
aI0
aI0
aI0
aI0
aI0
aI0
aI0
aI0
aa(lp3579
I0
aI0
aI0
aI0
aI0
aI0
aI0
aI0
aI0
aI0
aI0
aI0
aa(lp3580
I0
aI0
aI0
aI0
aI0
aI0
aI0
aI0
aI0
aI0
aI0
aI0
aa(lp3581
I0
aI0
aI0
aI0
aI0
aI0
aI0
aI0
aI0
aI0
aI0
aI0
aaa(lp3582
(lp3583
I0
aI0
aI0
aI0
aI0
aI0
aI0
aI0
aI0
aI0
aI0
aI0
aa(lp3584
I0
aI0
aI0
aI0
aI0
aI0
aI0
aI0
aI0
aI0
aI0
aI0
aa(lp3585
I0
aI0
aI0
aI0
aI0
aI0
aI0
aI0
aI0
aI0
aI0
aI0
aa(lp3586
I0
aI0
aI0
aI0
aI0
aI0
aI0
aI0
aI0
aI0
aI0
aI0
aaa(lp3587
(lp3588
I0
aI0
aI0
aI0
aI0
aI0
aI0
aI0
aI0
aI0
aI0
aI0
aa(lp3589
I0
aI0
aI0
aI0
aI0
aI0
aI0
aI0
aI0
aI0
aI0
aI0
aa(lp3590
I0
aI0
aI0
aI0
aI0
aI0
aI0
aI0
aI0
aI0
aI0
aI0
aa(lp3591
I0
aI0
aI0
aI0
aI0
aI0
aI0
aI0
aI0
aI0
aI0
aI0
aaaa(lp3592
(lp3593
I0
aI0
aI0
aI0
aI0
aI0
aI0
aI0
aI0
aI0
aI0
aI0
aa(lp3594
I0
aI0
aI0
aI0
aI0
aI0
aI0
aI0
aI0
aI0
aI0
aI0
aa(lp3595
I0
aI0
aI0
aI0
aI0
aI0
aI0
aI0
aI0
aI0
aI0
aI0
aa(lp3596
I0
aI0
aI0
aI0
aI0
aI0
aI0
aI0
aI0
aI0
aI0
aI0
aaaaI0
aI0
aI0
aI0
aI0
aI0
aI0
aI0
aI0
aI0
aI0
aI0
aI0
aI0
aI0
aI0
aI0
aI0
aI0
aI0
aI0
aI0
aI0
aI0
aI0
aI0
aI0
aI0
aI0
aI0
aI0
aI0
aI0
aI0
aI0
aI0
aI0
aI0
aI0
aI0
aI0
aI0
aI0
aI0
aI0
aI0
aI0
aI0
aI0
aI0
aI0
aI0
aI0
aI0
aI0
aI0
aI0
aI0
aI0
aI0
aI0
aI0
aI0
aI0
aI0
aI0
aI0
aI0
aI0
aI0
aI0
aI0
aI0
aI0
aI0
aI0
aI0
aI0
aI0
aI0
aI0
aI0
aI0
aI0
aI0
aI0
aI0
a.