(lp0
(dp1
a(dp2
a(dp3
a(dp4
a(dp5
a(dp6
a(dp7
a(dp8
a(dp9
a(dp10
a(dp11
a(dp12
a(dp13
a(dp14
a(dp15
a(dp16
a(dp17
a(dp18
a(dp19
a(dp20
a(dp21
a(dp22
a(dp23
a(dp24
a(dp25
a(dp26
a(dp27
a(dp28
a(dp29
a(dp30
a(dp31
a(dp32
a(dp33
a(dp34
a(dp35
a(dp36
a(dp37
a(dp38
a(dp39
a(dp40
a(dp41
a(dp42
a(dp43
a(dp44
a(dp45
a(dp46
a(dp47
a(dp48
a(dp49
a(dp50
a(dp51
a(dp52
I51
I14
sF60.0
I33
sF55.0
I23
sa(dp53
a(dp54
a(dp55
a(dp56
a(dp57
a(dp58
a(dp59
a(dp60
a(dp61
a(dp62
F60.0
I33
sF53.0
I21
sF63.0
I41
sa(dp63
F56.0
I24
sF65.0
I43
sF62.0
I35
sa(dp64
F58.0
I26
sF67.0
I45
sF63.0
I36
sa(dp65
F65.0
I43
sF68.0
I51
sF60.0
I33
sa(dp66
F67.0
I45
sF62.0
I35
sF70.0
I53
sa(dp67
F72.0
I55
sF68.0
I46
sF63.0
I36
sa(dp68
F65.0
I43
sF74.0
I62
sF70.0
I53
sa(dp69
a(dp70
a(dp71
F65.0
I38
sF58.0
I26
sF62.0
I35
sa(dp72
F67.0
I45
sF60.0
I33
sF63.0
I41
sa(dp73
F65.0
I43
sF68.0
I46
sF62.0
I35
sa(dp74
F67.0
I45
sF70.0
I48
sF63.0
I36
sa(dp75
F72.0
I55
sF65.0
I43
sF68.0
I51
sa(dp76
F74.0
I57
sF67.0
I45
sF70.0
I53
sa(dp77
F72.0
I55
sF75.0
I58
sF68.0
I46
sa(dp78
F74.0
I62
sF77.0
I65
sF70.0
I53
sa(dp79
a(dp80
a(dp81
a(dp82
a(dp83
a(dp84
a(dp85
a(dp86
a(dp87
a(dp88
a(dp89
a(dp90
a(dp91
a(dp92
a(dp93
a(dp94
a(dp95
a(dp96
a(dp97
a(dp98
a(dp99
a(dp100
a.