(lp0
I0
aI0
aI0
aI0
aI0
aI0
aI0
aI0
aI0
aI0
a(lp1
(lp2
(lp3
I0
aI0
aI0
aI0
aa(lp4
I0
aI0
aI0
aI0
aa(lp5
(lp6
(lp7
F0.051450015258524
aI36
aI85
aI2
aS'on'
p8
aa(lp9
F0.13075414763262
aI36
aI0
aI2
aS'off'
p10
aa(lp11
F3.1705103089989
aI34
aI92
aI2
aS'on'
p12
aa(lp13
F0.12255259147241
aI34
aI0
aI2
aS'off'
p14
aa(lp15
F0.34016767125831
aI36
aI108
aI2
aS'on'
p16
aa(lp17
F0.11372633925203
aI36
aI0
aI2
aS'off'
p18
aa(lp19
F3.4269421721601
aI39
aI96
aI2
aS'on'
p20
aa(lp21
F0.11363503753273
aI39
aI0
aI2
aS'off'
p22
aa(lp23
F0.33222691058108
aI41
aI101
aI2
aS'on'
p24
aa(lp25
F0.09614905010676
aI41
aI0
aI2
aS'off'
p26
aa(lp27
F4.2020260588361
aI34
aI101
aI2
aS'on'
p28
aa(lp29
F0.13142623767089
aI34
aI0
aI2
aS'off'
p30
aa(lp31
F0.52480883006683
aI38
aI70
aI2
aS'on'
p32
aa(lp33
F0.14027723591789
aI38
aI0
aI2
aS'off'
p34
aa(lp35
F0.60137056838357
aI43
aI72
aI2
aS'on'
p36
aa(lp37
F0.11343095880329
aI43
aI0
aI2
aS'off'
p38
aa(lp39
F0.61203819974799
aI41
aI67
aI2
aS'on'
p40
aa(lp41
F0.11356478513699
aI41
aI0
aI2
aS'off'
p42
aa(lp43
F0.65536419261844
aI39
aI60
aI2
aS'on'
p44
aa(lp45
F0.12241169746994
aI39
aI0
aI2
aS'off'
p46
aa(lp47
F0.37373927380031
aI38
aI73
aI2
aS'on'
p48
aa(lp49
F0.11482650685502
aI38
aI0
aI2
aS'off'
p50
aa(lp51
F0.39660121043926
aI0
aI0
aI0
aS'timeAfterLastHit'
p52
aaa(lp53
(lp54
F0.050475636475312
aI36
aI80
aI2
aS'on'
p55
aa(lp56
F0.14069672236474
aI36
aI0
aI2
aS'off'
p57
aa(lp58
F3.1369476867894
aI34
aI75
aI2
aS'on'
p59
aa(lp60
F0.10431134737337
aI34
aI0
aI2
aS'off'
p61
aa(lp62
F0.32401145796211
aI36
aI99
aI2
aS'on'
p63
aa(lp64
F0.096319287213191
aI36
aI0
aI2
aS'off'
p65
aa(lp66
F3.4740326600495
aI39
aI69
aI2
aS'on'
p67
aa(lp68
F0.10545987947808
aI39
aI0
aI2
aS'off'
p69
aa(lp70
F0.33079039143013
aI41
aI72
aI2
aS'on'
p71
aa(lp72
F0.017443120370444
aI46
aI23
aI2
aS'on'
p73
aa(lp74
F0.053338888485086
aI46
aI0
aI2
aS'off'
p75
aa(lp76
F0.034722997797871
aI41
aI0
aI2
aS'off'
p77
aa(lp78
F4.225798962405
aI34
aI82
aI2
aS'on'
p79
aa(lp80
F0.13088044859069
aI34
aI0
aI2
aS'off'
p81
aa(lp82
F0.53308396782268
aI38
aI62
aI2
aS'on'
p83
aa(lp84
F0.23559405840751
aI38
aI0
aI2
aS'off'
p85
aa(lp86
F0.50672592613955
aI43
aI72
aI2
aS'on'
p87
aa(lp88
F0.20067714155266
aI43
aI0
aI2
aS'off'
p89
aa(lp90
F0.51439420821589
aI41
aI82
aI2
aS'on'
p91
aa(lp92
F0.18353707734423
aI41
aI0
aI2
aS'off'
p93
aa(lp94
F0.56733987639745
aI39
aI54
aI2
aS'on'
p95
aa(lp96
F0.15693219678178
aI39
aI0
aI2
aS'off'
p97
aa(lp98
F0.4099891269525
aI38
aI101
aI2
aS'on'
p99
aa(lp100
F0.1666343956058
aI38
aI0
aI2
aS'off'
p101
aa(lp102
F0.29986253799507
aI0
aI0
aI0
aS'timeAfterLastHit'
p103
aaaI0
aI0
aa(lp104
(lp105
(lp106
F0.0
aI36
aI75
aI3
aS'on'
p107
aa(lp108
F0.1491041262525
aI36
aI0
aI3
aS'off'
p109
aa(lp110
F0.8508958737475
aI36
aI73
aI3
aS'on'
p111
aa(lp112
F0.14902920662462
aI36
aI0
aI3
aS'off'
p113
aa(lp114
F0.35097079337538
aI36
aI89
aI3
aS'on'
p115
aa(lp116
F0.13938978660917
aI36
aI0
aI3
aS'off'
p117
aa(lp118
F0.69394354672416
aI36
aI85
aI3
aS'on'
p119
aa(lp120
F0.15734785957102
aI36
aI0
aI3
aS'off'
p121
aa(lp122
F0.50931880709565
aI36
aI101
aI3
aS'on'
p123
aa(lp124
F0.17438229963227
aI36
aI0
aI3
aS'off'
p125
aa(lp126
F0.82561770036773
aI0
aI0
aI0
aS'timeAfterLastHit'
p127
aaa(lp128
(lp129
F0.0
aI40
aI10
aI3
aS'on'
p130
aa(lp131
F0.043014918124754
aI40
aI0
aI3
aS'off'
p132
aa(lp133
F0.46289762931337
aI40
aI22
aI3
aS'on'
p134
aa(lp135
F0.043511927182408
aI40
aI0
aI3
aS'off'
p136
aa(lp137
F0.31428857063293
aI38
aI23
aI3
aS'on'
p138
aa(lp139
F0.043916279359109
aI38
aI0
aI3
aS'off'
p140
aa(lp141
F0.11384892681053
aI40
aI66
aI3
aS'on'
p142
aa(lp143
F0.052393820384168
aI40
aI0
aI3
aS'off'
p144
aa(lp145
F0.76851477326818
aI40
aI65
aI3
aS'on'
p146
aa(lp147
F0.043681920407835
aI40
aI0
aI3
aS'off'
p148
aa(lp149
F0.1392682798305
aI38
aI3
aI3
aS'on'
p150
aa(lp151
F0.04385336525047
aI38
aI0
aI3
aS'off'
p152
aa(lp153
F0.27128103713221
aI38
aI3
aI3
aS'on'
p154
aa(lp155
F0.05216395827847
aI38
aI0
aI3
aS'off'
p156
aa(lp157
F0.11341671321316
aI40
aI65
aI3
aS'on'
p158
aa(lp159
F0.087732112966478
aI40
aI0
aI3
aS'off'
p160
aa(lp161
F0.18342647358804
aI40
aI13
aI3
aS'on'
p162
aa(lp163
F0.07850598369987
aI40
aI0
aI3
aS'off'
p164
aa(lp165
F0.17433884123238
aI38
aI5
aI3
aS'on'
p166
aa(lp167
F0.043538898247789
aI38
aI0
aI3
aS'off'
p168
aa(lp169
F0.24464455669113
aI40
aI64
aI3
aS'on'
p170
aa(lp171
F0.052446763587795
aI40
aI0
aI3
aS'off'
p172
aa(lp173
F0.14844903971243
aI38
aI40
aI3
aS'on'
p174
aa(lp175
F0.044158696560771
aI38
aI0
aI3
aS'off'
p176
aa(lp177
F0.24321927632081
aI40
aI58
aI3
aS'on'
p178
aa(lp179
F0.052319465366963
aI40
aI0
aI3
aS'off'
p180
aa(lp181
F0.14852154554137
aI38
aI40
aI3
aS'on'
p182
aa(lp183
F0.043601294522887
aI38
aI0
aI3
aS'off'
p184
aa(lp185
F0.28849722035193
aI40
aI43
aI3
aS'on'
p186
aa(lp187
F0.078347867367484
aI40
aI0
aI3
aS'off'
p188
aa(lp189
F0.10447051775918
aI38
aI36
aI3
aS'on'
p190
aa(lp191
F0.044227940003111
aI38
aI0
aI3
aS'off'
p192
aa(lp193
F0.2531119397172
aI40
aI66
aI3
aS'on'
p194
aa(lp195
F0.0784986504259
aI40
aI0
aI3
aS'off'
p196
aa(lp197
F0.10435307685293
aI38
aI51
aI3
aS'on'
p198
aa(lp199
F0.04359836455842
aI38
aI0
aI3
aS'off'
p200
aa(lp201
F0.270600285814
aI38
aI16
aI3
aS'on'
p202
aa(lp203
F0.043666061166732
aI38
aI0
aI3
aS'off'
p204
aa(lp205
F0.17520857209274
aI40
aI50
aI3
aS'on'
p206
aa(lp207
F0.043517317722944
aI40
aI0
aI3
aS'off'
p208
aa(lp209
F0.78711257967916
aI40
aI56
aI3
aS'on'
p210
aa(lp211
F0.043562558486883
aI40
aI0
aI3
aS'off'
p212
aa(lp213
F0.10542676951081
aI38
aI28
aI3
aS'on'
p214
aa(lp215
F0.043134539393577
aI38
aI0
aI3
aS'off'
p216
aa(lp217
F0.44536014362166
aI40
aI87
aI3
aS'on'
p218
aa(lp219
F0.052161945386615
aI40
aI0
aI3
aS'off'
p220
aa(lp221
F0.27110309925592
aI40
aI20
aI3
aS'on'
p222
aa(lp223
F0.05273170874716
aI40
aI0
aI3
aS'off'
p224
aa(lp225
F0.13018116030253
aI38
aI60
aI3
aS'on'
p226
aa(lp227
F0.13078694521937
aI38
aI0
aI3
aS'off'
p228
aa(lp229
F0.35938566933692
aI0
aI0
aI0
aS'timeAfterLastHit'
p230
aaaI0
aI0
aaa(lp231
(lp232
(dp233
a(dp234
a(dp235
a(dp236
aa(lp237
(dp238
a(dp239
a(dp240
a(dp241
aa(lp242
(dp243
S'button'
p244
S'10'
p245
sS'playing'
p246
I01
sa(dp247
g244
S'20'
p248
sg246
I0
sa(dp249
a(dp250
aa(lp251
(dp252
g244
S'19'
p253
sg246
I1
sa(dp254
g244
S'29'
p255
sg246
I1
sa(dp256
a(dp257
aaa(lp258
I60
aI60
aI36
aI36
aa(lp259
(lp260
I0
aI2
aI3
aI5
aI7
aI8
aI10
aa(lp261
I0
aI2
aI3
aI5
aI7
aI8
aI10
aa(lp262
I0
aI2
aI3
aI5
aI7
aI8
aI10
aa(lp263
I0
aI1
aI2
aI3
aI4
aI5
aI6
aI7
aI8
aI9
aI10
aI11
aaa(lp264
(lp265
(lp266
I0
aI0
aI0
aI0
aI0
aI0
aI0
aI0
aI0
aI0
aI0
aI0
aa(lp267
I0
aI0
aI0
aI0
aI0
aI0
aI0
aI0
aI0
aI0
aI0
aI0
aa(lp268
I0
aI0
aI0
aI0
aI0
aI0
aI0
aI0
aI0
aI0
aI0
aI0
aa(lp269
I0
aI0
aI0
aI0
aI0
aI0
aI0
aI0
aI0
aI0
aI0
aI0
aaa(lp270
(lp271
I0
aI0
aI0
aI0
aI0
aI0
aI0
aI0
aI0
aI0
aI0
aI0
aa(lp272
I0
aI0
aI0
aI0
aI0
aI0
aI0
aI0
aI0
aI0
aI0
aI0
aa(lp273
I0
aI0
aI0
aI0
aI0
aI0
aI0
aI0
aI0
aI0
aI0
aI0
aa(lp274
I0
aI0
aI0
aI0
aI0
aI0
aI0
aI0
aI0
aI0
aI0
aI0
aaa(lp275
(lp276
I0
aI0
aI0
aI0
aI0
aI0
aI0
aI0
aI0
aI0
aI0
aI0
aa(lp277
I0
aI0
aI0
aI0
aI0
aI0
aI0
aI0
aI0
aI0
aI0
aI0
aa(lp278
I0
aI0
aI0
aI0
aI0
aI0
aI0
aI0
aI0
aI0
aI0
aI0
aa(lp279
I0
aI0
aI0
aI0
aI0
aI0
aI0
aI0
aI0
aI0
aI0
aI0
aaa(lp280
(lp281
I0
aI0
aI0
aI0
aI0
aI0
aI0
aI0
aI0
aI0
aI0
aI0
aa(lp282
I0
aI0
aI0
aI0
aI0
aI0
aI0
aI0
aI0
aI0
aI0
aI0
aa(lp283
I0
aI0
aI0
aI0
aI0
aI0
aI0
aI0
aI0
aI0
aI0
aI0
aa(lp284
I0
aI0
aI0
aI0
aI0
aI0
aI0
aI0
aI0
aI0
aI0
aI0
aaaa(lp285
(lp286
I0
aI0
aI0
aI0
aI0
aI0
aI0
aI0
aI0
aI0
aI0
aI0
aa(lp287
I0
aI0
aI0
aI0
aI0
aI0
aI0
aI0
aI0
aI0
aI0
aI0
aa(lp288
I0
aI0
aI0
aI0
aI0
aI0
aI0
aI0
aI0
aI0
aI0
aI0
aa(lp289
I0
aI0
aI0
aI0
aI0
aI0
aI0
aI0
aI0
aI0
aI0
aI0
aaaaI0
aI0
aI0
aI0
aI0
aI0
aI0
aI0
aI0
aI0
aI0
aI0
aI0
aI0
aI0
aI0
aI0
aI0
aI0
aI0
aI0
aI0
aI0
aI0
aI0
aI0
aI0
aI0
aI0
aI0
aI0
aI0
aI0
aI0
aI0
aI0
aI0
aI0
aI0
aI0
aI0
aI0
aI0
aI0
aI0
aI0
aI0
aI0
aI0
aI0
aI0
aI0
aI0
aI0
aI0
aI0
aI0
aI0
aI0
aI0
aI0
aI0
aI0
aI0
aI0
aI0
aI0
aI0
aI0
aI0
aI0
aI0
aI0
aI0
aI0
aI0
aI0
aI0
aI0
aI0
aI0
aI0
aI0
aI0
aI0
aI0
aI0
aI0
aI0
a.