(lp0
I0
aI0
aI0
aI0
aI0
aI0
aI0
aI0
aI0
aI0
a(lp1
(lp2
(lp3
I0
aI0
aI0
aI0
aa(lp4
I0
aI0
aI0
aI0
aa(lp5
(lp6
(lp7
F0.051450015258524
aI36
aI85
aI2
aS'on'
p8
aa(lp9
F0.13075414763262
aI36
aI0
aI2
aS'off'
p10
aa(lp11
F3.1705103089989
aI34
aI92
aI2
aS'on'
p12
aa(lp13
F0.12255259147241
aI34
aI0
aI2
aS'off'
p14
aa(lp15
F0.34016767125831
aI36
aI108
aI2
aS'on'
p16
aa(lp17
F0.11372633925203
aI36
aI0
aI2
aS'off'
p18
aa(lp19
F3.4269421721601
aI39
aI96
aI2
aS'on'
p20
aa(lp21
F0.11363503753273
aI39
aI0
aI2
aS'off'
p22
aa(lp23
F0.33222691058108
aI41
aI101
aI2
aS'on'
p24
aa(lp25
F0.09614905010676
aI41
aI0
aI2
aS'off'
p26
aa(lp27
F4.2020260588361
aI34
aI101
aI2
aS'on'
p28
aa(lp29
F0.13142623767089
aI34
aI0
aI2
aS'off'
p30
aa(lp31
F0.52480883006683
aI38
aI70
aI2
aS'on'
p32
aa(lp33
F0.14027723591789
aI38
aI0
aI2
aS'off'
p34
aa(lp35
F0.60137056838357
aI43
aI72
aI2
aS'on'
p36
aa(lp37
F0.11343095880329
aI43
aI0
aI2
aS'off'
p38
aa(lp39
F0.61203819974799
aI41
aI67
aI2
aS'on'
p40
aa(lp41
F0.11356478513699
aI41
aI0
aI2
aS'off'
p42
aa(lp43
F0.65536419261844
aI39
aI60
aI2
aS'on'
p44
aa(lp45
F0.12241169746994
aI39
aI0
aI2
aS'off'
p46
aa(lp47
F0.37373927380031
aI38
aI73
aI2
aS'on'
p48
aa(lp49
F0.11482650685502
aI38
aI0
aI2
aS'off'
p50
aa(lp51
F0.39660121043926
aI0
aI0
aI0
aS'timeAfterLastHit'
p52
aaa(lp53
(lp54
F0.050475636475312
aI36
aI80
aI2
aS'on'
p55
aa(lp56
F0.14069672236474
aI36
aI0
aI2
aS'off'
p57
aa(lp58
F3.1369476867894
aI34
aI75
aI2
aS'on'
p59
aa(lp60
F0.10431134737337
aI34
aI0
aI2
aS'off'
p61
aa(lp62
F0.32401145796211
aI36
aI99
aI2
aS'on'
p63
aa(lp64
F0.096319287213191
aI36
aI0
aI2
aS'off'
p65
aa(lp66
F3.4740326600495
aI39
aI69
aI2
aS'on'
p67
aa(lp68
F0.10545987947808
aI39
aI0
aI2
aS'off'
p69
aa(lp70
F0.33079039143013
aI41
aI72
aI2
aS'on'
p71
aa(lp72
F0.017443120370444
aI46
aI23
aI2
aS'on'
p73
aa(lp74
F0.053338888485086
aI46
aI0
aI2
aS'off'
p75
aa(lp76
F0.034722997797871
aI41
aI0
aI2
aS'off'
p77
aa(lp78
F4.225798962405
aI34
aI82
aI2
aS'on'
p79
aa(lp80
F0.13088044859069
aI34
aI0
aI2
aS'off'
p81
aa(lp82
F0.53308396782268
aI38
aI62
aI2
aS'on'
p83
aa(lp84
F0.23559405840751
aI38
aI0
aI2
aS'off'
p85
aa(lp86
F0.50672592613955
aI43
aI72
aI2
aS'on'
p87
aa(lp88
F0.20067714155266
aI43
aI0
aI2
aS'off'
p89
aa(lp90
F0.51439420821589
aI41
aI82
aI2
aS'on'
p91
aa(lp92
F0.18353707734423
aI41
aI0
aI2
aS'off'
p93
aa(lp94
F0.56733987639745
aI39
aI54
aI2
aS'on'
p95
aa(lp96
F0.15693219678178
aI39
aI0
aI2
aS'off'
p97
aa(lp98
F0.4099891269525
aI38
aI101
aI2
aS'on'
p99
aa(lp100
F0.1666343956058
aI38
aI0
aI2
aS'off'
p101
aa(lp102
F0.29986253799507
aI0
aI0
aI0
aS'timeAfterLastHit'
p103
aaaI0
aI0
aa(lp104
(lp105
(lp106
F0.0
aI36
aI75
aI3
aS'on'
p107
aa(lp108
F0.1491041262525
aI36
aI0
aI3
aS'off'
p109
aa(lp110
F0.8508958737475
aI36
aI73
aI3
aS'on'
p111
aa(lp112
F0.14902920662462
aI36
aI0
aI3
aS'off'
p113
aa(lp114
F0.35097079337538
aI36
aI89
aI3
aS'on'
p115
aa(lp116
F0.13938978660917
aI36
aI0
aI3
aS'off'
p117
aa(lp118
F0.69394354672416
aI36
aI85
aI3
aS'on'
p119
aa(lp120
F0.15734785957102
aI36
aI0
aI3
aS'off'
p121
aa(lp122
F0.50931880709565
aI36
aI101
aI3
aS'on'
p123
aa(lp124
F0.17438229963227
aI36
aI0
aI3
aS'off'
p125
aa(lp126
F0.82561770036773
aI0
aI0
aI0
aS'timeAfterLastHit'
p127
aaa(lp128
(lp129
F0.0
aI40
aI10
aI3
aS'on'
p130
aa(lp131
F0.043014918124754
aI40
aI0
aI3
aS'off'
p132
aa(lp133
F0.46289762931337
aI40
aI22
aI3
aS'on'
p134
aa(lp135
F0.043511927182408
aI40
aI0
aI3
aS'off'
p136
aa(lp137
F0.31428857063293
aI38
aI23
aI3
aS'on'
p138
aa(lp139
F0.043916279359109
aI38
aI0
aI3
aS'off'
p140
aa(lp141
F0.11384892681053
aI40
aI66
aI3
aS'on'
p142
aa(lp143
F0.052393820384168
aI40
aI0
aI3
aS'off'
p144
aa(lp145
F0.76851477326818
aI40
aI65
aI3
aS'on'
p146
aa(lp147
F0.043681920407835
aI40
aI0
aI3
aS'off'
p148
aa(lp149
F0.1392682798305
aI38
aI3
aI3
aS'on'
p150
aa(lp151
F0.04385336525047
aI38
aI0
aI3
aS'off'
p152
aa(lp153
F0.27128103713221
aI38
aI3
aI3
aS'on'
p154
aa(lp155
F0.05216395827847
aI38
aI0
aI3
aS'off'
p156
aa(lp157
F0.11341671321316
aI40
aI65
aI3
aS'on'
p158
aa(lp159
F0.087732112966478
aI40
aI0
aI3
aS'off'
p160
aa(lp161
F0.18342647358804
aI40
aI13
aI3
aS'on'
p162
aa(lp163
F0.07850598369987
aI40
aI0
aI3
aS'off'
p164
aa(lp165
F0.17433884123238
aI38
aI5
aI3
aS'on'
p166
aa(lp167
F0.043538898247789
aI38
aI0
aI3
aS'off'
p168
aa(lp169
F0.24464455669113
aI40
aI64
aI3
aS'on'
p170
aa(lp171
F0.052446763587795
aI40
aI0
aI3
aS'off'
p172
aa(lp173
F0.14844903971243
aI38
aI40
aI3
aS'on'
p174
aa(lp175
F0.044158696560771
aI38
aI0
aI3
aS'off'
p176
aa(lp177
F0.24321927632081
aI40
aI58
aI3
aS'on'
p178
aa(lp179
F0.052319465366963
aI40
aI0
aI3
aS'off'
p180
aa(lp181
F0.14852154554137
aI38
aI40
aI3
aS'on'
p182
aa(lp183
F0.043601294522887
aI38
aI0
aI3
aS'off'
p184
aa(lp185
F0.28849722035193
aI40
aI43
aI3
aS'on'
p186
aa(lp187
F0.078347867367484
aI40
aI0
aI3
aS'off'
p188
aa(lp189
F0.10447051775918
aI38
aI36
aI3
aS'on'
p190
aa(lp191
F0.044227940003111
aI38
aI0
aI3
aS'off'
p192
aa(lp193
F0.2531119397172
aI40
aI66
aI3
aS'on'
p194
aa(lp195
F0.0784986504259
aI40
aI0
aI3
aS'off'
p196
aa(lp197
F0.10435307685293
aI38
aI51
aI3
aS'on'
p198
aa(lp199
F0.04359836455842
aI38
aI0
aI3
aS'off'
p200
aa(lp201
F0.270600285814
aI38
aI16
aI3
aS'on'
p202
aa(lp203
F0.043666061166732
aI38
aI0
aI3
aS'off'
p204
aa(lp205
F0.17520857209274
aI40
aI50
aI3
aS'on'
p206
aa(lp207
F0.043517317722944
aI40
aI0
aI3
aS'off'
p208
aa(lp209
F0.78711257967916
aI40
aI56
aI3
aS'on'
p210
aa(lp211
F0.043562558486883
aI40
aI0
aI3
aS'off'
p212
aa(lp213
F0.10542676951081
aI38
aI28
aI3
aS'on'
p214
aa(lp215
F0.043134539393577
aI38
aI0
aI3
aS'off'
p216
aa(lp217
F0.44536014362166
aI40
aI87
aI3
aS'on'
p218
aa(lp219
F0.052161945386615
aI40
aI0
aI3
aS'off'
p220
aa(lp221
F0.27110309925592
aI40
aI20
aI3
aS'on'
p222
aa(lp223
F0.05273170874716
aI40
aI0
aI3
aS'off'
p224
aa(lp225
F0.13018116030253
aI38
aI60
aI3
aS'on'
p226
aa(lp227
F0.13078694521937
aI38
aI0
aI3
aS'off'
p228
aa(lp229
F0.35938566933692
aI0
aI0
aI0
aS'timeAfterLastHit'
p230
aaaI0
aI0
aaa(lp231
(lp232
(dp233
a(dp234
a(dp235
a(dp236
aa(lp237
(dp238
a(dp239
a(dp240
a(dp241
aa(lp242
(dp243
S'button'
p244
S'10'
p245
sS'playing'
p246
I01
sa(dp247
g244
S'20'
p248
sg246
I0
sa(dp249
a(dp250
aa(lp251
(dp252
g244
S'19'
p253
sg246
I1
sa(dp254
g244
S'29'
p255
sg246
I1
sa(dp256
a(dp257
aaa(lp258
I60
aI60
aI36
aI36
aa(lp259
(lp260
I0
aI2
aI3
aI5
aI7
aI8
aI10
aa(lp261
I0
aI2
aI3
aI5
aI7
aI8
aI10
aa(lp262
I0
aI2
aI3
aI5
aI7
aI8
aI10
aa(lp263
I0
aI1
aI2
aI3
aI4
aI5
aI6
aI7
aI8
aI9
aI10
aI11
aaa(lp264
(lp265
(lp266
I0
aI0
aI0
aI0
aI0
aI0
aI0
aI0
aI0
aI0
aI0
aI0
aa(lp267
I0
aI0
aI0
aI0
aI0
aI0
aI0
aI0
aI0
aI0
aI0
aI0
aa(lp268
I0
aI0
aI0
aI0
aI0
aI0
aI0
aI0
aI0
aI0
aI0
aI0
aa(lp269
I0
aI0
aI0
aI0
aI0
aI0
aI0
aI0
aI0
aI0
aI0
aI0
aaa(lp270
(lp271
I0
aI0
aI0
aI0
aI0
aI0
aI0
aI0
aI0
aI0
aI0
aI0
aa(lp272
I0
aI0
aI0
aI0
aI0
aI0
aI0
aI0
aI0
aI0
aI0
aI0
aa(lp273
I0
aI0
aI0
aI0
aI0
aI0
aI0
aI0
aI0
aI0
aI0
aI0
aa(lp274
I0
aI0
aI0
aI0
aI0
aI0
aI0
aI0
aI0
aI0
aI0
aI0
aaa(lp275
(lp276
I0
aI0
aI0
aI0
aI0
aI0
aI0
aI0
aI0
aI0
aI0
aI0
aa(lp277
I0
aI0
aI0
aI0
aI0
aI0
aI0
aI0
aI0
aI0
aI0
aI0
aa(lp278
I0
aI0
aI0
aI0
aI0
aI0
aI0
aI0
aI0
aI0
aI0
aI0
aa(lp279
I0
aI0
aI0
aI0
aI0
aI0
aI0
aI0
aI0
aI0
aI0
aI0
aaa(lp280
(lp281
I0
aI0
aI0
aI0
aI0
aI0
aI0
aI0
aI0
aI0
aI0
aI0
aa(lp282
I0
aI0
aI0
aI0
aI0
aI0
aI0
aI0
aI0
aI0
aI0
aI0
aa(lp283
I0
aI0
aI0
aI0
aI0
aI0
aI0
aI0
aI0
aI0
aI0
aI0
aa(lp284
I0
aI0
aI0
aI0
aI0
aI0
aI0
aI0
aI0
aI0
aI0
aI0
aaaa(lp285
(lp286
I0
aI0
aI0
aI0
aI0
aI0
aI0
aI0
aI0
aI0
aI0
aI0
aa(lp287
I0
aI0
aI0
aI0
aI0
aI0
aI0
aI0
aI0
aI0
aI0
aI0
aa(lp288
I0
aI0
aI0
aI0
aI0
aI0
aI0
aI0
aI0
aI0
aI0
aI0
aa(lp289
I0
aI0
aI0
aI0
aI0
aI0
aI0
aI0
aI0
aI0
aI0
aI0
aaaa(lp290
(lp291
(lp292
I0
aI0
aI0
aI0
aa(lp293
I0
aI0
aI0
aI0
aa(lp294
(lp295
(lp296
F0.051450015258524
aI36
aI85
aI2
ag8
aa(lp297
F0.13075414763262
aI36
aI0
aI2
ag10
aa(lp298
F3.1705103089989
aI34
aI92
aI2
ag12
aa(lp299
F0.12255259147241
aI34
aI0
aI2
ag14
aa(lp300
F0.34016767125831
aI36
aI108
aI2
ag16
aa(lp301
F0.11372633925203
aI36
aI0
aI2
ag18
aa(lp302
F3.4269421721601
aI39
aI96
aI2
ag20
aa(lp303
F0.11363503753273
aI39
aI0
aI2
ag22
aa(lp304
F0.33222691058108
aI41
aI101
aI2
ag24
aa(lp305
F0.09614905010676
aI41
aI0
aI2
ag26
aa(lp306
F4.2020260588361
aI34
aI101
aI2
ag28
aa(lp307
F0.13142623767089
aI34
aI0
aI2
ag30
aa(lp308
F0.52480883006683
aI38
aI70
aI2
ag32
aa(lp309
F0.14027723591789
aI38
aI0
aI2
ag34
aa(lp310
F0.60137056838357
aI43
aI72
aI2
ag36
aa(lp311
F0.11343095880329
aI43
aI0
aI2
ag38
aa(lp312
F0.61203819974799
aI41
aI67
aI2
ag40
aa(lp313
F0.11356478513699
aI41
aI0
aI2
ag42
aa(lp314
F0.65536419261844
aI39
aI60
aI2
ag44
aa(lp315
F0.12241169746994
aI39
aI0
aI2
ag46
aa(lp316
F0.37373927380031
aI38
aI73
aI2
ag48
aa(lp317
F0.11482650685502
aI38
aI0
aI2
ag50
aa(lp318
F0.39660121043926
aI0
aI0
aI0
ag52
aaa(lp319
(lp320
F0.050475636475312
aI36
aI80
aI2
ag55
aa(lp321
F0.14069672236474
aI36
aI0
aI2
ag57
aa(lp322
F3.1369476867894
aI34
aI75
aI2
ag59
aa(lp323
F0.10431134737337
aI34
aI0
aI2
ag61
aa(lp324
F0.32401145796211
aI36
aI99
aI2
ag63
aa(lp325
F0.096319287213191
aI36
aI0
aI2
ag65
aa(lp326
F3.4740326600495
aI39
aI69
aI2
ag67
aa(lp327
F0.10545987947808
aI39
aI0
aI2
ag69
aa(lp328
F0.33079039143013
aI41
aI72
aI2
ag71
aa(lp329
F0.017443120370444
aI46
aI23
aI2
ag73
aa(lp330
F0.053338888485086
aI46
aI0
aI2
ag75
aa(lp331
F0.034722997797871
aI41
aI0
aI2
ag77
aa(lp332
F4.225798962405
aI34
aI82
aI2
ag79
aa(lp333
F0.13088044859069
aI34
aI0
aI2
ag81
aa(lp334
F0.53308396782268
aI38
aI62
aI2
ag83
aa(lp335
F0.23559405840751
aI38
aI0
aI2
ag85
aa(lp336
F0.50672592613955
aI43
aI72
aI2
ag87
aa(lp337
F0.20067714155266
aI43
aI0
aI2
ag89
aa(lp338
F0.51439420821589
aI41
aI82
aI2
ag91
aa(lp339
F0.18353707734423
aI41
aI0
aI2
ag93
aa(lp340
F0.56733987639745
aI39
aI54
aI2
ag95
aa(lp341
F0.15693219678178
aI39
aI0
aI2
ag97
aa(lp342
F0.4099891269525
aI38
aI101
aI2
ag99
aa(lp343
F0.1666343956058
aI38
aI0
aI2
ag101
aa(lp344
F0.29986253799507
aI0
aI0
aI0
ag103
aaa(lp345
(lp346
F0.10152515518712
aI36
aI60
aI2
aS'on'
p347
aa(lp348
F0.099802192953803
aI36
aI0
aI2
aS'off'
p349
aa(lp350
F0.59010638885024
aI39
aI46
aI2
aS'on'
p351
aa(lp352
F0.10737636971862
aI39
aI0
aI2
aS'off'
p353
aa(lp354
F0.64453584583225
aI41
aI57
aI2
aS'on'
p355
aa(lp356
F0.11573831495912
aI41
aI0
aI2
aS'off'
p357
aa(lp358
F0.58143743330356
aI43
aI18
aI2
aS'on'
p359
aa(lp360
F0.12504932330535
aI43
aI0
aI2
aS'off'
p361
aa(lp362
F0.59080021115574
aI46
aI64
aI2
aS'on'
p363
aa(lp364
F0.12524266768082
aI46
aI0
aI2
aS'off'
p365
aa(lp366
F0.58099327138007
aI48
aI44
aI2
aS'on'
p367
aa(lp368
F0.11705507969896
aI48
aI0
aI2
aS'off'
p369
aa(lp370
F0.6166526405766
aI46
aI73
aI2
aS'on'
p371
aa(lp372
F0.14303792315286
aI46
aI0
aI2
aS'off'
p373
aa(lp374
F0.55448513938791
aI43
aI70
aI2
aS'on'
p375
aa(lp376
F0.13441311111137
aI43
aI0
aI2
aS'off'
p377
aa(lp378
F0.56377722224147
aI41
aI82
aI2
aS'on'
p379
aa(lp380
F0.14350191781477
aI41
aI0
aI2
aS'off'
p381
aa(lp382
F0.55520214097032
aI43
aI7
aI2
aS'on'
p383
aa(lp384
F0.16048318198045
aI43
aI0
aI2
aS'off'
p385
aa(lp386
F0.51868409946132
aI46
aI67
aI2
aS'on'
p387
aa(lp388
F0.14308031207861
aI46
aI0
aI2
aS'off'
p389
aa(lp390
F0.44690477285735
aI43
aI89
aI2
aS'on'
p391
aa(lp392
F0.10715003582732
aI43
aI0
aI2
aS'off'
p393
aa(lp394
F0.67074916056072
aI41
aI72
aI2
aS'on'
p395
aa(lp396
F0.11653971951296
aI41
aI0
aI2
aS'off'
p397
aa(lp398
F0.54776104691041
aI39
aI65
aI2
aS'on'
p399
aa(lp400
F0.1338232300875
aI39
aI0
aI2
aS'off'
p401
aa(lp402
F0.52778352265409
aI36
aI87
aI2
aS'on'
p403
aa(lp404
F0.08968034469649
aI36
aI0
aI2
aS'off'
p405
aa(lp406
F4.0732958889373
aI34
aI50
aI2
aS'on'
p407
aa(lp408
F0.12480103577536
aI34
aI0
aI2
aS'off'
p409
aa(lp410
F0.35765606153154
aI36
aI62
aI2
aS'on'
p411
aa(lp412
F0.098889404278907
aI36
aI0
aI2
aS'off'
p413
aa(lp414
F0.4023607409822
aI38
aI65
aI2
aS'on'
p415
aa(lp416
F0.12441860423291
aI38
aI0
aI2
aS'off'
p417
aa(lp418
F0.32158383381852
aI39
aI59
aI2
aS'on'
p419
aa(lp420
F0.11610518809016
aI39
aI0
aI2
aS'off'
p421
aa(lp422
F0.4275174664449
aI0
aI0
aI0
aS'timeAfterLastHit'
p423
aaaI0
aa(lp424
(lp425
(lp426
F0.0
aI36
aI75
aI3
ag107
aa(lp427
F0.1491041262525
aI36
aI0
aI3
ag109
aa(lp428
F0.8508958737475
aI36
aI73
aI3
ag111
aa(lp429
F0.14902920662462
aI36
aI0
aI3
ag113
aa(lp430
F0.35097079337538
aI36
aI89
aI3
ag115
aa(lp431
F0.13938978660917
aI36
aI0
aI3
ag117
aa(lp432
F0.69394354672416
aI36
aI85
aI3
ag119
aa(lp433
F0.15734785957102
aI36
aI0
aI3
ag121
aa(lp434
F0.50931880709565
aI36
aI101
aI3
ag123
aa(lp435
F0.17438229963227
aI36
aI0
aI3
ag125
aa(lp436
F0.82561770036773
aI0
aI0
aI0
ag127
aaa(lp437
(lp438
F0.0
aI40
aI10
aI3
ag130
aa(lp439
F0.043014918124754
aI40
aI0
aI3
ag132
aa(lp440
F0.46289762931337
aI40
aI22
aI3
ag134
aa(lp441
F0.043511927182408
aI40
aI0
aI3
ag136
aa(lp442
F0.31428857063293
aI38
aI23
aI3
ag138
aa(lp443
F0.043916279359109
aI38
aI0
aI3
ag140
aa(lp444
F0.11384892681053
aI40
aI66
aI3
ag142
aa(lp445
F0.052393820384168
aI40
aI0
aI3
ag144
aa(lp446
F0.76851477326818
aI40
aI65
aI3
ag146
aa(lp447
F0.043681920407835
aI40
aI0
aI3
ag148
aa(lp448
F0.1392682798305
aI38
aI3
aI3
ag150
aa(lp449
F0.04385336525047
aI38
aI0
aI3
ag152
aa(lp450
F0.27128103713221
aI38
aI3
aI3
ag154
aa(lp451
F0.05216395827847
aI38
aI0
aI3
ag156
aa(lp452
F0.11341671321316
aI40
aI65
aI3
ag158
aa(lp453
F0.087732112966478
aI40
aI0
aI3
ag160
aa(lp454
F0.18342647358804
aI40
aI13
aI3
ag162
aa(lp455
F0.07850598369987
aI40
aI0
aI3
ag164
aa(lp456
F0.17433884123238
aI38
aI5
aI3
ag166
aa(lp457
F0.043538898247789
aI38
aI0
aI3
ag168
aa(lp458
F0.24464455669113
aI40
aI64
aI3
ag170
aa(lp459
F0.052446763587795
aI40
aI0
aI3
ag172
aa(lp460
F0.14844903971243
aI38
aI40
aI3
ag174
aa(lp461
F0.044158696560771
aI38
aI0
aI3
ag176
aa(lp462
F0.24321927632081
aI40
aI58
aI3
ag178
aa(lp463
F0.052319465366963
aI40
aI0
aI3
ag180
aa(lp464
F0.14852154554137
aI38
aI40
aI3
ag182
aa(lp465
F0.043601294522887
aI38
aI0
aI3
ag184
aa(lp466
F0.28849722035193
aI40
aI43
aI3
ag186
aa(lp467
F0.078347867367484
aI40
aI0
aI3
ag188
aa(lp468
F0.10447051775918
aI38
aI36
aI3
ag190
aa(lp469
F0.044227940003111
aI38
aI0
aI3
ag192
aa(lp470
F0.2531119397172
aI40
aI66
aI3
ag194
aa(lp471
F0.0784986504259
aI40
aI0
aI3
ag196
aa(lp472
F0.10435307685293
aI38
aI51
aI3
ag198
aa(lp473
F0.04359836455842
aI38
aI0
aI3
ag200
aa(lp474
F0.270600285814
aI38
aI16
aI3
ag202
aa(lp475
F0.043666061166732
aI38
aI0
aI3
ag204
aa(lp476
F0.17520857209274
aI40
aI50
aI3
ag206
aa(lp477
F0.043517317722944
aI40
aI0
aI3
ag208
aa(lp478
F0.78711257967916
aI40
aI56
aI3
ag210
aa(lp479
F0.043562558486883
aI40
aI0
aI3
ag212
aa(lp480
F0.10542676951081
aI38
aI28
aI3
ag214
aa(lp481
F0.043134539393577
aI38
aI0
aI3
ag216
aa(lp482
F0.44536014362166
aI40
aI87
aI3
ag218
aa(lp483
F0.052161945386615
aI40
aI0
aI3
ag220
aa(lp484
F0.27110309925592
aI40
aI20
aI3
ag222
aa(lp485
F0.05273170874716
aI40
aI0
aI3
ag224
aa(lp486
F0.13018116030253
aI38
aI60
aI3
ag226
aa(lp487
F0.13078694521937
aI38
aI0
aI3
ag228
aa(lp488
F0.35938566933692
aI0
aI0
aI0
ag230
aaa(lp489
(lp490
F0.014292792660626
aI46
aI52
aI3
aS'on'
p491
aa(lp492
F0.044387617543862
aI46
aI0
aI3
aS'off'
p493
aa(lp494
F0.75117738230665
aI46
aI8
aI3
aS'on'
p495
aa(lp496
F0.044351112022468
aI46
aI0
aI3
aS'off'
p497
aa(lp498
F0.1078334128224
aI46
aI35
aI3
aS'on'
p499
aa(lp500
F0.062706406974712
aI46
aI0
aI3
aS'off'
p501
aa(lp502
F0.29588360431512
aI46
aI10
aI3
aS'on'
p503
aa(lp504
F0.04412448199264
aI46
aI0
aI3
aS'off'
p505
aa(lp506
F0.16155826325507
aI46
aI53
aI3
aS'on'
p507
aa(lp508
F0.054138003375783
aI46
aI0
aI3
aS'off'
p509
aa(lp510
F0.21425060449928
aI46
aI10
aI3
aS'on'
p511
aa(lp512
F0.044310789221072
aI46
aI0
aI3
aS'off'
p513
aa(lp514
F0.43950940741524
aI46
aI30
aI3
aS'on'
p515
aa(lp516
F0.045225537889564
aI46
aI0
aI3
aS'off'
p517
aa(lp518
F0.51009446117268
aI46
aI5
aI3
aS'on'
p519
aa(lp520
F0.052998557282308
aI46
aI0
aI3
aS'off'
p521
aa(lp522
F0.1254747891162
aI42
aI65
aI3
aS'on'
p523
aa(lp524
F0.044698789199174
aI42
aI0
aI3
aS'off'
p525
aa(lp526
F0.29436409578943
aI46
aI37
aI3
aS'on'
p527
aa(lp528
F0.053319398809435
aI46
aI0
aI3
aS'off'
p529
aa(lp530
F0.1350688530531
aI42
aI66
aI3
aS'on'
p531
aa(lp532
F0.080089336295487
aI42
aI0
aI3
aS'off'
p533
aa(lp534
F0.20637609510072
aI46
aI45
aI3
aS'on'
p535
aa(lp536
F0.054002060278208
aI46
aI0
aI3
aS'off'
p537
aa(lp538
F0.13509790375201
aI42
aI60
aI3
aS'on'
p539
aa(lp540
F0.04488715228058
aI42
aI0
aI3
aS'off'
p541
aa(lp542
F0.26810773823399
aI42
aI34
aI3
aS'on'
p543
aa(lp544
F0.053404310179758
aI42
aI0
aI3
aS'off'
p545
aa(lp546
F0.13458562991309
aI46
aI12
aI3
aS'on'
p547
aa(lp548
F0.044941557935317
aI46
aI0
aI3
aS'off'
p549
aa(lp550
F0.22355204568066
aI42
aI53
aI3
aS'on'
p551
aa(lp552
F0.080315521261582
aI42
aI0
aI3
aS'off'
p553
aa(lp554
F0.42086760077927
aI46
aI5
aI3
aS'on'
p555
aa(lp556
F0.04471778829793
aI46
aI0
aI3
aS'off'
p557
aa(lp558
F0.1523260261074
aI42
aI54
aI3
aS'on'
p559
aa(lp560
F0.044346284789526
aI42
aI0
aI3
aS'off'
p561
aa(lp562
F0.21494822354362
aI46
aI39
aI3
aS'on'
p563
aa(lp564
F0.053824938486741
aI46
aI0
aI3
aS'off'
p565
aa(lp566
F0.19633036135247
aI42
aI66
aI3
aS'on'
p567
aa(lp568
F0.089800715688398
aI42
aI0
aI3
aS'off'
p569
aa(lp570
F0.42035990254112
aI46
aI26
aI3
aS'on'
p571
aa(lp572
F0.053655271517982
aI46
aI0
aI3
aS'off'
p573
aa(lp574
F0.50084428623268
aI46
aI35
aI3
aS'on'
p575
aa(lp576
F0.053114453668513
aI46
aI0
aI3
aS'off'
p577
aa(lp578
F0.22434097132327
aI42
aI60
aI3
aS'on'
p579
aa(lp580
F0.044707476506574
aI42
aI0
aI3
aS'off'
p581
aa(lp582
F0.11746596452736
aI46
aI63
aI3
aS'on'
p583
aa(lp584
F0.097729623894566
aI46
aI0
aI3
aS'off'
p585
aa(lp586
F0.40549239911434
aI0
aI0
aI0
aS'timeAfterLastHit'
p587
aaaI0
aaa(lp588
(lp589
(dp590
a(dp591
a(dp592
a(dp593
aa(lp594
(dp595
a(dp596
a(dp597
a(dp598
aa(lp599
(dp600
g244
g245
sg246
I0
sa(dp601
g244
g248
sg246
I0
sa(dp602
S'button'
p603
S'30'
p604
sS'playing'
p605
I01
sa(dp606
aa(lp607
(dp608
g244
g253
sg246
I1
sa(dp609
g244
g255
sg246
I0
sa(dp610
g603
S'39'
p611
sg605
I1
sa(dp612
aaa(lp613
I60
aI60
aI36
aI36
aa(lp614
(lp615
I0
aI2
aI3
aI5
aI7
aI8
aI10
aa(lp616
I0
aI2
aI3
aI5
aI7
aI8
aI10
aa(lp617
I0
aI2
aI3
aI5
aI7
aI8
aI10
aa(lp618
I0
aI1
aI2
aI3
aI4
aI5
aI6
aI7
aI8
aI9
aI10
aI11
aaa(lp619
(lp620
(lp621
I0
aI0
aI0
aI0
aI0
aI0
aI0
aI0
aI0
aI0
aI0
aI0
aa(lp622
I0
aI0
aI0
aI0
aI0
aI0
aI0
aI0
aI0
aI0
aI0
aI0
aa(lp623
I0
aI0
aI0
aI0
aI0
aI0
aI0
aI0
aI0
aI0
aI0
aI0
aa(lp624
I0
aI0
aI0
aI0
aI0
aI0
aI0
aI0
aI0
aI0
aI0
aI0
aaa(lp625
(lp626
I0
aI0
aI0
aI0
aI0
aI0
aI0
aI0
aI0
aI0
aI0
aI0
aa(lp627
I0
aI0
aI0
aI0
aI0
aI0
aI0
aI0
aI0
aI0
aI0
aI0
aa(lp628
I0
aI0
aI0
aI0
aI0
aI0
aI0
aI0
aI0
aI0
aI0
aI0
aa(lp629
I0
aI0
aI0
aI0
aI0
aI0
aI0
aI0
aI0
aI0
aI0
aI0
aaa(lp630
(lp631
I0
aI0
aI0
aI0
aI0
aI0
aI0
aI0
aI0
aI0
aI0
aI0
aa(lp632
I0
aI0
aI0
aI0
aI0
aI0
aI0
aI0
aI0
aI0
aI0
aI0
aa(lp633
I0
aI0
aI0
aI0
aI0
aI0
aI0
aI0
aI0
aI0
aI0
aI0
aa(lp634
I0
aI0
aI0
aI0
aI0
aI0
aI0
aI0
aI0
aI0
aI0
aI0
aaa(lp635
(lp636
I0
aI0
aI0
aI0
aI0
aI0
aI0
aI0
aI0
aI0
aI0
aI0
aa(lp637
I0
aI0
aI0
aI0
aI0
aI0
aI0
aI0
aI0
aI0
aI0
aI0
aa(lp638
I0
aI0
aI0
aI0
aI0
aI0
aI0
aI0
aI0
aI0
aI0
aI0
aa(lp639
I0
aI0
aI0
aI0
aI0
aI0
aI0
aI0
aI0
aI0
aI0
aI0
aaaa(lp640
(lp641
I0
aI0
aI0
aI0
aI0
aI0
aI0
aI0
aI0
aI0
aI0
aI0
aa(lp642
I0
aI0
aI0
aI0
aI0
aI0
aI0
aI0
aI0
aI0
aI0
aI0
aa(lp643
I0
aI0
aI0
aI0
aI0
aI0
aI0
aI0
aI0
aI0
aI0
aI0
aa(lp644
I0
aI0
aI0
aI0
aI0
aI0
aI0
aI0
aI0
aI0
aI0
aI0
aaaaI0
aI0
aI0
aI0
aI0
aI0
aI0
aI0
aI0
aI0
aI0
aI0
aI0
aI0
aI0
aI0
aI0
aI0
aI0
aI0
aI0
aI0
aI0
aI0
aI0
aI0
aI0
aI0
aI0
aI0
aI0
aI0
aI0
aI0
aI0
aI0
aI0
aI0
aI0
aI0
aI0
aI0
aI0
aI0
aI0
aI0
aI0
aI0
aI0
aI0
aI0
aI0
aI0
aI0
aI0
aI0
aI0
aI0
aI0
aI0
aI0
aI0
aI0
aI0
aI0
aI0
aI0
aI0
aI0
aI0
aI0
aI0
aI0
aI0
aI0
aI0
aI0
aI0
aI0
aI0
aI0
aI0
aI0
aI0
aI0
aI0
aI0
aI0
a.