(lp0
(dp1
a(dp2
a(dp3
a(dp4
a(dp5
a(dp6
a(dp7
a(dp8
a(dp9
a(dp10
a(dp11
a(dp12
a(dp13
a(dp14
a(dp15
a(dp16
a(dp17
a(dp18
a(dp19
a(dp20
a(dp21
a(dp22
a(dp23
a(dp24
a(dp25
a(dp26
a(dp27
a(dp28
a(dp29
a(dp30
a(dp31
a(dp32
a(dp33
a(dp34
a(dp35
a(dp36
a(dp37
a(dp38
a(dp39
a(dp40
a(dp41
F41.0
I23
sI34
I11
sF43.0
I25
sI36
I13
sI39
I16
sa(dp42
F41.0
I23
sF43.0
I25
sI36
I13
sF46.0
I33
sI39
I16
sa(dp43
F48.0
I35
sF41.0
I23
sF43.0
I25
sI36
I13
sF46.0
I33
sa(dp44
F48.0
I35
sF41.0
I23
sF43.0
I25
sF46.0
I33
sF51.0
I43
sa(dp45
F48.0
I35
sF51.0
I43
sF43.0
I25
sF53.0
I45
sF46.0
I33
sa(dp46
F48.0
I35
sF51.0
I43
sF53.0
I45
sF46.0
I33
sF55.0
I47
sa(dp47
F48.0
I35
sF58.0
I55
sF51.0
I43
sF53.0
I45
sF55.0
I52
sa(dp48
F58.0
I55
sF51.0
I43
sF60.0
I62
sF53.0
I45
sF55.0
I52
sa(dp49
a(dp50
a(dp51
a(dp52
a(dp53
a(dp54
a(dp55
a(dp56
a(dp57
a(dp58
a(dp59
a(dp60
a(dp61
a(dp62
a(dp63
a(dp64
a(dp65
a(dp66
a(dp67
a(dp68
a(dp69
a(dp70
a(dp71
a(dp72
a(dp73
a(dp74
a(dp75
a(dp76
a(dp77
a(dp78
a(dp79
a(dp80
a(dp81
a(dp82
a(dp83
a(dp84
a(dp85
a(dp86
a(dp87
a(dp88
a(dp89
a(dp90
a(dp91
a(dp92
a(dp93
a(dp94
a(dp95
a(dp96
a(dp97
a(dp98
a(dp99
a(dp100
a.