(lp0
(dp1
a(dp2
a(dp3
a(dp4
a(dp5
a(dp6
a(dp7
a(dp8
a(dp9
a(dp10
a(dp11
a(dp12
a(dp13
a(dp14
a(dp15
a(dp16
a(dp17
a(dp18
a(dp19
a(dp20
a(dp21
a(dp22
a(dp23
a(dp24
a(dp25
a(dp26
a(dp27
a(dp28
a(dp29
a(dp30
a(dp31
F65.0
I67
sF58.0
I55
sF51.0
I43
sF62.0
I64
sF55.0
I47
sa(dp32
F56.0
I53
sF67.0
I74
sF60.0
I57
sF53.0
I45
sF63.0
I65
sa(dp33
F65.0
I67
sF58.0
I55
sF68.0
I75
sF62.0
I64
sF55.0
I52
sa(dp34
F56.0
I53
sF67.0
I74
sF60.0
I57
sF70.0
I77
sF63.0
I65
sa(dp35
F65.0
I67
sF58.0
I55
sF68.0
I75
sF62.0
I64
sF70.0
I82
sa(dp36
F72.0
I84
sF67.0
I74
sF60.0
I57
sF70.0
I77
sF63.0
I65
sa(dp37
F65.0
I72
sF68.0
I75
sF62.0
I64
sa(dp38
F67.0
I74
sF68.0
I75
sF70.0
I77
sF63.0
I65
sa(dp39
a(dp40
a(dp41
a(dp42
a(dp43
a(dp44
a(dp45
a(dp46
a(dp47
a(dp48
a(dp49
a(dp50
a(dp51
F41.0
I23
sF43.0
I25
sI36
I13
sI38
I15
sI39
I16
sa(dp52
F41.0
I23
sF43.0
I25
sF44.0
I26
sF46.0
I33
sI39
I16
sa(dp53
F48.0
I35
sF50.0
I37
sF43.0
I25
sF44.0
I26
sF46.0
I33
sa(dp54
F48.0
I35
sF50.0
I37
sF51.0
I43
sF53.0
I45
sF46.0
I33
sa(dp55
F56.0
I53
sF50.0
I37
sF51.0
I43
sF53.0
I45
sF55.0
I47
sa(dp56
F56.0
I53
sF58.0
I55
sF60.0
I57
sF53.0
I45
sF55.0
I47
sa(dp57
F56.0
I53
sF58.0
I55
sF60.0
I57
sF62.0
I64
sF63.0
I65
sa(dp58
F65.0
I67
sF67.0
I74
sF60.0
I57
sF62.0
I64
sF63.0
I65
sa(dp59
a(dp60
a(dp61
F41.0
I23
sI34
I11
sF43.0
I25
sI36
I13
sI38
I15
sa(dp62
F41.0
I23
sF43.0
I25
sI36
I13
sI38
I15
sF46.0
I33
sa(dp63
F48.0
I35
sF41.0
I23
sF43.0
I25
sI38
I15
sF46.0
I33
sa(dp64
F48.0
I35
sF41.0
I23
sF50.0
I42
sF43.0
I25
sF46.0
I33
sa(dp65
F48.0
I35
sF50.0
I42
sF43.0
I25
sF53.0
I45
sF46.0
I33
sa(dp66
F48.0
I35
sF50.0
I42
sF53.0
I45
sF46.0
I33
sF55.0
I47
sa(dp67
F48.0
I35
sF50.0
I42
sF58.0
I55
sF53.0
I45
sF55.0
I52
sa(dp68
F50.0
I42
sF58.0
I55
sF60.0
I62
sF53.0
I45
sF55.0
I52
sa(dp69
a(dp70
a(dp71
F41.0
I23
sI34
I11
sF43.0
I25
sI36
I13
sI39
I16
sa(dp72
F41.0
I23
sF43.0
I25
sI36
I13
sF46.0
I33
sI39
I16
sa(dp73
F48.0
I35
sF41.0
I23
sF43.0
I25
sF46.0
I33
sI39
I16
sa(dp74
F48.0
I35
sF41.0
I23
sF43.0
I25
sF46.0
I33
sF51.0
I43
sa(dp75
F48.0
I35
sF43.0
I25
sF51.0
I43
sF53.0
I45
sF46.0
I33
sa(dp76
F48.0
I35
sF51.0
I43
sF53.0
I45
sF46.0
I33
sF55.0
I47
sa(dp77
F48.0
I35
sF58.0
I55
sF51.0
I43
sF53.0
I45
sF55.0
I52
sa(dp78
F58.0
I55
sF51.0
I43
sF60.0
I62
sF53.0
I45
sF55.0
I52
sa(dp79
a(dp80
a(dp81
a(dp82
a(dp83
a(dp84
a(dp85
a(dp86
a(dp87
a(dp88
a(dp89
a(dp90
a(dp91
a(dp92
a(dp93
a(dp94
a(dp95
a(dp96
a(dp97
a(dp98
a(dp99
a(dp100
a.